
printAligned.o:     file format ss-coff-little

Disassembly of section .text:

00400140 <__start>:
  400140:	28 00 00 00 	lw $16,0($29)
  400144:	00 00 10 1d 
  400148:	a2 00 00 00 	lui $28,4097
  40014c:	01 10 1c 00 
  400150:	43 00 00 00 	addiu $28,$28,-24960
  400154:	80 9e 1c 1c 
  400158:	43 00 00 00 	addiu $17,$29,4
  40015c:	04 00 11 1d 
  400160:	43 00 00 00 	addiu $3,$17,4
  400164:	04 00 03 11 
  400168:	55 00 00 00 	sll $2,$16,0x2
  40016c:	02 02 10 00 
  400170:	42 00 00 00 	addu $3,$3,$2
  400174:	00 03 02 03 
  400178:	42 00 00 00 	addu $18,$0,$3
  40017c:	00 12 03 00 
  400180:	34 00 00 00 	sw $18,-32412($28)
  400184:	64 81 12 1c 
  400188:	43 00 00 00 	addiu $29,$29,-24
  40018c:	e8 ff 1d 1d 
  400190:	42 00 00 00 	addu $4,$0,$16
  400194:	00 04 10 00 
  400198:	42 00 00 00 	addu $5,$0,$17
  40019c:	00 05 11 00 
  4001a0:	42 00 00 00 	addu $6,$0,$18
  4001a4:	00 06 12 00 
  4001a8:	02 00 00 00 	jal 402e00 <__libc_init>
  4001ac:	80 0b 10 00 
  4001b0:	34 00 00 00 	sw $0,-32416($28)
  4001b4:	60 81 00 1c 
  4001b8:	42 00 00 00 	addu $4,$0,$16
  4001bc:	00 04 10 00 
  4001c0:	42 00 00 00 	addu $5,$0,$17
  4001c4:	00 05 11 00 
  4001c8:	42 00 00 00 	addu $6,$0,$18
  4001cc:	00 06 12 00 
  4001d0:	02 00 00 00 	jal 4027f0 <main>
  4001d4:	fc 09 10 00 
  4001d8:	42 00 00 00 	addu $4,$0,$2
  4001dc:	00 04 02 00 
  4001e0:	02 00 00 00 	jal 402e30 <exit>
  4001e4:	8c 0b 10 00 
	...

004001f0 <AddRoundKey>:
  4001f0:	22 00 00 00 	lbu $3,3($5)
  4001f4:	03 00 03 05 
  4001f8:	43 00 00 00 	addiu $29,$29,-8
  4001fc:	f8 ff 1d 1d 
  400200:	30 00 00 00 	sb $3,0($29)
  400204:	00 00 03 1d 
  400208:	26 00 00 00 	lhu $2,2($5)
  40020c:	02 00 02 05 
  400210:	30 00 00 00 	sb $2,1($29)
  400214:	01 00 02 1d 
  400218:	28 00 00 00 	lw $2,0($5)
  40021c:	00 00 02 05 
  400220:	57 00 00 00 	srl $2,$2,0x8
  400224:	08 02 02 00 
  400228:	30 00 00 00 	sb $2,2($29)
  40022c:	02 00 02 1d 
  400230:	28 00 00 00 	lw $2,0($5)
  400234:	00 00 02 05 
  400238:	30 00 00 00 	sb $2,3($29)
  40023c:	03 00 02 1d 
  400240:	22 00 00 00 	lbu $2,0($4)
  400244:	00 00 02 04 
  400248:	52 00 00 00 	xor $2,$2,$3
  40024c:	00 02 03 02 
  400250:	30 00 00 00 	sb $2,0($4)
  400254:	00 00 02 04 
  400258:	22 00 00 00 	lbu $2,4($4)
  40025c:	04 00 02 04 
  400260:	22 00 00 00 	lbu $3,1($29)
  400264:	01 00 03 1d 
  400268:	52 00 00 00 	xor $2,$2,$3
  40026c:	00 02 03 02 
  400270:	30 00 00 00 	sb $2,4($4)
  400274:	04 00 02 04 
  400278:	22 00 00 00 	lbu $2,8($4)
  40027c:	08 00 02 04 
  400280:	22 00 00 00 	lbu $3,2($29)
  400284:	02 00 03 1d 
  400288:	52 00 00 00 	xor $2,$2,$3
  40028c:	00 02 03 02 
  400290:	30 00 00 00 	sb $2,8($4)
  400294:	08 00 02 04 
  400298:	22 00 00 00 	lbu $2,12($4)
  40029c:	0c 00 02 04 
  4002a0:	22 00 00 00 	lbu $3,3($29)
  4002a4:	03 00 03 1d 
  4002a8:	52 00 00 00 	xor $2,$2,$3
  4002ac:	00 02 03 02 
  4002b0:	30 00 00 00 	sb $2,12($4)
  4002b4:	0c 00 02 04 
  4002b8:	22 00 00 00 	lbu $3,7($5)
  4002bc:	07 00 03 05 
  4002c0:	30 00 00 00 	sb $3,0($29)
  4002c4:	00 00 03 1d 
  4002c8:	26 00 00 00 	lhu $2,6($5)
  4002cc:	06 00 02 05 
  4002d0:	30 00 00 00 	sb $2,1($29)
  4002d4:	01 00 02 1d 
  4002d8:	28 00 00 00 	lw $2,4($5)
  4002dc:	04 00 02 05 
  4002e0:	57 00 00 00 	srl $2,$2,0x8
  4002e4:	08 02 02 00 
  4002e8:	30 00 00 00 	sb $2,2($29)
  4002ec:	02 00 02 1d 
  4002f0:	28 00 00 00 	lw $2,4($5)
  4002f4:	04 00 02 05 
  4002f8:	30 00 00 00 	sb $2,3($29)
  4002fc:	03 00 02 1d 
  400300:	22 00 00 00 	lbu $2,1($4)
  400304:	01 00 02 04 
  400308:	52 00 00 00 	xor $2,$2,$3
  40030c:	00 02 03 02 
  400310:	30 00 00 00 	sb $2,1($4)
  400314:	01 00 02 04 
  400318:	22 00 00 00 	lbu $2,5($4)
  40031c:	05 00 02 04 
  400320:	22 00 00 00 	lbu $3,1($29)
  400324:	01 00 03 1d 
  400328:	52 00 00 00 	xor $2,$2,$3
  40032c:	00 02 03 02 
  400330:	30 00 00 00 	sb $2,5($4)
  400334:	05 00 02 04 
  400338:	22 00 00 00 	lbu $2,9($4)
  40033c:	09 00 02 04 
  400340:	22 00 00 00 	lbu $3,2($29)
  400344:	02 00 03 1d 
  400348:	52 00 00 00 	xor $2,$2,$3
  40034c:	00 02 03 02 
  400350:	30 00 00 00 	sb $2,9($4)
  400354:	09 00 02 04 
  400358:	22 00 00 00 	lbu $2,13($4)
  40035c:	0d 00 02 04 
  400360:	22 00 00 00 	lbu $3,3($29)
  400364:	03 00 03 1d 
  400368:	52 00 00 00 	xor $2,$2,$3
  40036c:	00 02 03 02 
  400370:	30 00 00 00 	sb $2,13($4)
  400374:	0d 00 02 04 
  400378:	22 00 00 00 	lbu $3,11($5)
  40037c:	0b 00 03 05 
  400380:	30 00 00 00 	sb $3,0($29)
  400384:	00 00 03 1d 
  400388:	26 00 00 00 	lhu $2,10($5)
  40038c:	0a 00 02 05 
  400390:	30 00 00 00 	sb $2,1($29)
  400394:	01 00 02 1d 
  400398:	28 00 00 00 	lw $2,8($5)
  40039c:	08 00 02 05 
  4003a0:	57 00 00 00 	srl $2,$2,0x8
  4003a4:	08 02 02 00 
  4003a8:	30 00 00 00 	sb $2,2($29)
  4003ac:	02 00 02 1d 
  4003b0:	28 00 00 00 	lw $2,8($5)
  4003b4:	08 00 02 05 
  4003b8:	30 00 00 00 	sb $2,3($29)
  4003bc:	03 00 02 1d 
  4003c0:	22 00 00 00 	lbu $2,2($4)
  4003c4:	02 00 02 04 
  4003c8:	52 00 00 00 	xor $2,$2,$3
  4003cc:	00 02 03 02 
  4003d0:	30 00 00 00 	sb $2,2($4)
  4003d4:	02 00 02 04 
  4003d8:	22 00 00 00 	lbu $2,6($4)
  4003dc:	06 00 02 04 
  4003e0:	22 00 00 00 	lbu $3,1($29)
  4003e4:	01 00 03 1d 
  4003e8:	52 00 00 00 	xor $2,$2,$3
  4003ec:	00 02 03 02 
  4003f0:	30 00 00 00 	sb $2,6($4)
  4003f4:	06 00 02 04 
  4003f8:	22 00 00 00 	lbu $2,10($4)
  4003fc:	0a 00 02 04 
  400400:	22 00 00 00 	lbu $3,2($29)
  400404:	02 00 03 1d 
  400408:	52 00 00 00 	xor $2,$2,$3
  40040c:	00 02 03 02 
  400410:	30 00 00 00 	sb $2,10($4)
  400414:	0a 00 02 04 
  400418:	22 00 00 00 	lbu $2,14($4)
  40041c:	0e 00 02 04 
  400420:	22 00 00 00 	lbu $3,3($29)
  400424:	03 00 03 1d 
  400428:	52 00 00 00 	xor $2,$2,$3
  40042c:	00 02 03 02 
  400430:	30 00 00 00 	sb $2,14($4)
  400434:	0e 00 02 04 
  400438:	22 00 00 00 	lbu $3,15($5)
  40043c:	0f 00 03 05 
  400440:	30 00 00 00 	sb $3,0($29)
  400444:	00 00 03 1d 
  400448:	26 00 00 00 	lhu $2,14($5)
  40044c:	0e 00 02 05 
  400450:	30 00 00 00 	sb $2,1($29)
  400454:	01 00 02 1d 
  400458:	28 00 00 00 	lw $2,12($5)
  40045c:	0c 00 02 05 
  400460:	57 00 00 00 	srl $2,$2,0x8
  400464:	08 02 02 00 
  400468:	30 00 00 00 	sb $2,2($29)
  40046c:	02 00 02 1d 
  400470:	28 00 00 00 	lw $2,12($5)
  400474:	0c 00 02 05 
  400478:	30 00 00 00 	sb $2,3($29)
  40047c:	03 00 02 1d 
  400480:	22 00 00 00 	lbu $2,3($4)
  400484:	03 00 02 04 
  400488:	52 00 00 00 	xor $2,$2,$3
  40048c:	00 02 03 02 
  400490:	30 00 00 00 	sb $2,3($4)
  400494:	03 00 02 04 
  400498:	22 00 00 00 	lbu $2,7($4)
  40049c:	07 00 02 04 
  4004a0:	22 00 00 00 	lbu $3,1($29)
  4004a4:	01 00 03 1d 
  4004a8:	52 00 00 00 	xor $2,$2,$3
  4004ac:	00 02 03 02 
  4004b0:	30 00 00 00 	sb $2,7($4)
  4004b4:	07 00 02 04 
  4004b8:	22 00 00 00 	lbu $2,11($4)
  4004bc:	0b 00 02 04 
  4004c0:	22 00 00 00 	lbu $3,2($29)
  4004c4:	02 00 03 1d 
  4004c8:	52 00 00 00 	xor $2,$2,$3
  4004cc:	00 02 03 02 
  4004d0:	30 00 00 00 	sb $2,11($4)
  4004d4:	0b 00 02 04 
  4004d8:	22 00 00 00 	lbu $2,15($4)
  4004dc:	0f 00 02 04 
  4004e0:	22 00 00 00 	lbu $3,3($29)
  4004e4:	03 00 03 1d 
  4004e8:	52 00 00 00 	xor $2,$2,$3
  4004ec:	00 02 03 02 
  4004f0:	30 00 00 00 	sb $2,15($4)
  4004f4:	0f 00 02 04 
  4004f8:	43 00 00 00 	addiu $29,$29,8
  4004fc:	08 00 1d 1d 
  400500:	03 00 00 00 	jr $31
  400504:	00 00 00 1f 

00400508 <SubBytes>:
  400508:	22 00 00 00 	lbu $3,0($4)
  40050c:	00 00 03 04 
  400510:	a2 00 00 00 	lui $5,4096
  400514:	00 10 05 00 
  400518:	43 00 00 00 	addiu $5,$5,0
  40051c:	00 00 05 05 
  400520:	4f 00 00 00 	andi $2,$3,240
  400524:	f0 00 02 03 
  400528:	42 00 00 00 	addu $2,$2,$5
  40052c:	00 02 05 02 
  400530:	4f 00 00 00 	andi $3,$3,15
  400534:	0f 00 03 03 
  400538:	42 00 00 00 	addu $2,$2,$3
  40053c:	00 02 03 02 
  400540:	22 00 00 00 	lbu $2,0($2)
  400544:	00 00 02 02 
  400548:	22 00 00 00 	lbu $3,1($4)
  40054c:	01 00 03 04 
  400550:	30 00 00 00 	sb $2,0($4)
  400554:	00 00 02 04 
  400558:	4f 00 00 00 	andi $2,$3,240
  40055c:	f0 00 02 03 
  400560:	42 00 00 00 	addu $2,$2,$5
  400564:	00 02 05 02 
  400568:	4f 00 00 00 	andi $3,$3,15
  40056c:	0f 00 03 03 
  400570:	42 00 00 00 	addu $2,$2,$3
  400574:	00 02 03 02 
  400578:	22 00 00 00 	lbu $2,0($2)
  40057c:	00 00 02 02 
  400580:	22 00 00 00 	lbu $3,2($4)
  400584:	02 00 03 04 
  400588:	30 00 00 00 	sb $2,1($4)
  40058c:	01 00 02 04 
  400590:	4f 00 00 00 	andi $2,$3,240
  400594:	f0 00 02 03 
  400598:	42 00 00 00 	addu $2,$2,$5
  40059c:	00 02 05 02 
  4005a0:	4f 00 00 00 	andi $3,$3,15
  4005a4:	0f 00 03 03 
  4005a8:	42 00 00 00 	addu $2,$2,$3
  4005ac:	00 02 03 02 
  4005b0:	22 00 00 00 	lbu $2,0($2)
  4005b4:	00 00 02 02 
  4005b8:	22 00 00 00 	lbu $3,3($4)
  4005bc:	03 00 03 04 
  4005c0:	30 00 00 00 	sb $2,2($4)
  4005c4:	02 00 02 04 
  4005c8:	4f 00 00 00 	andi $2,$3,240
  4005cc:	f0 00 02 03 
  4005d0:	42 00 00 00 	addu $2,$2,$5
  4005d4:	00 02 05 02 
  4005d8:	4f 00 00 00 	andi $3,$3,15
  4005dc:	0f 00 03 03 
  4005e0:	42 00 00 00 	addu $2,$2,$3
  4005e4:	00 02 03 02 
  4005e8:	22 00 00 00 	lbu $2,0($2)
  4005ec:	00 00 02 02 
  4005f0:	22 00 00 00 	lbu $3,4($4)
  4005f4:	04 00 03 04 
  4005f8:	30 00 00 00 	sb $2,3($4)
  4005fc:	03 00 02 04 
  400600:	4f 00 00 00 	andi $2,$3,240
  400604:	f0 00 02 03 
  400608:	42 00 00 00 	addu $2,$2,$5
  40060c:	00 02 05 02 
  400610:	4f 00 00 00 	andi $3,$3,15
  400614:	0f 00 03 03 
  400618:	42 00 00 00 	addu $2,$2,$3
  40061c:	00 02 03 02 
  400620:	22 00 00 00 	lbu $2,0($2)
  400624:	00 00 02 02 
  400628:	22 00 00 00 	lbu $3,5($4)
  40062c:	05 00 03 04 
  400630:	30 00 00 00 	sb $2,4($4)
  400634:	04 00 02 04 
  400638:	4f 00 00 00 	andi $2,$3,240
  40063c:	f0 00 02 03 
  400640:	42 00 00 00 	addu $2,$2,$5
  400644:	00 02 05 02 
  400648:	4f 00 00 00 	andi $3,$3,15
  40064c:	0f 00 03 03 
  400650:	42 00 00 00 	addu $2,$2,$3
  400654:	00 02 03 02 
  400658:	22 00 00 00 	lbu $2,0($2)
  40065c:	00 00 02 02 
  400660:	22 00 00 00 	lbu $3,6($4)
  400664:	06 00 03 04 
  400668:	30 00 00 00 	sb $2,5($4)
  40066c:	05 00 02 04 
  400670:	4f 00 00 00 	andi $2,$3,240
  400674:	f0 00 02 03 
  400678:	42 00 00 00 	addu $2,$2,$5
  40067c:	00 02 05 02 
  400680:	4f 00 00 00 	andi $3,$3,15
  400684:	0f 00 03 03 
  400688:	42 00 00 00 	addu $2,$2,$3
  40068c:	00 02 03 02 
  400690:	22 00 00 00 	lbu $2,0($2)
  400694:	00 00 02 02 
  400698:	22 00 00 00 	lbu $3,7($4)
  40069c:	07 00 03 04 
  4006a0:	30 00 00 00 	sb $2,6($4)
  4006a4:	06 00 02 04 
  4006a8:	4f 00 00 00 	andi $2,$3,240
  4006ac:	f0 00 02 03 
  4006b0:	42 00 00 00 	addu $2,$2,$5
  4006b4:	00 02 05 02 
  4006b8:	4f 00 00 00 	andi $3,$3,15
  4006bc:	0f 00 03 03 
  4006c0:	42 00 00 00 	addu $2,$2,$3
  4006c4:	00 02 03 02 
  4006c8:	22 00 00 00 	lbu $2,0($2)
  4006cc:	00 00 02 02 
  4006d0:	22 00 00 00 	lbu $3,8($4)
  4006d4:	08 00 03 04 
  4006d8:	30 00 00 00 	sb $2,7($4)
  4006dc:	07 00 02 04 
  4006e0:	4f 00 00 00 	andi $2,$3,240
  4006e4:	f0 00 02 03 
  4006e8:	42 00 00 00 	addu $2,$2,$5
  4006ec:	00 02 05 02 
  4006f0:	4f 00 00 00 	andi $3,$3,15
  4006f4:	0f 00 03 03 
  4006f8:	42 00 00 00 	addu $2,$2,$3
  4006fc:	00 02 03 02 
  400700:	22 00 00 00 	lbu $2,0($2)
  400704:	00 00 02 02 
  400708:	22 00 00 00 	lbu $3,9($4)
  40070c:	09 00 03 04 
  400710:	30 00 00 00 	sb $2,8($4)
  400714:	08 00 02 04 
  400718:	4f 00 00 00 	andi $2,$3,240
  40071c:	f0 00 02 03 
  400720:	42 00 00 00 	addu $2,$2,$5
  400724:	00 02 05 02 
  400728:	4f 00 00 00 	andi $3,$3,15
  40072c:	0f 00 03 03 
  400730:	42 00 00 00 	addu $2,$2,$3
  400734:	00 02 03 02 
  400738:	22 00 00 00 	lbu $2,0($2)
  40073c:	00 00 02 02 
  400740:	22 00 00 00 	lbu $3,10($4)
  400744:	0a 00 03 04 
  400748:	30 00 00 00 	sb $2,9($4)
  40074c:	09 00 02 04 
  400750:	4f 00 00 00 	andi $2,$3,240
  400754:	f0 00 02 03 
  400758:	42 00 00 00 	addu $2,$2,$5
  40075c:	00 02 05 02 
  400760:	4f 00 00 00 	andi $3,$3,15
  400764:	0f 00 03 03 
  400768:	42 00 00 00 	addu $2,$2,$3
  40076c:	00 02 03 02 
  400770:	22 00 00 00 	lbu $2,0($2)
  400774:	00 00 02 02 
  400778:	22 00 00 00 	lbu $3,11($4)
  40077c:	0b 00 03 04 
  400780:	30 00 00 00 	sb $2,10($4)
  400784:	0a 00 02 04 
  400788:	4f 00 00 00 	andi $2,$3,240
  40078c:	f0 00 02 03 
  400790:	42 00 00 00 	addu $2,$2,$5
  400794:	00 02 05 02 
  400798:	4f 00 00 00 	andi $3,$3,15
  40079c:	0f 00 03 03 
  4007a0:	42 00 00 00 	addu $2,$2,$3
  4007a4:	00 02 03 02 
  4007a8:	22 00 00 00 	lbu $2,0($2)
  4007ac:	00 00 02 02 
  4007b0:	30 00 00 00 	sb $2,11($4)
  4007b4:	0b 00 02 04 
  4007b8:	22 00 00 00 	lbu $3,12($4)
  4007bc:	0c 00 03 04 
  4007c0:	4f 00 00 00 	andi $2,$3,240
  4007c4:	f0 00 02 03 
  4007c8:	42 00 00 00 	addu $2,$2,$5
  4007cc:	00 02 05 02 
  4007d0:	4f 00 00 00 	andi $3,$3,15
  4007d4:	0f 00 03 03 
  4007d8:	42 00 00 00 	addu $2,$2,$3
  4007dc:	00 02 03 02 
  4007e0:	22 00 00 00 	lbu $2,0($2)
  4007e4:	00 00 02 02 
  4007e8:	22 00 00 00 	lbu $3,13($4)
  4007ec:	0d 00 03 04 
  4007f0:	30 00 00 00 	sb $2,12($4)
  4007f4:	0c 00 02 04 
  4007f8:	4f 00 00 00 	andi $2,$3,240
  4007fc:	f0 00 02 03 
  400800:	42 00 00 00 	addu $2,$2,$5
  400804:	00 02 05 02 
  400808:	4f 00 00 00 	andi $3,$3,15
  40080c:	0f 00 03 03 
  400810:	42 00 00 00 	addu $2,$2,$3
  400814:	00 02 03 02 
  400818:	22 00 00 00 	lbu $2,0($2)
  40081c:	00 00 02 02 
  400820:	22 00 00 00 	lbu $3,14($4)
  400824:	0e 00 03 04 
  400828:	30 00 00 00 	sb $2,13($4)
  40082c:	0d 00 02 04 
  400830:	4f 00 00 00 	andi $2,$3,240
  400834:	f0 00 02 03 
  400838:	42 00 00 00 	addu $2,$2,$5
  40083c:	00 02 05 02 
  400840:	4f 00 00 00 	andi $3,$3,15
  400844:	0f 00 03 03 
  400848:	42 00 00 00 	addu $2,$2,$3
  40084c:	00 02 03 02 
  400850:	22 00 00 00 	lbu $2,0($2)
  400854:	00 00 02 02 
  400858:	22 00 00 00 	lbu $3,15($4)
  40085c:	0f 00 03 04 
  400860:	30 00 00 00 	sb $2,14($4)
  400864:	0e 00 02 04 
  400868:	4f 00 00 00 	andi $2,$3,240
  40086c:	f0 00 02 03 
  400870:	42 00 00 00 	addu $2,$2,$5
  400874:	00 02 05 02 
  400878:	4f 00 00 00 	andi $3,$3,15
  40087c:	0f 00 03 03 
  400880:	42 00 00 00 	addu $2,$2,$3
  400884:	00 02 03 02 
  400888:	22 00 00 00 	lbu $2,0($2)
  40088c:	00 00 02 02 
  400890:	30 00 00 00 	sb $2,15($4)
  400894:	0f 00 02 04 
  400898:	03 00 00 00 	jr $31
  40089c:	00 00 00 1f 

004008a0 <ShiftRows>:
  4008a0:	22 00 00 00 	lbu $11,4($4)
  4008a4:	04 00 0b 04 
  4008a8:	22 00 00 00 	lbu $9,7($4)
  4008ac:	07 00 09 04 
  4008b0:	22 00 00 00 	lbu $10,10($4)
  4008b4:	0a 00 0a 04 
  4008b8:	22 00 00 00 	lbu $8,11($4)
  4008bc:	0b 00 08 04 
  4008c0:	22 00 00 00 	lbu $2,5($4)
  4008c4:	05 00 02 04 
  4008c8:	22 00 00 00 	lbu $3,6($4)
  4008cc:	06 00 03 04 
  4008d0:	22 00 00 00 	lbu $7,15($4)
  4008d4:	0f 00 07 04 
  4008d8:	22 00 00 00 	lbu $5,14($4)
  4008dc:	0e 00 05 04 
  4008e0:	22 00 00 00 	lbu $6,13($4)
  4008e4:	0d 00 06 04 
  4008e8:	30 00 00 00 	sb $11,7($4)
  4008ec:	07 00 0b 04 
  4008f0:	22 00 00 00 	lbu $11,8($4)
  4008f4:	08 00 0b 04 
  4008f8:	30 00 00 00 	sb $11,10($4)
  4008fc:	0a 00 0b 04 
  400900:	22 00 00 00 	lbu $11,9($4)
  400904:	09 00 0b 04 
  400908:	30 00 00 00 	sb $11,11($4)
  40090c:	0b 00 0b 04 
  400910:	22 00 00 00 	lbu $11,12($4)
  400914:	0c 00 0b 04 
  400918:	30 00 00 00 	sb $2,4($4)
  40091c:	04 00 02 04 
  400920:	30 00 00 00 	sb $3,5($4)
  400924:	05 00 03 04 
  400928:	30 00 00 00 	sb $9,6($4)
  40092c:	06 00 09 04 
  400930:	30 00 00 00 	sb $5,15($4)
  400934:	0f 00 05 04 
  400938:	30 00 00 00 	sb $6,14($4)
  40093c:	0e 00 06 04 
  400940:	30 00 00 00 	sb $10,8($4)
  400944:	08 00 0a 04 
  400948:	30 00 00 00 	sb $8,9($4)
  40094c:	09 00 08 04 
  400950:	30 00 00 00 	sb $7,12($4)
  400954:	0c 00 07 04 
  400958:	30 00 00 00 	sb $11,13($4)
  40095c:	0d 00 0b 04 
  400960:	03 00 00 00 	jr $31
  400964:	00 00 00 1f 

00400968 <MixColumns>:
  400968:	22 00 00 00 	lbu $3,0($4)
  40096c:	00 00 03 04 
  400970:	43 00 00 00 	addiu $29,$29,-8
  400974:	f8 ff 1d 1d 
  400978:	30 00 00 00 	sb $3,0($29)
  40097c:	00 00 03 1d 
  400980:	22 00 00 00 	lbu $2,4($4)
  400984:	04 00 02 04 
  400988:	30 00 00 00 	sb $2,1($29)
  40098c:	01 00 02 1d 
  400990:	22 00 00 00 	lbu $2,8($4)
  400994:	08 00 02 04 
  400998:	30 00 00 00 	sb $2,2($29)
  40099c:	02 00 02 1d 
  4009a0:	22 00 00 00 	lbu $2,12($4)
  4009a4:	0c 00 02 04 
  4009a8:	30 00 00 00 	sb $2,3($29)
  4009ac:	03 00 02 1d 
  4009b0:	55 00 00 00 	sll $2,$3,0x1
  4009b4:	01 02 03 00 
  4009b8:	42 00 00 00 	addu $2,$2,$3
  4009bc:	00 02 03 02 
  4009c0:	55 00 00 00 	sll $2,$2,0x1
  4009c4:	01 02 02 00 
  4009c8:	a2 00 00 00 	lui $3,4096
  4009cc:	00 10 03 00 
  4009d0:	42 00 00 00 	addu $3,$3,$2
  4009d4:	00 03 02 03 
  4009d8:	22 00 00 00 	lbu $3,5376($3)
  4009dc:	00 15 03 03 
  4009e0:	30 00 00 00 	sb $3,0($4)
  4009e4:	00 00 03 04 
  4009e8:	22 00 00 00 	lbu $5,1($29)
  4009ec:	01 00 05 1d 
  4009f0:	55 00 00 00 	sll $2,$5,0x1
  4009f4:	01 02 05 00 
  4009f8:	42 00 00 00 	addu $2,$2,$5
  4009fc:	00 02 05 02 
  400a00:	55 00 00 00 	sll $2,$2,0x1
  400a04:	01 02 02 00 
  400a08:	a2 00 00 00 	lui $1,4096
  400a0c:	00 10 01 00 
  400a10:	42 00 00 00 	addu $1,$1,$2
  400a14:	00 01 02 01 
  400a18:	22 00 00 00 	lbu $2,5377($1)
  400a1c:	01 15 02 01 
  400a20:	52 00 00 00 	xor $3,$3,$2
  400a24:	00 03 02 03 
  400a28:	30 00 00 00 	sb $3,0($4)
  400a2c:	00 00 03 04 
  400a30:	22 00 00 00 	lbu $2,2($29)
  400a34:	02 00 02 1d 
  400a38:	52 00 00 00 	xor $3,$3,$2
  400a3c:	00 03 02 03 
  400a40:	30 00 00 00 	sb $3,0($4)
  400a44:	00 00 03 04 
  400a48:	22 00 00 00 	lbu $2,3($29)
  400a4c:	03 00 02 1d 
  400a50:	52 00 00 00 	xor $3,$3,$2
  400a54:	00 03 02 03 
  400a58:	30 00 00 00 	sb $3,0($4)
  400a5c:	00 00 03 04 
  400a60:	22 00 00 00 	lbu $3,0($29)
  400a64:	00 00 03 1d 
  400a68:	30 00 00 00 	sb $3,4($4)
  400a6c:	04 00 03 04 
  400a70:	22 00 00 00 	lbu $5,1($29)
  400a74:	01 00 05 1d 
  400a78:	55 00 00 00 	sll $2,$5,0x1
  400a7c:	01 02 05 00 
  400a80:	42 00 00 00 	addu $2,$2,$5
  400a84:	00 02 05 02 
  400a88:	55 00 00 00 	sll $2,$2,0x1
  400a8c:	01 02 02 00 
  400a90:	a2 00 00 00 	lui $1,4096
  400a94:	00 10 01 00 
  400a98:	42 00 00 00 	addu $1,$1,$2
  400a9c:	00 01 02 01 
  400aa0:	22 00 00 00 	lbu $2,5376($1)
  400aa4:	00 15 02 01 
  400aa8:	52 00 00 00 	xor $3,$3,$2
  400aac:	00 03 02 03 
  400ab0:	30 00 00 00 	sb $3,4($4)
  400ab4:	04 00 03 04 
  400ab8:	22 00 00 00 	lbu $5,2($29)
  400abc:	02 00 05 1d 
  400ac0:	55 00 00 00 	sll $2,$5,0x1
  400ac4:	01 02 05 00 
  400ac8:	42 00 00 00 	addu $2,$2,$5
  400acc:	00 02 05 02 
  400ad0:	55 00 00 00 	sll $2,$2,0x1
  400ad4:	01 02 02 00 
  400ad8:	a2 00 00 00 	lui $1,4096
  400adc:	00 10 01 00 
  400ae0:	42 00 00 00 	addu $1,$1,$2
  400ae4:	00 01 02 01 
  400ae8:	22 00 00 00 	lbu $2,5377($1)
  400aec:	01 15 02 01 
  400af0:	52 00 00 00 	xor $3,$3,$2
  400af4:	00 03 02 03 
  400af8:	30 00 00 00 	sb $3,4($4)
  400afc:	04 00 03 04 
  400b00:	22 00 00 00 	lbu $2,3($29)
  400b04:	03 00 02 1d 
  400b08:	52 00 00 00 	xor $3,$3,$2
  400b0c:	00 03 02 03 
  400b10:	30 00 00 00 	sb $3,4($4)
  400b14:	04 00 03 04 
  400b18:	22 00 00 00 	lbu $3,0($29)
  400b1c:	00 00 03 1d 
  400b20:	30 00 00 00 	sb $3,8($4)
  400b24:	08 00 03 04 
  400b28:	22 00 00 00 	lbu $2,1($29)
  400b2c:	01 00 02 1d 
  400b30:	52 00 00 00 	xor $3,$3,$2
  400b34:	00 03 02 03 
  400b38:	30 00 00 00 	sb $3,8($4)
  400b3c:	08 00 03 04 
  400b40:	22 00 00 00 	lbu $5,2($29)
  400b44:	02 00 05 1d 
  400b48:	55 00 00 00 	sll $2,$5,0x1
  400b4c:	01 02 05 00 
  400b50:	42 00 00 00 	addu $2,$2,$5
  400b54:	00 02 05 02 
  400b58:	55 00 00 00 	sll $2,$2,0x1
  400b5c:	01 02 02 00 
  400b60:	a2 00 00 00 	lui $1,4096
  400b64:	00 10 01 00 
  400b68:	42 00 00 00 	addu $1,$1,$2
  400b6c:	00 01 02 01 
  400b70:	22 00 00 00 	lbu $2,5376($1)
  400b74:	00 15 02 01 
  400b78:	52 00 00 00 	xor $3,$3,$2
  400b7c:	00 03 02 03 
  400b80:	30 00 00 00 	sb $3,8($4)
  400b84:	08 00 03 04 
  400b88:	22 00 00 00 	lbu $5,3($29)
  400b8c:	03 00 05 1d 
  400b90:	55 00 00 00 	sll $2,$5,0x1
  400b94:	01 02 05 00 
  400b98:	42 00 00 00 	addu $2,$2,$5
  400b9c:	00 02 05 02 
  400ba0:	55 00 00 00 	sll $2,$2,0x1
  400ba4:	01 02 02 00 
  400ba8:	a2 00 00 00 	lui $1,4096
  400bac:	00 10 01 00 
  400bb0:	42 00 00 00 	addu $1,$1,$2
  400bb4:	00 01 02 01 
  400bb8:	22 00 00 00 	lbu $2,5377($1)
  400bbc:	01 15 02 01 
  400bc0:	52 00 00 00 	xor $3,$3,$2
  400bc4:	00 03 02 03 
  400bc8:	30 00 00 00 	sb $3,8($4)
  400bcc:	08 00 03 04 
  400bd0:	22 00 00 00 	lbu $3,0($29)
  400bd4:	00 00 03 1d 
  400bd8:	55 00 00 00 	sll $2,$3,0x1
  400bdc:	01 02 03 00 
  400be0:	42 00 00 00 	addu $2,$2,$3
  400be4:	00 02 03 02 
  400be8:	55 00 00 00 	sll $2,$2,0x1
  400bec:	01 02 02 00 
  400bf0:	a2 00 00 00 	lui $3,4096
  400bf4:	00 10 03 00 
  400bf8:	42 00 00 00 	addu $3,$3,$2
  400bfc:	00 03 02 03 
  400c00:	22 00 00 00 	lbu $3,5377($3)
  400c04:	01 15 03 03 
  400c08:	30 00 00 00 	sb $3,12($4)
  400c0c:	0c 00 03 04 
  400c10:	22 00 00 00 	lbu $2,1($29)
  400c14:	01 00 02 1d 
  400c18:	52 00 00 00 	xor $3,$3,$2
  400c1c:	00 03 02 03 
  400c20:	30 00 00 00 	sb $3,12($4)
  400c24:	0c 00 03 04 
  400c28:	22 00 00 00 	lbu $2,2($29)
  400c2c:	02 00 02 1d 
  400c30:	52 00 00 00 	xor $3,$3,$2
  400c34:	00 03 02 03 
  400c38:	30 00 00 00 	sb $3,12($4)
  400c3c:	0c 00 03 04 
  400c40:	22 00 00 00 	lbu $5,3($29)
  400c44:	03 00 05 1d 
  400c48:	55 00 00 00 	sll $2,$5,0x1
  400c4c:	01 02 05 00 
  400c50:	42 00 00 00 	addu $2,$2,$5
  400c54:	00 02 05 02 
  400c58:	55 00 00 00 	sll $2,$2,0x1
  400c5c:	01 02 02 00 
  400c60:	a2 00 00 00 	lui $1,4096
  400c64:	00 10 01 00 
  400c68:	42 00 00 00 	addu $1,$1,$2
  400c6c:	00 01 02 01 
  400c70:	22 00 00 00 	lbu $2,5376($1)
  400c74:	00 15 02 01 
  400c78:	22 00 00 00 	lbu $5,1($4)
  400c7c:	01 00 05 04 
  400c80:	52 00 00 00 	xor $3,$3,$2
  400c84:	00 03 02 03 
  400c88:	30 00 00 00 	sb $3,12($4)
  400c8c:	0c 00 03 04 
  400c90:	30 00 00 00 	sb $5,0($29)
  400c94:	00 00 05 1d 
  400c98:	22 00 00 00 	lbu $2,5($4)
  400c9c:	05 00 02 04 
  400ca0:	30 00 00 00 	sb $2,1($29)
  400ca4:	01 00 02 1d 
  400ca8:	22 00 00 00 	lbu $2,9($4)
  400cac:	09 00 02 04 
  400cb0:	30 00 00 00 	sb $2,2($29)
  400cb4:	02 00 02 1d 
  400cb8:	22 00 00 00 	lbu $2,13($4)
  400cbc:	0d 00 02 04 
  400cc0:	30 00 00 00 	sb $2,3($29)
  400cc4:	03 00 02 1d 
  400cc8:	55 00 00 00 	sll $2,$5,0x1
  400ccc:	01 02 05 00 
  400cd0:	42 00 00 00 	addu $2,$2,$5
  400cd4:	00 02 05 02 
  400cd8:	55 00 00 00 	sll $2,$2,0x1
  400cdc:	01 02 02 00 
  400ce0:	a2 00 00 00 	lui $3,4096
  400ce4:	00 10 03 00 
  400ce8:	42 00 00 00 	addu $3,$3,$2
  400cec:	00 03 02 03 
  400cf0:	22 00 00 00 	lbu $3,5376($3)
  400cf4:	00 15 03 03 
  400cf8:	30 00 00 00 	sb $3,1($4)
  400cfc:	01 00 03 04 
  400d00:	22 00 00 00 	lbu $5,1($29)
  400d04:	01 00 05 1d 
  400d08:	55 00 00 00 	sll $2,$5,0x1
  400d0c:	01 02 05 00 
  400d10:	42 00 00 00 	addu $2,$2,$5
  400d14:	00 02 05 02 
  400d18:	55 00 00 00 	sll $2,$2,0x1
  400d1c:	01 02 02 00 
  400d20:	a2 00 00 00 	lui $1,4096
  400d24:	00 10 01 00 
  400d28:	42 00 00 00 	addu $1,$1,$2
  400d2c:	00 01 02 01 
  400d30:	22 00 00 00 	lbu $2,5377($1)
  400d34:	01 15 02 01 
  400d38:	52 00 00 00 	xor $3,$3,$2
  400d3c:	00 03 02 03 
  400d40:	30 00 00 00 	sb $3,1($4)
  400d44:	01 00 03 04 
  400d48:	22 00 00 00 	lbu $2,2($29)
  400d4c:	02 00 02 1d 
  400d50:	52 00 00 00 	xor $3,$3,$2
  400d54:	00 03 02 03 
  400d58:	30 00 00 00 	sb $3,1($4)
  400d5c:	01 00 03 04 
  400d60:	22 00 00 00 	lbu $2,3($29)
  400d64:	03 00 02 1d 
  400d68:	52 00 00 00 	xor $3,$3,$2
  400d6c:	00 03 02 03 
  400d70:	30 00 00 00 	sb $3,1($4)
  400d74:	01 00 03 04 
  400d78:	22 00 00 00 	lbu $3,0($29)
  400d7c:	00 00 03 1d 
  400d80:	30 00 00 00 	sb $3,5($4)
  400d84:	05 00 03 04 
  400d88:	22 00 00 00 	lbu $5,1($29)
  400d8c:	01 00 05 1d 
  400d90:	55 00 00 00 	sll $2,$5,0x1
  400d94:	01 02 05 00 
  400d98:	42 00 00 00 	addu $2,$2,$5
  400d9c:	00 02 05 02 
  400da0:	55 00 00 00 	sll $2,$2,0x1
  400da4:	01 02 02 00 
  400da8:	a2 00 00 00 	lui $1,4096
  400dac:	00 10 01 00 
  400db0:	42 00 00 00 	addu $1,$1,$2
  400db4:	00 01 02 01 
  400db8:	22 00 00 00 	lbu $2,5376($1)
  400dbc:	00 15 02 01 
  400dc0:	52 00 00 00 	xor $3,$3,$2
  400dc4:	00 03 02 03 
  400dc8:	30 00 00 00 	sb $3,5($4)
  400dcc:	05 00 03 04 
  400dd0:	22 00 00 00 	lbu $5,2($29)
  400dd4:	02 00 05 1d 
  400dd8:	55 00 00 00 	sll $2,$5,0x1
  400ddc:	01 02 05 00 
  400de0:	42 00 00 00 	addu $2,$2,$5
  400de4:	00 02 05 02 
  400de8:	55 00 00 00 	sll $2,$2,0x1
  400dec:	01 02 02 00 
  400df0:	a2 00 00 00 	lui $1,4096
  400df4:	00 10 01 00 
  400df8:	42 00 00 00 	addu $1,$1,$2
  400dfc:	00 01 02 01 
  400e00:	22 00 00 00 	lbu $2,5377($1)
  400e04:	01 15 02 01 
  400e08:	52 00 00 00 	xor $3,$3,$2
  400e0c:	00 03 02 03 
  400e10:	30 00 00 00 	sb $3,5($4)
  400e14:	05 00 03 04 
  400e18:	22 00 00 00 	lbu $2,3($29)
  400e1c:	03 00 02 1d 
  400e20:	52 00 00 00 	xor $3,$3,$2
  400e24:	00 03 02 03 
  400e28:	30 00 00 00 	sb $3,5($4)
  400e2c:	05 00 03 04 
  400e30:	22 00 00 00 	lbu $3,0($29)
  400e34:	00 00 03 1d 
  400e38:	30 00 00 00 	sb $3,9($4)
  400e3c:	09 00 03 04 
  400e40:	22 00 00 00 	lbu $2,1($29)
  400e44:	01 00 02 1d 
  400e48:	52 00 00 00 	xor $3,$3,$2
  400e4c:	00 03 02 03 
  400e50:	30 00 00 00 	sb $3,9($4)
  400e54:	09 00 03 04 
  400e58:	22 00 00 00 	lbu $5,2($29)
  400e5c:	02 00 05 1d 
  400e60:	55 00 00 00 	sll $2,$5,0x1
  400e64:	01 02 05 00 
  400e68:	42 00 00 00 	addu $2,$2,$5
  400e6c:	00 02 05 02 
  400e70:	55 00 00 00 	sll $2,$2,0x1
  400e74:	01 02 02 00 
  400e78:	a2 00 00 00 	lui $1,4096
  400e7c:	00 10 01 00 
  400e80:	42 00 00 00 	addu $1,$1,$2
  400e84:	00 01 02 01 
  400e88:	22 00 00 00 	lbu $2,5376($1)
  400e8c:	00 15 02 01 
  400e90:	52 00 00 00 	xor $3,$3,$2
  400e94:	00 03 02 03 
  400e98:	30 00 00 00 	sb $3,9($4)
  400e9c:	09 00 03 04 
  400ea0:	22 00 00 00 	lbu $5,3($29)
  400ea4:	03 00 05 1d 
  400ea8:	55 00 00 00 	sll $2,$5,0x1
  400eac:	01 02 05 00 
  400eb0:	42 00 00 00 	addu $2,$2,$5
  400eb4:	00 02 05 02 
  400eb8:	55 00 00 00 	sll $2,$2,0x1
  400ebc:	01 02 02 00 
  400ec0:	a2 00 00 00 	lui $1,4096
  400ec4:	00 10 01 00 
  400ec8:	42 00 00 00 	addu $1,$1,$2
  400ecc:	00 01 02 01 
  400ed0:	22 00 00 00 	lbu $2,5377($1)
  400ed4:	01 15 02 01 
  400ed8:	52 00 00 00 	xor $3,$3,$2
  400edc:	00 03 02 03 
  400ee0:	30 00 00 00 	sb $3,9($4)
  400ee4:	09 00 03 04 
  400ee8:	22 00 00 00 	lbu $3,0($29)
  400eec:	00 00 03 1d 
  400ef0:	55 00 00 00 	sll $2,$3,0x1
  400ef4:	01 02 03 00 
  400ef8:	42 00 00 00 	addu $2,$2,$3
  400efc:	00 02 03 02 
  400f00:	55 00 00 00 	sll $2,$2,0x1
  400f04:	01 02 02 00 
  400f08:	a2 00 00 00 	lui $3,4096
  400f0c:	00 10 03 00 
  400f10:	42 00 00 00 	addu $3,$3,$2
  400f14:	00 03 02 03 
  400f18:	22 00 00 00 	lbu $3,5377($3)
  400f1c:	01 15 03 03 
  400f20:	30 00 00 00 	sb $3,13($4)
  400f24:	0d 00 03 04 
  400f28:	22 00 00 00 	lbu $2,1($29)
  400f2c:	01 00 02 1d 
  400f30:	52 00 00 00 	xor $3,$3,$2
  400f34:	00 03 02 03 
  400f38:	30 00 00 00 	sb $3,13($4)
  400f3c:	0d 00 03 04 
  400f40:	22 00 00 00 	lbu $2,2($29)
  400f44:	02 00 02 1d 
  400f48:	52 00 00 00 	xor $3,$3,$2
  400f4c:	00 03 02 03 
  400f50:	30 00 00 00 	sb $3,13($4)
  400f54:	0d 00 03 04 
  400f58:	22 00 00 00 	lbu $5,3($29)
  400f5c:	03 00 05 1d 
  400f60:	55 00 00 00 	sll $2,$5,0x1
  400f64:	01 02 05 00 
  400f68:	42 00 00 00 	addu $2,$2,$5
  400f6c:	00 02 05 02 
  400f70:	55 00 00 00 	sll $2,$2,0x1
  400f74:	01 02 02 00 
  400f78:	a2 00 00 00 	lui $1,4096
  400f7c:	00 10 01 00 
  400f80:	42 00 00 00 	addu $1,$1,$2
  400f84:	00 01 02 01 
  400f88:	22 00 00 00 	lbu $2,5376($1)
  400f8c:	00 15 02 01 
  400f90:	22 00 00 00 	lbu $5,2($4)
  400f94:	02 00 05 04 
  400f98:	52 00 00 00 	xor $3,$3,$2
  400f9c:	00 03 02 03 
  400fa0:	30 00 00 00 	sb $3,13($4)
  400fa4:	0d 00 03 04 
  400fa8:	30 00 00 00 	sb $5,0($29)
  400fac:	00 00 05 1d 
  400fb0:	22 00 00 00 	lbu $2,6($4)
  400fb4:	06 00 02 04 
  400fb8:	30 00 00 00 	sb $2,1($29)
  400fbc:	01 00 02 1d 
  400fc0:	22 00 00 00 	lbu $2,10($4)
  400fc4:	0a 00 02 04 
  400fc8:	30 00 00 00 	sb $2,2($29)
  400fcc:	02 00 02 1d 
  400fd0:	22 00 00 00 	lbu $2,14($4)
  400fd4:	0e 00 02 04 
  400fd8:	30 00 00 00 	sb $2,3($29)
  400fdc:	03 00 02 1d 
  400fe0:	55 00 00 00 	sll $2,$5,0x1
  400fe4:	01 02 05 00 
  400fe8:	42 00 00 00 	addu $2,$2,$5
  400fec:	00 02 05 02 
  400ff0:	55 00 00 00 	sll $2,$2,0x1
  400ff4:	01 02 02 00 
  400ff8:	a2 00 00 00 	lui $3,4096
  400ffc:	00 10 03 00 
  401000:	42 00 00 00 	addu $3,$3,$2
  401004:	00 03 02 03 
  401008:	22 00 00 00 	lbu $3,5376($3)
  40100c:	00 15 03 03 
  401010:	30 00 00 00 	sb $3,2($4)
  401014:	02 00 03 04 
  401018:	22 00 00 00 	lbu $5,1($29)
  40101c:	01 00 05 1d 
  401020:	55 00 00 00 	sll $2,$5,0x1
  401024:	01 02 05 00 
  401028:	42 00 00 00 	addu $2,$2,$5
  40102c:	00 02 05 02 
  401030:	55 00 00 00 	sll $2,$2,0x1
  401034:	01 02 02 00 
  401038:	a2 00 00 00 	lui $1,4096
  40103c:	00 10 01 00 
  401040:	42 00 00 00 	addu $1,$1,$2
  401044:	00 01 02 01 
  401048:	22 00 00 00 	lbu $2,5377($1)
  40104c:	01 15 02 01 
  401050:	52 00 00 00 	xor $3,$3,$2
  401054:	00 03 02 03 
  401058:	30 00 00 00 	sb $3,2($4)
  40105c:	02 00 03 04 
  401060:	22 00 00 00 	lbu $2,2($29)
  401064:	02 00 02 1d 
  401068:	52 00 00 00 	xor $3,$3,$2
  40106c:	00 03 02 03 
  401070:	30 00 00 00 	sb $3,2($4)
  401074:	02 00 03 04 
  401078:	22 00 00 00 	lbu $2,3($29)
  40107c:	03 00 02 1d 
  401080:	52 00 00 00 	xor $3,$3,$2
  401084:	00 03 02 03 
  401088:	30 00 00 00 	sb $3,2($4)
  40108c:	02 00 03 04 
  401090:	22 00 00 00 	lbu $3,0($29)
  401094:	00 00 03 1d 
  401098:	30 00 00 00 	sb $3,6($4)
  40109c:	06 00 03 04 
  4010a0:	22 00 00 00 	lbu $5,1($29)
  4010a4:	01 00 05 1d 
  4010a8:	55 00 00 00 	sll $2,$5,0x1
  4010ac:	01 02 05 00 
  4010b0:	42 00 00 00 	addu $2,$2,$5
  4010b4:	00 02 05 02 
  4010b8:	55 00 00 00 	sll $2,$2,0x1
  4010bc:	01 02 02 00 
  4010c0:	a2 00 00 00 	lui $1,4096
  4010c4:	00 10 01 00 
  4010c8:	42 00 00 00 	addu $1,$1,$2
  4010cc:	00 01 02 01 
  4010d0:	22 00 00 00 	lbu $2,5376($1)
  4010d4:	00 15 02 01 
  4010d8:	52 00 00 00 	xor $3,$3,$2
  4010dc:	00 03 02 03 
  4010e0:	30 00 00 00 	sb $3,6($4)
  4010e4:	06 00 03 04 
  4010e8:	22 00 00 00 	lbu $5,2($29)
  4010ec:	02 00 05 1d 
  4010f0:	55 00 00 00 	sll $2,$5,0x1
  4010f4:	01 02 05 00 
  4010f8:	42 00 00 00 	addu $2,$2,$5
  4010fc:	00 02 05 02 
  401100:	55 00 00 00 	sll $2,$2,0x1
  401104:	01 02 02 00 
  401108:	a2 00 00 00 	lui $1,4096
  40110c:	00 10 01 00 
  401110:	42 00 00 00 	addu $1,$1,$2
  401114:	00 01 02 01 
  401118:	22 00 00 00 	lbu $2,5377($1)
  40111c:	01 15 02 01 
  401120:	52 00 00 00 	xor $3,$3,$2
  401124:	00 03 02 03 
  401128:	30 00 00 00 	sb $3,6($4)
  40112c:	06 00 03 04 
  401130:	22 00 00 00 	lbu $2,3($29)
  401134:	03 00 02 1d 
  401138:	52 00 00 00 	xor $3,$3,$2
  40113c:	00 03 02 03 
  401140:	30 00 00 00 	sb $3,6($4)
  401144:	06 00 03 04 
  401148:	22 00 00 00 	lbu $3,0($29)
  40114c:	00 00 03 1d 
  401150:	30 00 00 00 	sb $3,10($4)
  401154:	0a 00 03 04 
  401158:	22 00 00 00 	lbu $2,1($29)
  40115c:	01 00 02 1d 
  401160:	52 00 00 00 	xor $3,$3,$2
  401164:	00 03 02 03 
  401168:	30 00 00 00 	sb $3,10($4)
  40116c:	0a 00 03 04 
  401170:	22 00 00 00 	lbu $5,2($29)
  401174:	02 00 05 1d 
  401178:	55 00 00 00 	sll $2,$5,0x1
  40117c:	01 02 05 00 
  401180:	42 00 00 00 	addu $2,$2,$5
  401184:	00 02 05 02 
  401188:	55 00 00 00 	sll $2,$2,0x1
  40118c:	01 02 02 00 
  401190:	a2 00 00 00 	lui $1,4096
  401194:	00 10 01 00 
  401198:	42 00 00 00 	addu $1,$1,$2
  40119c:	00 01 02 01 
  4011a0:	22 00 00 00 	lbu $2,5376($1)
  4011a4:	00 15 02 01 
  4011a8:	52 00 00 00 	xor $3,$3,$2
  4011ac:	00 03 02 03 
  4011b0:	30 00 00 00 	sb $3,10($4)
  4011b4:	0a 00 03 04 
  4011b8:	22 00 00 00 	lbu $5,3($29)
  4011bc:	03 00 05 1d 
  4011c0:	55 00 00 00 	sll $2,$5,0x1
  4011c4:	01 02 05 00 
  4011c8:	42 00 00 00 	addu $2,$2,$5
  4011cc:	00 02 05 02 
  4011d0:	55 00 00 00 	sll $2,$2,0x1
  4011d4:	01 02 02 00 
  4011d8:	a2 00 00 00 	lui $1,4096
  4011dc:	00 10 01 00 
  4011e0:	42 00 00 00 	addu $1,$1,$2
  4011e4:	00 01 02 01 
  4011e8:	22 00 00 00 	lbu $2,5377($1)
  4011ec:	01 15 02 01 
  4011f0:	52 00 00 00 	xor $3,$3,$2
  4011f4:	00 03 02 03 
  4011f8:	30 00 00 00 	sb $3,10($4)
  4011fc:	0a 00 03 04 
  401200:	22 00 00 00 	lbu $3,0($29)
  401204:	00 00 03 1d 
  401208:	55 00 00 00 	sll $2,$3,0x1
  40120c:	01 02 03 00 
  401210:	42 00 00 00 	addu $2,$2,$3
  401214:	00 02 03 02 
  401218:	55 00 00 00 	sll $2,$2,0x1
  40121c:	01 02 02 00 
  401220:	a2 00 00 00 	lui $3,4096
  401224:	00 10 03 00 
  401228:	42 00 00 00 	addu $3,$3,$2
  40122c:	00 03 02 03 
  401230:	22 00 00 00 	lbu $3,5377($3)
  401234:	01 15 03 03 
  401238:	30 00 00 00 	sb $3,14($4)
  40123c:	0e 00 03 04 
  401240:	22 00 00 00 	lbu $2,1($29)
  401244:	01 00 02 1d 
  401248:	52 00 00 00 	xor $3,$3,$2
  40124c:	00 03 02 03 
  401250:	30 00 00 00 	sb $3,14($4)
  401254:	0e 00 03 04 
  401258:	22 00 00 00 	lbu $2,2($29)
  40125c:	02 00 02 1d 
  401260:	52 00 00 00 	xor $3,$3,$2
  401264:	00 03 02 03 
  401268:	30 00 00 00 	sb $3,14($4)
  40126c:	0e 00 03 04 
  401270:	22 00 00 00 	lbu $5,3($29)
  401274:	03 00 05 1d 
  401278:	55 00 00 00 	sll $2,$5,0x1
  40127c:	01 02 05 00 
  401280:	42 00 00 00 	addu $2,$2,$5
  401284:	00 02 05 02 
  401288:	55 00 00 00 	sll $2,$2,0x1
  40128c:	01 02 02 00 
  401290:	a2 00 00 00 	lui $1,4096
  401294:	00 10 01 00 
  401298:	42 00 00 00 	addu $1,$1,$2
  40129c:	00 01 02 01 
  4012a0:	22 00 00 00 	lbu $2,5376($1)
  4012a4:	00 15 02 01 
  4012a8:	22 00 00 00 	lbu $5,3($4)
  4012ac:	03 00 05 04 
  4012b0:	52 00 00 00 	xor $3,$3,$2
  4012b4:	00 03 02 03 
  4012b8:	30 00 00 00 	sb $3,14($4)
  4012bc:	0e 00 03 04 
  4012c0:	30 00 00 00 	sb $5,0($29)
  4012c4:	00 00 05 1d 
  4012c8:	22 00 00 00 	lbu $2,7($4)
  4012cc:	07 00 02 04 
  4012d0:	30 00 00 00 	sb $2,1($29)
  4012d4:	01 00 02 1d 
  4012d8:	22 00 00 00 	lbu $2,11($4)
  4012dc:	0b 00 02 04 
  4012e0:	30 00 00 00 	sb $2,2($29)
  4012e4:	02 00 02 1d 
  4012e8:	22 00 00 00 	lbu $2,15($4)
  4012ec:	0f 00 02 04 
  4012f0:	30 00 00 00 	sb $2,3($29)
  4012f4:	03 00 02 1d 
  4012f8:	55 00 00 00 	sll $2,$5,0x1
  4012fc:	01 02 05 00 
  401300:	42 00 00 00 	addu $2,$2,$5
  401304:	00 02 05 02 
  401308:	55 00 00 00 	sll $2,$2,0x1
  40130c:	01 02 02 00 
  401310:	a2 00 00 00 	lui $3,4096
  401314:	00 10 03 00 
  401318:	42 00 00 00 	addu $3,$3,$2
  40131c:	00 03 02 03 
  401320:	22 00 00 00 	lbu $3,5376($3)
  401324:	00 15 03 03 
  401328:	30 00 00 00 	sb $3,3($4)
  40132c:	03 00 03 04 
  401330:	22 00 00 00 	lbu $5,1($29)
  401334:	01 00 05 1d 
  401338:	55 00 00 00 	sll $2,$5,0x1
  40133c:	01 02 05 00 
  401340:	42 00 00 00 	addu $2,$2,$5
  401344:	00 02 05 02 
  401348:	55 00 00 00 	sll $2,$2,0x1
  40134c:	01 02 02 00 
  401350:	a2 00 00 00 	lui $1,4096
  401354:	00 10 01 00 
  401358:	42 00 00 00 	addu $1,$1,$2
  40135c:	00 01 02 01 
  401360:	22 00 00 00 	lbu $2,5377($1)
  401364:	01 15 02 01 
  401368:	52 00 00 00 	xor $3,$3,$2
  40136c:	00 03 02 03 
  401370:	30 00 00 00 	sb $3,3($4)
  401374:	03 00 03 04 
  401378:	22 00 00 00 	lbu $2,2($29)
  40137c:	02 00 02 1d 
  401380:	52 00 00 00 	xor $3,$3,$2
  401384:	00 03 02 03 
  401388:	30 00 00 00 	sb $3,3($4)
  40138c:	03 00 03 04 
  401390:	22 00 00 00 	lbu $2,3($29)
  401394:	03 00 02 1d 
  401398:	52 00 00 00 	xor $3,$3,$2
  40139c:	00 03 02 03 
  4013a0:	30 00 00 00 	sb $3,3($4)
  4013a4:	03 00 03 04 
  4013a8:	22 00 00 00 	lbu $3,0($29)
  4013ac:	00 00 03 1d 
  4013b0:	30 00 00 00 	sb $3,7($4)
  4013b4:	07 00 03 04 
  4013b8:	22 00 00 00 	lbu $5,1($29)
  4013bc:	01 00 05 1d 
  4013c0:	55 00 00 00 	sll $2,$5,0x1
  4013c4:	01 02 05 00 
  4013c8:	42 00 00 00 	addu $2,$2,$5
  4013cc:	00 02 05 02 
  4013d0:	55 00 00 00 	sll $2,$2,0x1
  4013d4:	01 02 02 00 
  4013d8:	a2 00 00 00 	lui $1,4096
  4013dc:	00 10 01 00 
  4013e0:	42 00 00 00 	addu $1,$1,$2
  4013e4:	00 01 02 01 
  4013e8:	22 00 00 00 	lbu $2,5376($1)
  4013ec:	00 15 02 01 
  4013f0:	52 00 00 00 	xor $3,$3,$2
  4013f4:	00 03 02 03 
  4013f8:	30 00 00 00 	sb $3,7($4)
  4013fc:	07 00 03 04 
  401400:	22 00 00 00 	lbu $5,2($29)
  401404:	02 00 05 1d 
  401408:	55 00 00 00 	sll $2,$5,0x1
  40140c:	01 02 05 00 
  401410:	42 00 00 00 	addu $2,$2,$5
  401414:	00 02 05 02 
  401418:	55 00 00 00 	sll $2,$2,0x1
  40141c:	01 02 02 00 
  401420:	a2 00 00 00 	lui $1,4096
  401424:	00 10 01 00 
  401428:	42 00 00 00 	addu $1,$1,$2
  40142c:	00 01 02 01 
  401430:	22 00 00 00 	lbu $2,5377($1)
  401434:	01 15 02 01 
  401438:	52 00 00 00 	xor $3,$3,$2
  40143c:	00 03 02 03 
  401440:	30 00 00 00 	sb $3,7($4)
  401444:	07 00 03 04 
  401448:	22 00 00 00 	lbu $2,3($29)
  40144c:	03 00 02 1d 
  401450:	52 00 00 00 	xor $3,$3,$2
  401454:	00 03 02 03 
  401458:	30 00 00 00 	sb $3,7($4)
  40145c:	07 00 03 04 
  401460:	22 00 00 00 	lbu $3,0($29)
  401464:	00 00 03 1d 
  401468:	30 00 00 00 	sb $3,11($4)
  40146c:	0b 00 03 04 
  401470:	22 00 00 00 	lbu $2,1($29)
  401474:	01 00 02 1d 
  401478:	52 00 00 00 	xor $3,$3,$2
  40147c:	00 03 02 03 
  401480:	30 00 00 00 	sb $3,11($4)
  401484:	0b 00 03 04 
  401488:	22 00 00 00 	lbu $5,2($29)
  40148c:	02 00 05 1d 
  401490:	55 00 00 00 	sll $2,$5,0x1
  401494:	01 02 05 00 
  401498:	42 00 00 00 	addu $2,$2,$5
  40149c:	00 02 05 02 
  4014a0:	55 00 00 00 	sll $2,$2,0x1
  4014a4:	01 02 02 00 
  4014a8:	a2 00 00 00 	lui $1,4096
  4014ac:	00 10 01 00 
  4014b0:	42 00 00 00 	addu $1,$1,$2
  4014b4:	00 01 02 01 
  4014b8:	22 00 00 00 	lbu $2,5376($1)
  4014bc:	00 15 02 01 
  4014c0:	52 00 00 00 	xor $3,$3,$2
  4014c4:	00 03 02 03 
  4014c8:	30 00 00 00 	sb $3,11($4)
  4014cc:	0b 00 03 04 
  4014d0:	22 00 00 00 	lbu $5,3($29)
  4014d4:	03 00 05 1d 
  4014d8:	55 00 00 00 	sll $2,$5,0x1
  4014dc:	01 02 05 00 
  4014e0:	42 00 00 00 	addu $2,$2,$5
  4014e4:	00 02 05 02 
  4014e8:	55 00 00 00 	sll $2,$2,0x1
  4014ec:	01 02 02 00 
  4014f0:	a2 00 00 00 	lui $1,4096
  4014f4:	00 10 01 00 
  4014f8:	42 00 00 00 	addu $1,$1,$2
  4014fc:	00 01 02 01 
  401500:	22 00 00 00 	lbu $2,5377($1)
  401504:	01 15 02 01 
  401508:	52 00 00 00 	xor $3,$3,$2
  40150c:	00 03 02 03 
  401510:	30 00 00 00 	sb $3,11($4)
  401514:	0b 00 03 04 
  401518:	22 00 00 00 	lbu $3,0($29)
  40151c:	00 00 03 1d 
  401520:	55 00 00 00 	sll $2,$3,0x1
  401524:	01 02 03 00 
  401528:	42 00 00 00 	addu $2,$2,$3
  40152c:	00 02 03 02 
  401530:	55 00 00 00 	sll $2,$2,0x1
  401534:	01 02 02 00 
  401538:	a2 00 00 00 	lui $3,4096
  40153c:	00 10 03 00 
  401540:	42 00 00 00 	addu $3,$3,$2
  401544:	00 03 02 03 
  401548:	22 00 00 00 	lbu $3,5377($3)
  40154c:	01 15 03 03 
  401550:	30 00 00 00 	sb $3,15($4)
  401554:	0f 00 03 04 
  401558:	22 00 00 00 	lbu $2,1($29)
  40155c:	01 00 02 1d 
  401560:	52 00 00 00 	xor $3,$3,$2
  401564:	00 03 02 03 
  401568:	30 00 00 00 	sb $3,15($4)
  40156c:	0f 00 03 04 
  401570:	22 00 00 00 	lbu $2,2($29)
  401574:	02 00 02 1d 
  401578:	52 00 00 00 	xor $3,$3,$2
  40157c:	00 03 02 03 
  401580:	30 00 00 00 	sb $3,15($4)
  401584:	0f 00 03 04 
  401588:	22 00 00 00 	lbu $5,3($29)
  40158c:	03 00 05 1d 
  401590:	55 00 00 00 	sll $2,$5,0x1
  401594:	01 02 05 00 
  401598:	42 00 00 00 	addu $2,$2,$5
  40159c:	00 02 05 02 
  4015a0:	55 00 00 00 	sll $2,$2,0x1
  4015a4:	01 02 02 00 
  4015a8:	a2 00 00 00 	lui $1,4096
  4015ac:	00 10 01 00 
  4015b0:	42 00 00 00 	addu $1,$1,$2
  4015b4:	00 01 02 01 
  4015b8:	22 00 00 00 	lbu $2,5376($1)
  4015bc:	00 15 02 01 
  4015c0:	52 00 00 00 	xor $3,$3,$2
  4015c4:	00 03 02 03 
  4015c8:	30 00 00 00 	sb $3,15($4)
  4015cc:	0f 00 03 04 
  4015d0:	43 00 00 00 	addiu $29,$29,8
  4015d4:	08 00 1d 1d 
  4015d8:	03 00 00 00 	jr $31
  4015dc:	00 00 00 1f 

004015e0 <SubWord>:
  4015e0:	a2 00 00 00 	lui $6,4096
  4015e4:	00 10 06 00 
  4015e8:	43 00 00 00 	addiu $6,$6,0
  4015ec:	00 00 06 06 
  4015f0:	4f 00 00 00 	andi $5,$4,240
  4015f4:	f0 00 05 04 
  4015f8:	42 00 00 00 	addu $5,$5,$6
  4015fc:	00 05 06 05 
  401600:	4f 00 00 00 	andi $2,$4,15
  401604:	0f 00 02 04 
  401608:	42 00 00 00 	addu $5,$5,$2
  40160c:	00 05 02 05 
  401610:	57 00 00 00 	srl $2,$4,0x8
  401614:	08 02 04 00 
  401618:	4f 00 00 00 	andi $2,$2,240
  40161c:	f0 00 02 02 
  401620:	42 00 00 00 	addu $2,$2,$6
  401624:	00 02 06 02 
  401628:	57 00 00 00 	srl $3,$4,0x8
  40162c:	08 03 04 00 
  401630:	4f 00 00 00 	andi $3,$3,15
  401634:	0f 00 03 03 
  401638:	42 00 00 00 	addu $2,$2,$3
  40163c:	00 02 03 02 
  401640:	22 00 00 00 	lbu $2,0($2)
  401644:	00 00 02 02 
  401648:	22 00 00 00 	lbu $5,0($5)
  40164c:	00 00 05 05 
  401650:	57 00 00 00 	srl $3,$4,0x10
  401654:	10 03 04 00 
  401658:	4f 00 00 00 	andi $3,$3,15
  40165c:	0f 00 03 03 
  401660:	55 00 00 00 	sll $2,$2,0x8
  401664:	08 02 02 00 
  401668:	42 00 00 00 	addu $5,$5,$2
  40166c:	00 05 02 05 
  401670:	57 00 00 00 	srl $2,$4,0x10
  401674:	10 02 04 00 
  401678:	4f 00 00 00 	andi $2,$2,240
  40167c:	f0 00 02 02 
  401680:	42 00 00 00 	addu $2,$2,$6
  401684:	00 02 06 02 
  401688:	42 00 00 00 	addu $2,$2,$3
  40168c:	00 02 03 02 
  401690:	22 00 00 00 	lbu $3,0($2)
  401694:	00 00 03 02 
  401698:	57 00 00 00 	srl $2,$4,0x1c
  40169c:	1c 02 04 00 
  4016a0:	55 00 00 00 	sll $2,$2,0x4
  4016a4:	04 02 02 00 
  4016a8:	42 00 00 00 	addu $2,$2,$6
  4016ac:	00 02 06 02 
  4016b0:	57 00 00 00 	srl $4,$4,0x18
  4016b4:	18 04 04 00 
  4016b8:	4f 00 00 00 	andi $4,$4,15
  4016bc:	0f 00 04 04 
  4016c0:	42 00 00 00 	addu $2,$2,$4
  4016c4:	00 02 04 02 
  4016c8:	22 00 00 00 	lbu $2,0($2)
  4016cc:	00 00 02 02 
  4016d0:	55 00 00 00 	sll $3,$3,0x10
  4016d4:	10 03 03 00 
  4016d8:	42 00 00 00 	addu $5,$5,$3
  4016dc:	00 05 03 05 
  4016e0:	55 00 00 00 	sll $2,$2,0x18
  4016e4:	18 02 02 00 
  4016e8:	42 00 00 00 	addu $2,$5,$2
  4016ec:	00 02 02 05 
  4016f0:	03 00 00 00 	jr $31
  4016f4:	00 00 00 1f 

004016f8 <KeyExpansion>:
  4016f8:	43 00 00 00 	addiu $29,$29,-80
  4016fc:	b0 ff 1d 1d 
  401700:	42 00 00 00 	addu $10,$0,$4
  401704:	00 0a 04 00 
  401708:	42 00 00 00 	addu $12,$0,$5
  40170c:	00 0c 05 00 
  401710:	43 00 00 00 	addiu $11,$0,4
  401714:	04 00 0b 00 
  401718:	42 00 00 00 	addu $8,$0,$29
  40171c:	00 08 1d 00 
  401720:	a2 00 00 00 	lui $7,4096
  401724:	00 10 07 00 
  401728:	43 00 00 00 	addiu $7,$7,512
  40172c:	00 02 07 07 
  401730:	43 00 00 00 	addiu $9,$7,48
  401734:	30 00 09 07 
  401738:	28 00 00 00 	lw $2,0($7)
  40173c:	00 00 02 07 
  401740:	28 00 00 00 	lw $3,4($7)
  401744:	04 00 03 07 
  401748:	28 00 00 00 	lw $4,8($7)
  40174c:	08 00 04 07 
  401750:	28 00 00 00 	lw $5,12($7)
  401754:	0c 00 05 07 
  401758:	34 00 00 00 	sw $2,0($8)
  40175c:	00 00 02 08 
  401760:	34 00 00 00 	sw $3,4($8)
  401764:	04 00 03 08 
  401768:	34 00 00 00 	sw $4,8($8)
  40176c:	08 00 04 08 
  401770:	34 00 00 00 	sw $5,12($8)
  401774:	0c 00 05 08 
  401778:	43 00 00 00 	addiu $7,$7,16
  40177c:	10 00 07 07 
  401780:	43 00 00 00 	addiu $8,$8,16
  401784:	10 00 08 08 
  401788:	06 00 00 00 	bne $7,$9,401738 <KeyExpansion+0x40>
  40178c:	ea ff 09 07 
  401790:	28 00 00 00 	lw $2,0($7)
  401794:	00 00 02 07 
  401798:	28 00 00 00 	lw $3,4($7)
  40179c:	04 00 03 07 
  4017a0:	28 00 00 00 	lw $4,8($7)
  4017a4:	08 00 04 07 
  4017a8:	34 00 00 00 	sw $2,0($8)
  4017ac:	00 00 02 08 
  4017b0:	34 00 00 00 	sw $3,4($8)
  4017b4:	04 00 03 08 
  4017b8:	34 00 00 00 	sw $4,8($8)
  4017bc:	08 00 04 08 
  4017c0:	43 00 00 00 	addiu $2,$0,192
  4017c4:	c0 00 02 00 
  4017c8:	05 00 00 00 	beq $6,$2,401828 <KeyExpansion+0x130>
  4017cc:	16 00 02 06 
  4017d0:	5c 00 00 00 	slti $2,$6,193
  4017d4:	c1 00 02 06 
  4017d8:	05 00 00 00 	beq $2,$0,4017f8 <KeyExpansion+0x100>
  4017dc:	06 00 00 02 
  4017e0:	43 00 00 00 	addiu $2,$0,128
  4017e4:	80 00 02 00 
  4017e8:	05 00 00 00 	beq $6,$2,401810 <KeyExpansion+0x118>
  4017ec:	08 00 02 06 
  4017f0:	01 00 00 00 	j 401ca0 <KeyExpansion+0x5a8>
  4017f4:	28 07 10 00 
  4017f8:	43 00 00 00 	addiu $2,$0,256
  4017fc:	00 01 02 00 
  401800:	05 00 00 00 	beq $6,$2,401840 <KeyExpansion+0x148>
  401804:	0e 00 02 06 
  401808:	01 00 00 00 	j 401ca0 <KeyExpansion+0x5a8>
  40180c:	28 07 10 00 
  401810:	43 00 00 00 	addiu $7,$0,10
  401814:	0a 00 07 00 
  401818:	43 00 00 00 	addiu $9,$0,4
  40181c:	04 00 09 00 
  401820:	01 00 00 00 	j 401850 <KeyExpansion+0x158>
  401824:	14 06 10 00 
  401828:	43 00 00 00 	addiu $7,$0,12
  40182c:	0c 00 07 00 
  401830:	43 00 00 00 	addiu $9,$0,6
  401834:	06 00 09 00 
  401838:	01 00 00 00 	j 401850 <KeyExpansion+0x158>
  40183c:	14 06 10 00 
  401840:	43 00 00 00 	addiu $7,$0,14
  401844:	0e 00 07 00 
  401848:	43 00 00 00 	addiu $9,$0,8
  40184c:	08 00 09 00 
  401850:	42 00 00 00 	addu $8,$0,$0
  401854:	00 08 00 00 
  401858:	05 00 00 00 	beq $9,$0,4018f0 <KeyExpansion+0x1f8>
  40185c:	24 00 00 09 
  401860:	42 00 00 00 	addu $6,$0,$12
  401864:	00 06 0c 00 
  401868:	42 00 00 00 	addu $5,$0,$10
  40186c:	00 05 0a 00 
  401870:	22 00 00 00 	lbu $2,0($5)
  401874:	00 00 02 05 
  401878:	22 00 00 00 	lbu $4,1($5)
  40187c:	01 00 04 05 
  401880:	43 00 00 00 	addiu $8,$8,1
  401884:	01 00 08 08 
  401888:	22 00 00 00 	lbu $3,2($5)
  40188c:	02 00 03 05 
  401890:	55 00 00 00 	sll $2,$2,0x18
  401894:	18 02 02 00 
  401898:	55 00 00 00 	sll $4,$4,0x10
  40189c:	10 04 04 00 
  4018a0:	50 00 00 00 	or $2,$2,$4
  4018a4:	00 02 04 02 
  4018a8:	22 00 00 00 	lbu $4,3($5)
  4018ac:	03 00 04 05 
  4018b0:	55 00 00 00 	sll $3,$3,0x8
  4018b4:	08 03 03 00 
  4018b8:	50 00 00 00 	or $2,$2,$3
  4018bc:	00 02 03 02 
  4018c0:	50 00 00 00 	or $2,$2,$4
  4018c4:	00 02 04 02 
  4018c8:	34 00 00 00 	sw $2,0($6)
  4018cc:	00 00 02 06 
  4018d0:	43 00 00 00 	addiu $6,$6,4
  4018d4:	04 00 06 06 
  4018d8:	43 00 00 00 	addiu $5,$5,4
  4018dc:	04 00 05 05 
  4018e0:	5b 00 00 00 	slt $2,$8,$9
  4018e4:	00 02 09 08 
  4018e8:	06 00 00 00 	bne $2,$0,401870 <KeyExpansion+0x178>
  4018ec:	e0 ff 00 02 
  4018f0:	43 00 00 00 	addiu $2,$7,1
  4018f4:	01 00 02 07 
  4018f8:	46 00 00 00 	mult $11,$2
  4018fc:	00 00 02 0b 
  401900:	4c 00 00 00 	mflo $3
  401904:	00 03 00 00 
  401908:	42 00 00 00 	addu $8,$0,$9
  40190c:	00 08 09 00 
  401910:	5b 00 00 00 	slt $2,$8,$3
  401914:	00 02 03 08 
  401918:	05 00 00 00 	beq $2,$0,401ca0 <KeyExpansion+0x5a8>
  40191c:	e0 00 00 02 
  401920:	a2 00 00 00 	lui $10,4096
  401924:	00 10 0a 00 
  401928:	43 00 00 00 	addiu $10,$10,0
  40192c:	00 00 0a 0a 
  401930:	42 00 00 00 	addu $13,$0,$3
  401934:	00 0d 03 00 
  401938:	55 00 00 00 	sll $2,$8,0x2
  40193c:	02 02 08 00 
  401940:	42 00 00 00 	addu $11,$2,$12
  401944:	00 0b 0c 02 
  401948:	48 00 00 00 	div $0,$8,$9
  40194c:	00 00 09 08 
  401950:	06 00 00 00 	bne $9,$0,401960 <KeyExpansion+0x268>
  401954:	02 00 00 09 
  401958:	a1 00 00 00 	break 
  40195c:	07 00 00 00 
  401960:	43 00 00 00 	addiu $1,$0,-1
  401964:	ff ff 01 00 
  401968:	06 00 00 00 	bne $9,$1,401988 <KeyExpansion+0x290>
  40196c:	06 00 01 09 
  401970:	a2 00 00 00 	lui $1,32768
  401974:	00 80 01 00 
  401978:	06 00 00 00 	bne $8,$1,401988 <KeyExpansion+0x290>
  40197c:	02 00 01 08 
  401980:	a1 00 00 00 	break 
  401984:	06 00 00 00 
  401988:	4a 00 00 00 	mfhi $3
  40198c:	00 03 00 00 
  401990:	28 00 00 00 	lw $6,-4($11)
  401994:	fc ff 06 0b 
  401998:	06 00 00 00 	bne $3,$0,401b30 <KeyExpansion+0x438>
  40199c:	64 00 00 03 
  4019a0:	43 00 00 00 	addiu $7,$8,-1
  4019a4:	ff ff 07 08 
  4019a8:	48 00 00 00 	div $0,$7,$9
  4019ac:	00 00 09 07 
  4019b0:	06 00 00 00 	bne $9,$0,4019c0 <KeyExpansion+0x2c8>
  4019b4:	02 00 00 09 
  4019b8:	a1 00 00 00 	break 
  4019bc:	07 00 00 00 
  4019c0:	43 00 00 00 	addiu $1,$0,-1
  4019c4:	ff ff 01 00 
  4019c8:	06 00 00 00 	bne $9,$1,4019e8 <KeyExpansion+0x2f0>
  4019cc:	06 00 01 09 
  4019d0:	a2 00 00 00 	lui $1,32768
  4019d4:	00 80 01 00 
  4019d8:	06 00 00 00 	bne $7,$1,4019e8 <KeyExpansion+0x2f0>
  4019dc:	02 00 01 07 
  4019e0:	a1 00 00 00 	break 
  4019e4:	06 00 00 00 
  4019e8:	4c 00 00 00 	mflo $7
  4019ec:	00 07 00 00 
  4019f0:	55 00 00 00 	sll $4,$6,0x8
  4019f4:	08 04 06 00 
  4019f8:	57 00 00 00 	srl $2,$6,0x18
  4019fc:	18 02 06 00 
  401a00:	50 00 00 00 	or $4,$4,$2
  401a04:	00 04 02 04 
  401a08:	4f 00 00 00 	andi $2,$2,240
  401a0c:	f0 00 02 02 
  401a10:	42 00 00 00 	addu $2,$2,$10
  401a14:	00 02 0a 02 
  401a18:	4f 00 00 00 	andi $3,$4,15
  401a1c:	0f 00 03 04 
  401a20:	42 00 00 00 	addu $2,$2,$3
  401a24:	00 02 03 02 
  401a28:	22 00 00 00 	lbu $6,0($2)
  401a2c:	00 00 06 02 
  401a30:	57 00 00 00 	srl $3,$4,0x8
  401a34:	08 03 04 00 
  401a38:	4f 00 00 00 	andi $3,$3,240
  401a3c:	f0 00 03 03 
  401a40:	42 00 00 00 	addu $3,$3,$10
  401a44:	00 03 0a 03 
  401a48:	55 00 00 00 	sll $7,$7,0x2
  401a4c:	02 07 07 00 
  401a50:	57 00 00 00 	srl $2,$4,0x8
  401a54:	08 02 04 00 
  401a58:	4f 00 00 00 	andi $2,$2,15
  401a5c:	0f 00 02 02 
  401a60:	42 00 00 00 	addu $3,$3,$2
  401a64:	00 03 02 03 
  401a68:	22 00 00 00 	lbu $5,0($3)
  401a6c:	00 00 05 03 
  401a70:	57 00 00 00 	srl $2,$4,0x10
  401a74:	10 02 04 00 
  401a78:	4f 00 00 00 	andi $2,$2,15
  401a7c:	0f 00 02 02 
  401a80:	57 00 00 00 	srl $3,$4,0x10
  401a84:	10 03 04 00 
  401a88:	4f 00 00 00 	andi $3,$3,240
  401a8c:	f0 00 03 03 
  401a90:	42 00 00 00 	addu $3,$3,$10
  401a94:	00 03 0a 03 
  401a98:	42 00 00 00 	addu $3,$3,$2
  401a9c:	00 03 02 03 
  401aa0:	22 00 00 00 	lbu $2,0($3)
  401aa4:	00 00 02 03 
  401aa8:	55 00 00 00 	sll $5,$5,0x8
  401aac:	08 05 05 00 
  401ab0:	42 00 00 00 	addu $6,$6,$5
  401ab4:	00 06 05 06 
  401ab8:	55 00 00 00 	sll $2,$2,0x10
  401abc:	10 02 02 00 
  401ac0:	42 00 00 00 	addu $6,$6,$2
  401ac4:	00 06 02 06 
  401ac8:	57 00 00 00 	srl $2,$4,0x1c
  401acc:	1c 02 04 00 
  401ad0:	55 00 00 00 	sll $2,$2,0x4
  401ad4:	04 02 02 00 
  401ad8:	42 00 00 00 	addu $2,$2,$10
  401adc:	00 02 0a 02 
  401ae0:	57 00 00 00 	srl $4,$4,0x18
  401ae4:	18 04 04 00 
  401ae8:	4f 00 00 00 	andi $4,$4,15
  401aec:	0f 00 04 04 
  401af0:	42 00 00 00 	addu $2,$2,$4
  401af4:	00 02 04 02 
  401af8:	22 00 00 00 	lbu $2,0($2)
  401afc:	00 00 02 02 
  401b00:	42 00 00 00 	addu $7,$7,$29
  401b04:	00 07 1d 07 
  401b08:	28 00 00 00 	lw $3,0($7)
  401b0c:	00 00 03 07 
  401b10:	55 00 00 00 	sll $2,$2,0x18
  401b14:	18 02 02 00 
  401b18:	42 00 00 00 	addu $6,$6,$2
  401b1c:	00 06 02 06 
  401b20:	52 00 00 00 	xor $6,$6,$3
  401b24:	00 06 03 06 
  401b28:	01 00 00 00 	j 401c50 <KeyExpansion+0x558>
  401b2c:	14 07 10 00 
  401b30:	5c 00 00 00 	slti $2,$9,7
  401b34:	07 00 02 09 
  401b38:	06 00 00 00 	bne $2,$0,401c50 <KeyExpansion+0x558>
  401b3c:	44 00 00 02 
  401b40:	43 00 00 00 	addiu $2,$0,4
  401b44:	04 00 02 00 
  401b48:	06 00 00 00 	bne $3,$2,401c50 <KeyExpansion+0x558>
  401b4c:	40 00 02 03 
  401b50:	4f 00 00 00 	andi $4,$6,240
  401b54:	f0 00 04 06 
  401b58:	42 00 00 00 	addu $4,$4,$10
  401b5c:	00 04 0a 04 
  401b60:	4f 00 00 00 	andi $2,$6,15
  401b64:	0f 00 02 06 
  401b68:	42 00 00 00 	addu $4,$4,$2
  401b6c:	00 04 02 04 
  401b70:	57 00 00 00 	srl $3,$6,0x8
  401b74:	08 03 06 00 
  401b78:	4f 00 00 00 	andi $3,$3,240
  401b7c:	f0 00 03 03 
  401b80:	42 00 00 00 	addu $3,$3,$10
  401b84:	00 03 0a 03 
  401b88:	57 00 00 00 	srl $2,$6,0x8
  401b8c:	08 02 06 00 
  401b90:	4f 00 00 00 	andi $2,$2,15
  401b94:	0f 00 02 02 
  401b98:	42 00 00 00 	addu $3,$3,$2
  401b9c:	00 03 02 03 
  401ba0:	22 00 00 00 	lbu $2,0($3)
  401ba4:	00 00 02 03 
  401ba8:	22 00 00 00 	lbu $5,0($4)
  401bac:	00 00 05 04 
  401bb0:	55 00 00 00 	sll $2,$2,0x8
  401bb4:	08 02 02 00 
  401bb8:	42 00 00 00 	addu $5,$5,$2
  401bbc:	00 05 02 05 
  401bc0:	57 00 00 00 	srl $3,$6,0x10
  401bc4:	10 03 06 00 
  401bc8:	4f 00 00 00 	andi $3,$3,240
  401bcc:	f0 00 03 03 
  401bd0:	42 00 00 00 	addu $3,$3,$10
  401bd4:	00 03 0a 03 
  401bd8:	57 00 00 00 	srl $2,$6,0x10
  401bdc:	10 02 06 00 
  401be0:	4f 00 00 00 	andi $2,$2,15
  401be4:	0f 00 02 02 
  401be8:	42 00 00 00 	addu $3,$3,$2
  401bec:	00 03 02 03 
  401bf0:	22 00 00 00 	lbu $4,0($3)
  401bf4:	00 00 04 03 
  401bf8:	57 00 00 00 	srl $2,$6,0x18
  401bfc:	18 02 06 00 
  401c00:	4f 00 00 00 	andi $2,$2,15
  401c04:	0f 00 02 02 
  401c08:	57 00 00 00 	srl $3,$6,0x1c
  401c0c:	1c 03 06 00 
  401c10:	55 00 00 00 	sll $3,$3,0x4
  401c14:	04 03 03 00 
  401c18:	42 00 00 00 	addu $3,$3,$10
  401c1c:	00 03 0a 03 
  401c20:	42 00 00 00 	addu $3,$3,$2
  401c24:	00 03 02 03 
  401c28:	22 00 00 00 	lbu $2,0($3)
  401c2c:	00 00 02 03 
  401c30:	55 00 00 00 	sll $4,$4,0x10
  401c34:	10 04 04 00 
  401c38:	42 00 00 00 	addu $5,$5,$4
  401c3c:	00 05 04 05 
  401c40:	55 00 00 00 	sll $2,$2,0x18
  401c44:	18 02 02 00 
  401c48:	42 00 00 00 	addu $6,$5,$2
  401c4c:	00 06 02 05 
  401c50:	45 00 00 00 	subu $2,$8,$9
  401c54:	00 02 09 08 
  401c58:	55 00 00 00 	sll $2,$2,0x2
  401c5c:	02 02 02 00 
  401c60:	42 00 00 00 	addu $2,$2,$12
  401c64:	00 02 0c 02 
  401c68:	28 00 00 00 	lw $2,0($2)
  401c6c:	00 00 02 02 
  401c70:	43 00 00 00 	addiu $8,$8,1
  401c74:	01 00 08 08 
  401c78:	52 00 00 00 	xor $2,$2,$6
  401c7c:	00 02 06 02 
  401c80:	34 00 00 00 	sw $2,0($11)
  401c84:	00 00 02 0b 
  401c88:	43 00 00 00 	addiu $11,$11,4
  401c8c:	04 00 0b 0b 
  401c90:	5b 00 00 00 	slt $2,$8,$13
  401c94:	00 02 0d 08 
  401c98:	06 00 00 00 	bne $2,$0,401948 <KeyExpansion+0x250>
  401c9c:	2a ff 00 02 
  401ca0:	43 00 00 00 	addiu $29,$29,80
  401ca4:	50 00 1d 1d 
  401ca8:	03 00 00 00 	jr $31
  401cac:	00 00 00 1f 

00401cb0 <aes_encrypt>:
  401cb0:	43 00 00 00 	addiu $29,$29,-48
  401cb4:	d0 ff 1d 1d 
  401cb8:	34 00 00 00 	sw $31,44($29)
  401cbc:	2c 00 1f 1d 
  401cc0:	34 00 00 00 	sw $18,40($29)
  401cc4:	28 00 12 1d 
  401cc8:	34 00 00 00 	sw $17,36($29)
  401ccc:	24 00 11 1d 
  401cd0:	34 00 00 00 	sw $16,32($29)
  401cd4:	20 00 10 1d 
  401cd8:	22 00 00 00 	lbu $2,0($4)
  401cdc:	00 00 02 04 
  401ce0:	30 00 00 00 	sb $2,16($29)
  401ce4:	10 00 02 1d 
  401ce8:	22 00 00 00 	lbu $2,1($4)
  401cec:	01 00 02 04 
  401cf0:	30 00 00 00 	sb $2,20($29)
  401cf4:	14 00 02 1d 
  401cf8:	22 00 00 00 	lbu $2,2($4)
  401cfc:	02 00 02 04 
  401d00:	30 00 00 00 	sb $2,24($29)
  401d04:	18 00 02 1d 
  401d08:	22 00 00 00 	lbu $2,3($4)
  401d0c:	03 00 02 04 
  401d10:	30 00 00 00 	sb $2,28($29)
  401d14:	1c 00 02 1d 
  401d18:	22 00 00 00 	lbu $2,4($4)
  401d1c:	04 00 02 04 
  401d20:	30 00 00 00 	sb $2,17($29)
  401d24:	11 00 02 1d 
  401d28:	22 00 00 00 	lbu $2,5($4)
  401d2c:	05 00 02 04 
  401d30:	30 00 00 00 	sb $2,21($29)
  401d34:	15 00 02 1d 
  401d38:	22 00 00 00 	lbu $2,6($4)
  401d3c:	06 00 02 04 
  401d40:	30 00 00 00 	sb $2,25($29)
  401d44:	19 00 02 1d 
  401d48:	22 00 00 00 	lbu $2,7($4)
  401d4c:	07 00 02 04 
  401d50:	30 00 00 00 	sb $2,29($29)
  401d54:	1d 00 02 1d 
  401d58:	22 00 00 00 	lbu $2,8($4)
  401d5c:	08 00 02 04 
  401d60:	30 00 00 00 	sb $2,18($29)
  401d64:	12 00 02 1d 
  401d68:	22 00 00 00 	lbu $2,9($4)
  401d6c:	09 00 02 04 
  401d70:	30 00 00 00 	sb $2,22($29)
  401d74:	16 00 02 1d 
  401d78:	22 00 00 00 	lbu $2,10($4)
  401d7c:	0a 00 02 04 
  401d80:	30 00 00 00 	sb $2,26($29)
  401d84:	1a 00 02 1d 
  401d88:	22 00 00 00 	lbu $2,11($4)
  401d8c:	0b 00 02 04 
  401d90:	30 00 00 00 	sb $2,30($29)
  401d94:	1e 00 02 1d 
  401d98:	22 00 00 00 	lbu $2,12($4)
  401d9c:	0c 00 02 04 
  401da0:	30 00 00 00 	sb $2,19($29)
  401da4:	13 00 02 1d 
  401da8:	22 00 00 00 	lbu $2,13($4)
  401dac:	0d 00 02 04 
  401db0:	30 00 00 00 	sb $2,23($29)
  401db4:	17 00 02 1d 
  401db8:	22 00 00 00 	lbu $2,14($4)
  401dbc:	0e 00 02 04 
  401dc0:	42 00 00 00 	addu $17,$0,$5
  401dc4:	00 11 05 00 
  401dc8:	30 00 00 00 	sb $2,27($29)
  401dcc:	1b 00 02 1d 
  401dd0:	22 00 00 00 	lbu $2,15($4)
  401dd4:	0f 00 02 04 
  401dd8:	42 00 00 00 	addu $18,$0,$6
  401ddc:	00 12 06 00 
  401de0:	42 00 00 00 	addu $5,$0,$18
  401de4:	00 05 12 00 
  401de8:	43 00 00 00 	addiu $4,$29,16
  401dec:	10 00 04 1d 
  401df0:	30 00 00 00 	sb $2,31($29)
  401df4:	1f 00 02 1d 
  401df8:	02 00 00 00 	jal 4001f0 <AddRoundKey>
  401dfc:	7c 00 10 00 
  401e00:	43 00 00 00 	addiu $4,$29,16
  401e04:	10 00 04 1d 
  401e08:	02 00 00 00 	jal 400508 <SubBytes>
  401e0c:	42 01 10 00 
  401e10:	22 00 00 00 	lbu $11,20($29)
  401e14:	14 00 0b 1d 
  401e18:	22 00 00 00 	lbu $9,23($29)
  401e1c:	17 00 09 1d 
  401e20:	22 00 00 00 	lbu $10,26($29)
  401e24:	1a 00 0a 1d 
  401e28:	22 00 00 00 	lbu $8,27($29)
  401e2c:	1b 00 08 1d 
  401e30:	22 00 00 00 	lbu $2,21($29)
  401e34:	15 00 02 1d 
  401e38:	22 00 00 00 	lbu $3,22($29)
  401e3c:	16 00 03 1d 
  401e40:	22 00 00 00 	lbu $7,31($29)
  401e44:	1f 00 07 1d 
  401e48:	22 00 00 00 	lbu $5,30($29)
  401e4c:	1e 00 05 1d 
  401e50:	22 00 00 00 	lbu $6,29($29)
  401e54:	1d 00 06 1d 
  401e58:	30 00 00 00 	sb $11,23($29)
  401e5c:	17 00 0b 1d 
  401e60:	22 00 00 00 	lbu $11,24($29)
  401e64:	18 00 0b 1d 
  401e68:	30 00 00 00 	sb $11,26($29)
  401e6c:	1a 00 0b 1d 
  401e70:	22 00 00 00 	lbu $11,25($29)
  401e74:	19 00 0b 1d 
  401e78:	30 00 00 00 	sb $11,27($29)
  401e7c:	1b 00 0b 1d 
  401e80:	22 00 00 00 	lbu $11,28($29)
  401e84:	1c 00 0b 1d 
  401e88:	43 00 00 00 	addiu $16,$29,16
  401e8c:	10 00 10 1d 
  401e90:	42 00 00 00 	addu $4,$0,$16
  401e94:	00 04 10 00 
  401e98:	30 00 00 00 	sb $2,20($29)
  401e9c:	14 00 02 1d 
  401ea0:	30 00 00 00 	sb $3,21($29)
  401ea4:	15 00 03 1d 
  401ea8:	30 00 00 00 	sb $9,22($29)
  401eac:	16 00 09 1d 
  401eb0:	30 00 00 00 	sb $5,31($29)
  401eb4:	1f 00 05 1d 
  401eb8:	30 00 00 00 	sb $6,30($29)
  401ebc:	1e 00 06 1d 
  401ec0:	30 00 00 00 	sb $10,24($29)
  401ec4:	18 00 0a 1d 
  401ec8:	30 00 00 00 	sb $8,25($29)
  401ecc:	19 00 08 1d 
  401ed0:	30 00 00 00 	sb $7,28($29)
  401ed4:	1c 00 07 1d 
  401ed8:	30 00 00 00 	sb $11,29($29)
  401edc:	1d 00 0b 1d 
  401ee0:	02 00 00 00 	jal 400968 <MixColumns>
  401ee4:	5a 02 10 00 
  401ee8:	42 00 00 00 	addu $4,$0,$16
  401eec:	00 04 10 00 
  401ef0:	43 00 00 00 	addiu $5,$18,16
  401ef4:	10 00 05 12 
  401ef8:	02 00 00 00 	jal 4001f0 <AddRoundKey>
  401efc:	7c 00 10 00 
  401f00:	42 00 00 00 	addu $4,$0,$16
  401f04:	00 04 10 00 
  401f08:	02 00 00 00 	jal 400508 <SubBytes>
  401f0c:	42 01 10 00 
  401f10:	22 00 00 00 	lbu $11,20($29)
  401f14:	14 00 0b 1d 
  401f18:	22 00 00 00 	lbu $9,23($29)
  401f1c:	17 00 09 1d 
  401f20:	22 00 00 00 	lbu $10,26($29)
  401f24:	1a 00 0a 1d 
  401f28:	22 00 00 00 	lbu $8,27($29)
  401f2c:	1b 00 08 1d 
  401f30:	22 00 00 00 	lbu $2,21($29)
  401f34:	15 00 02 1d 
  401f38:	22 00 00 00 	lbu $3,22($29)
  401f3c:	16 00 03 1d 
  401f40:	22 00 00 00 	lbu $7,31($29)
  401f44:	1f 00 07 1d 
  401f48:	22 00 00 00 	lbu $5,30($29)
  401f4c:	1e 00 05 1d 
  401f50:	22 00 00 00 	lbu $6,29($29)
  401f54:	1d 00 06 1d 
  401f58:	30 00 00 00 	sb $11,23($29)
  401f5c:	17 00 0b 1d 
  401f60:	22 00 00 00 	lbu $11,24($29)
  401f64:	18 00 0b 1d 
  401f68:	30 00 00 00 	sb $11,26($29)
  401f6c:	1a 00 0b 1d 
  401f70:	22 00 00 00 	lbu $11,25($29)
  401f74:	19 00 0b 1d 
  401f78:	30 00 00 00 	sb $11,27($29)
  401f7c:	1b 00 0b 1d 
  401f80:	22 00 00 00 	lbu $11,28($29)
  401f84:	1c 00 0b 1d 
  401f88:	42 00 00 00 	addu $4,$0,$16
  401f8c:	00 04 10 00 
  401f90:	30 00 00 00 	sb $2,20($29)
  401f94:	14 00 02 1d 
  401f98:	30 00 00 00 	sb $3,21($29)
  401f9c:	15 00 03 1d 
  401fa0:	30 00 00 00 	sb $9,22($29)
  401fa4:	16 00 09 1d 
  401fa8:	30 00 00 00 	sb $5,31($29)
  401fac:	1f 00 05 1d 
  401fb0:	30 00 00 00 	sb $6,30($29)
  401fb4:	1e 00 06 1d 
  401fb8:	30 00 00 00 	sb $10,24($29)
  401fbc:	18 00 0a 1d 
  401fc0:	30 00 00 00 	sb $8,25($29)
  401fc4:	19 00 08 1d 
  401fc8:	30 00 00 00 	sb $7,28($29)
  401fcc:	1c 00 07 1d 
  401fd0:	30 00 00 00 	sb $11,29($29)
  401fd4:	1d 00 0b 1d 
  401fd8:	02 00 00 00 	jal 400968 <MixColumns>
  401fdc:	5a 02 10 00 
  401fe0:	42 00 00 00 	addu $4,$0,$16
  401fe4:	00 04 10 00 
  401fe8:	43 00 00 00 	addiu $5,$18,32
  401fec:	20 00 05 12 
  401ff0:	02 00 00 00 	jal 4001f0 <AddRoundKey>
  401ff4:	7c 00 10 00 
  401ff8:	42 00 00 00 	addu $4,$0,$16
  401ffc:	00 04 10 00 
  402000:	02 00 00 00 	jal 400508 <SubBytes>
  402004:	42 01 10 00 
  402008:	22 00 00 00 	lbu $11,20($29)
  40200c:	14 00 0b 1d 
  402010:	22 00 00 00 	lbu $9,23($29)
  402014:	17 00 09 1d 
  402018:	22 00 00 00 	lbu $10,26($29)
  40201c:	1a 00 0a 1d 
  402020:	22 00 00 00 	lbu $8,27($29)
  402024:	1b 00 08 1d 
  402028:	22 00 00 00 	lbu $2,21($29)
  40202c:	15 00 02 1d 
  402030:	22 00 00 00 	lbu $3,22($29)
  402034:	16 00 03 1d 
  402038:	22 00 00 00 	lbu $7,31($29)
  40203c:	1f 00 07 1d 
  402040:	22 00 00 00 	lbu $5,30($29)
  402044:	1e 00 05 1d 
  402048:	22 00 00 00 	lbu $6,29($29)
  40204c:	1d 00 06 1d 
  402050:	30 00 00 00 	sb $11,23($29)
  402054:	17 00 0b 1d 
  402058:	22 00 00 00 	lbu $11,24($29)
  40205c:	18 00 0b 1d 
  402060:	30 00 00 00 	sb $11,26($29)
  402064:	1a 00 0b 1d 
  402068:	22 00 00 00 	lbu $11,25($29)
  40206c:	19 00 0b 1d 
  402070:	30 00 00 00 	sb $11,27($29)
  402074:	1b 00 0b 1d 
  402078:	22 00 00 00 	lbu $11,28($29)
  40207c:	1c 00 0b 1d 
  402080:	42 00 00 00 	addu $4,$0,$16
  402084:	00 04 10 00 
  402088:	30 00 00 00 	sb $2,20($29)
  40208c:	14 00 02 1d 
  402090:	30 00 00 00 	sb $3,21($29)
  402094:	15 00 03 1d 
  402098:	30 00 00 00 	sb $9,22($29)
  40209c:	16 00 09 1d 
  4020a0:	30 00 00 00 	sb $5,31($29)
  4020a4:	1f 00 05 1d 
  4020a8:	30 00 00 00 	sb $6,30($29)
  4020ac:	1e 00 06 1d 
  4020b0:	30 00 00 00 	sb $10,24($29)
  4020b4:	18 00 0a 1d 
  4020b8:	30 00 00 00 	sb $8,25($29)
  4020bc:	19 00 08 1d 
  4020c0:	30 00 00 00 	sb $7,28($29)
  4020c4:	1c 00 07 1d 
  4020c8:	30 00 00 00 	sb $11,29($29)
  4020cc:	1d 00 0b 1d 
  4020d0:	02 00 00 00 	jal 400968 <MixColumns>
  4020d4:	5a 02 10 00 
  4020d8:	42 00 00 00 	addu $4,$0,$16
  4020dc:	00 04 10 00 
  4020e0:	43 00 00 00 	addiu $5,$18,48
  4020e4:	30 00 05 12 
  4020e8:	02 00 00 00 	jal 4001f0 <AddRoundKey>
  4020ec:	7c 00 10 00 
  4020f0:	42 00 00 00 	addu $4,$0,$16
  4020f4:	00 04 10 00 
  4020f8:	02 00 00 00 	jal 400508 <SubBytes>
  4020fc:	42 01 10 00 
  402100:	22 00 00 00 	lbu $11,20($29)
  402104:	14 00 0b 1d 
  402108:	22 00 00 00 	lbu $9,23($29)
  40210c:	17 00 09 1d 
  402110:	22 00 00 00 	lbu $10,26($29)
  402114:	1a 00 0a 1d 
  402118:	22 00 00 00 	lbu $8,27($29)
  40211c:	1b 00 08 1d 
  402120:	22 00 00 00 	lbu $2,21($29)
  402124:	15 00 02 1d 
  402128:	22 00 00 00 	lbu $3,22($29)
  40212c:	16 00 03 1d 
  402130:	22 00 00 00 	lbu $7,31($29)
  402134:	1f 00 07 1d 
  402138:	22 00 00 00 	lbu $5,30($29)
  40213c:	1e 00 05 1d 
  402140:	22 00 00 00 	lbu $6,29($29)
  402144:	1d 00 06 1d 
  402148:	30 00 00 00 	sb $11,23($29)
  40214c:	17 00 0b 1d 
  402150:	22 00 00 00 	lbu $11,24($29)
  402154:	18 00 0b 1d 
  402158:	30 00 00 00 	sb $11,26($29)
  40215c:	1a 00 0b 1d 
  402160:	22 00 00 00 	lbu $11,25($29)
  402164:	19 00 0b 1d 
  402168:	30 00 00 00 	sb $11,27($29)
  40216c:	1b 00 0b 1d 
  402170:	22 00 00 00 	lbu $11,28($29)
  402174:	1c 00 0b 1d 
  402178:	42 00 00 00 	addu $4,$0,$16
  40217c:	00 04 10 00 
  402180:	30 00 00 00 	sb $2,20($29)
  402184:	14 00 02 1d 
  402188:	30 00 00 00 	sb $3,21($29)
  40218c:	15 00 03 1d 
  402190:	30 00 00 00 	sb $9,22($29)
  402194:	16 00 09 1d 
  402198:	30 00 00 00 	sb $5,31($29)
  40219c:	1f 00 05 1d 
  4021a0:	30 00 00 00 	sb $6,30($29)
  4021a4:	1e 00 06 1d 
  4021a8:	30 00 00 00 	sb $10,24($29)
  4021ac:	18 00 0a 1d 
  4021b0:	30 00 00 00 	sb $8,25($29)
  4021b4:	19 00 08 1d 
  4021b8:	30 00 00 00 	sb $7,28($29)
  4021bc:	1c 00 07 1d 
  4021c0:	30 00 00 00 	sb $11,29($29)
  4021c4:	1d 00 0b 1d 
  4021c8:	02 00 00 00 	jal 400968 <MixColumns>
  4021cc:	5a 02 10 00 
  4021d0:	42 00 00 00 	addu $4,$0,$16
  4021d4:	00 04 10 00 
  4021d8:	43 00 00 00 	addiu $5,$18,64
  4021dc:	40 00 05 12 
  4021e0:	02 00 00 00 	jal 4001f0 <AddRoundKey>
  4021e4:	7c 00 10 00 
  4021e8:	42 00 00 00 	addu $4,$0,$16
  4021ec:	00 04 10 00 
  4021f0:	02 00 00 00 	jal 400508 <SubBytes>
  4021f4:	42 01 10 00 
  4021f8:	22 00 00 00 	lbu $11,20($29)
  4021fc:	14 00 0b 1d 
  402200:	22 00 00 00 	lbu $9,23($29)
  402204:	17 00 09 1d 
  402208:	22 00 00 00 	lbu $10,26($29)
  40220c:	1a 00 0a 1d 
  402210:	22 00 00 00 	lbu $8,27($29)
  402214:	1b 00 08 1d 
  402218:	22 00 00 00 	lbu $2,21($29)
  40221c:	15 00 02 1d 
  402220:	22 00 00 00 	lbu $3,22($29)
  402224:	16 00 03 1d 
  402228:	22 00 00 00 	lbu $7,31($29)
  40222c:	1f 00 07 1d 
  402230:	22 00 00 00 	lbu $5,30($29)
  402234:	1e 00 05 1d 
  402238:	22 00 00 00 	lbu $6,29($29)
  40223c:	1d 00 06 1d 
  402240:	30 00 00 00 	sb $11,23($29)
  402244:	17 00 0b 1d 
  402248:	22 00 00 00 	lbu $11,24($29)
  40224c:	18 00 0b 1d 
  402250:	30 00 00 00 	sb $11,26($29)
  402254:	1a 00 0b 1d 
  402258:	22 00 00 00 	lbu $11,25($29)
  40225c:	19 00 0b 1d 
  402260:	30 00 00 00 	sb $11,27($29)
  402264:	1b 00 0b 1d 
  402268:	22 00 00 00 	lbu $11,28($29)
  40226c:	1c 00 0b 1d 
  402270:	42 00 00 00 	addu $4,$0,$16
  402274:	00 04 10 00 
  402278:	30 00 00 00 	sb $2,20($29)
  40227c:	14 00 02 1d 
  402280:	30 00 00 00 	sb $3,21($29)
  402284:	15 00 03 1d 
  402288:	30 00 00 00 	sb $9,22($29)
  40228c:	16 00 09 1d 
  402290:	30 00 00 00 	sb $5,31($29)
  402294:	1f 00 05 1d 
  402298:	30 00 00 00 	sb $6,30($29)
  40229c:	1e 00 06 1d 
  4022a0:	30 00 00 00 	sb $10,24($29)
  4022a4:	18 00 0a 1d 
  4022a8:	30 00 00 00 	sb $8,25($29)
  4022ac:	19 00 08 1d 
  4022b0:	30 00 00 00 	sb $7,28($29)
  4022b4:	1c 00 07 1d 
  4022b8:	30 00 00 00 	sb $11,29($29)
  4022bc:	1d 00 0b 1d 
  4022c0:	02 00 00 00 	jal 400968 <MixColumns>
  4022c4:	5a 02 10 00 
  4022c8:	42 00 00 00 	addu $4,$0,$16
  4022cc:	00 04 10 00 
  4022d0:	43 00 00 00 	addiu $5,$18,80
  4022d4:	50 00 05 12 
  4022d8:	02 00 00 00 	jal 4001f0 <AddRoundKey>
  4022dc:	7c 00 10 00 
  4022e0:	42 00 00 00 	addu $4,$0,$16
  4022e4:	00 04 10 00 
  4022e8:	02 00 00 00 	jal 400508 <SubBytes>
  4022ec:	42 01 10 00 
  4022f0:	22 00 00 00 	lbu $11,20($29)
  4022f4:	14 00 0b 1d 
  4022f8:	22 00 00 00 	lbu $9,23($29)
  4022fc:	17 00 09 1d 
  402300:	22 00 00 00 	lbu $10,26($29)
  402304:	1a 00 0a 1d 
  402308:	22 00 00 00 	lbu $8,27($29)
  40230c:	1b 00 08 1d 
  402310:	22 00 00 00 	lbu $2,21($29)
  402314:	15 00 02 1d 
  402318:	22 00 00 00 	lbu $3,22($29)
  40231c:	16 00 03 1d 
  402320:	22 00 00 00 	lbu $7,31($29)
  402324:	1f 00 07 1d 
  402328:	22 00 00 00 	lbu $5,30($29)
  40232c:	1e 00 05 1d 
  402330:	22 00 00 00 	lbu $6,29($29)
  402334:	1d 00 06 1d 
  402338:	30 00 00 00 	sb $11,23($29)
  40233c:	17 00 0b 1d 
  402340:	22 00 00 00 	lbu $11,24($29)
  402344:	18 00 0b 1d 
  402348:	30 00 00 00 	sb $11,26($29)
  40234c:	1a 00 0b 1d 
  402350:	22 00 00 00 	lbu $11,25($29)
  402354:	19 00 0b 1d 
  402358:	30 00 00 00 	sb $11,27($29)
  40235c:	1b 00 0b 1d 
  402360:	22 00 00 00 	lbu $11,28($29)
  402364:	1c 00 0b 1d 
  402368:	42 00 00 00 	addu $4,$0,$16
  40236c:	00 04 10 00 
  402370:	30 00 00 00 	sb $2,20($29)
  402374:	14 00 02 1d 
  402378:	30 00 00 00 	sb $3,21($29)
  40237c:	15 00 03 1d 
  402380:	30 00 00 00 	sb $9,22($29)
  402384:	16 00 09 1d 
  402388:	30 00 00 00 	sb $5,31($29)
  40238c:	1f 00 05 1d 
  402390:	30 00 00 00 	sb $6,30($29)
  402394:	1e 00 06 1d 
  402398:	30 00 00 00 	sb $10,24($29)
  40239c:	18 00 0a 1d 
  4023a0:	30 00 00 00 	sb $8,25($29)
  4023a4:	19 00 08 1d 
  4023a8:	30 00 00 00 	sb $7,28($29)
  4023ac:	1c 00 07 1d 
  4023b0:	30 00 00 00 	sb $11,29($29)
  4023b4:	1d 00 0b 1d 
  4023b8:	02 00 00 00 	jal 400968 <MixColumns>
  4023bc:	5a 02 10 00 
  4023c0:	42 00 00 00 	addu $4,$0,$16
  4023c4:	00 04 10 00 
  4023c8:	43 00 00 00 	addiu $5,$18,96
  4023cc:	60 00 05 12 
  4023d0:	02 00 00 00 	jal 4001f0 <AddRoundKey>
  4023d4:	7c 00 10 00 
  4023d8:	42 00 00 00 	addu $4,$0,$16
  4023dc:	00 04 10 00 
  4023e0:	02 00 00 00 	jal 400508 <SubBytes>
  4023e4:	42 01 10 00 
  4023e8:	22 00 00 00 	lbu $11,20($29)
  4023ec:	14 00 0b 1d 
  4023f0:	22 00 00 00 	lbu $9,23($29)
  4023f4:	17 00 09 1d 
  4023f8:	22 00 00 00 	lbu $10,26($29)
  4023fc:	1a 00 0a 1d 
  402400:	22 00 00 00 	lbu $8,27($29)
  402404:	1b 00 08 1d 
  402408:	22 00 00 00 	lbu $2,21($29)
  40240c:	15 00 02 1d 
  402410:	22 00 00 00 	lbu $3,22($29)
  402414:	16 00 03 1d 
  402418:	22 00 00 00 	lbu $7,31($29)
  40241c:	1f 00 07 1d 
  402420:	22 00 00 00 	lbu $5,30($29)
  402424:	1e 00 05 1d 
  402428:	22 00 00 00 	lbu $6,29($29)
  40242c:	1d 00 06 1d 
  402430:	30 00 00 00 	sb $11,23($29)
  402434:	17 00 0b 1d 
  402438:	22 00 00 00 	lbu $11,24($29)
  40243c:	18 00 0b 1d 
  402440:	30 00 00 00 	sb $11,26($29)
  402444:	1a 00 0b 1d 
  402448:	22 00 00 00 	lbu $11,25($29)
  40244c:	19 00 0b 1d 
  402450:	30 00 00 00 	sb $11,27($29)
  402454:	1b 00 0b 1d 
  402458:	22 00 00 00 	lbu $11,28($29)
  40245c:	1c 00 0b 1d 
  402460:	42 00 00 00 	addu $4,$0,$16
  402464:	00 04 10 00 
  402468:	30 00 00 00 	sb $2,20($29)
  40246c:	14 00 02 1d 
  402470:	30 00 00 00 	sb $3,21($29)
  402474:	15 00 03 1d 
  402478:	30 00 00 00 	sb $9,22($29)
  40247c:	16 00 09 1d 
  402480:	30 00 00 00 	sb $5,31($29)
  402484:	1f 00 05 1d 
  402488:	30 00 00 00 	sb $6,30($29)
  40248c:	1e 00 06 1d 
  402490:	30 00 00 00 	sb $10,24($29)
  402494:	18 00 0a 1d 
  402498:	30 00 00 00 	sb $8,25($29)
  40249c:	19 00 08 1d 
  4024a0:	30 00 00 00 	sb $7,28($29)
  4024a4:	1c 00 07 1d 
  4024a8:	30 00 00 00 	sb $11,29($29)
  4024ac:	1d 00 0b 1d 
  4024b0:	02 00 00 00 	jal 400968 <MixColumns>
  4024b4:	5a 02 10 00 
  4024b8:	42 00 00 00 	addu $4,$0,$16
  4024bc:	00 04 10 00 
  4024c0:	43 00 00 00 	addiu $5,$18,112
  4024c4:	70 00 05 12 
  4024c8:	02 00 00 00 	jal 4001f0 <AddRoundKey>
  4024cc:	7c 00 10 00 
  4024d0:	42 00 00 00 	addu $4,$0,$16
  4024d4:	00 04 10 00 
  4024d8:	02 00 00 00 	jal 400508 <SubBytes>
  4024dc:	42 01 10 00 
  4024e0:	22 00 00 00 	lbu $11,20($29)
  4024e4:	14 00 0b 1d 
  4024e8:	22 00 00 00 	lbu $9,23($29)
  4024ec:	17 00 09 1d 
  4024f0:	22 00 00 00 	lbu $10,26($29)
  4024f4:	1a 00 0a 1d 
  4024f8:	22 00 00 00 	lbu $8,27($29)
  4024fc:	1b 00 08 1d 
  402500:	22 00 00 00 	lbu $2,21($29)
  402504:	15 00 02 1d 
  402508:	22 00 00 00 	lbu $3,22($29)
  40250c:	16 00 03 1d 
  402510:	22 00 00 00 	lbu $7,31($29)
  402514:	1f 00 07 1d 
  402518:	22 00 00 00 	lbu $5,30($29)
  40251c:	1e 00 05 1d 
  402520:	22 00 00 00 	lbu $6,29($29)
  402524:	1d 00 06 1d 
  402528:	30 00 00 00 	sb $11,23($29)
  40252c:	17 00 0b 1d 
  402530:	22 00 00 00 	lbu $11,24($29)
  402534:	18 00 0b 1d 
  402538:	30 00 00 00 	sb $11,26($29)
  40253c:	1a 00 0b 1d 
  402540:	22 00 00 00 	lbu $11,25($29)
  402544:	19 00 0b 1d 
  402548:	30 00 00 00 	sb $11,27($29)
  40254c:	1b 00 0b 1d 
  402550:	22 00 00 00 	lbu $11,28($29)
  402554:	1c 00 0b 1d 
  402558:	42 00 00 00 	addu $4,$0,$16
  40255c:	00 04 10 00 
  402560:	30 00 00 00 	sb $2,20($29)
  402564:	14 00 02 1d 
  402568:	30 00 00 00 	sb $3,21($29)
  40256c:	15 00 03 1d 
  402570:	30 00 00 00 	sb $9,22($29)
  402574:	16 00 09 1d 
  402578:	30 00 00 00 	sb $5,31($29)
  40257c:	1f 00 05 1d 
  402580:	30 00 00 00 	sb $6,30($29)
  402584:	1e 00 06 1d 
  402588:	30 00 00 00 	sb $10,24($29)
  40258c:	18 00 0a 1d 
  402590:	30 00 00 00 	sb $8,25($29)
  402594:	19 00 08 1d 
  402598:	30 00 00 00 	sb $7,28($29)
  40259c:	1c 00 07 1d 
  4025a0:	30 00 00 00 	sb $11,29($29)
  4025a4:	1d 00 0b 1d 
  4025a8:	02 00 00 00 	jal 400968 <MixColumns>
  4025ac:	5a 02 10 00 
  4025b0:	42 00 00 00 	addu $4,$0,$16
  4025b4:	00 04 10 00 
  4025b8:	43 00 00 00 	addiu $5,$18,128
  4025bc:	80 00 05 12 
  4025c0:	02 00 00 00 	jal 4001f0 <AddRoundKey>
  4025c4:	7c 00 10 00 
  4025c8:	42 00 00 00 	addu $4,$0,$16
  4025cc:	00 04 10 00 
  4025d0:	02 00 00 00 	jal 400508 <SubBytes>
  4025d4:	42 01 10 00 
  4025d8:	22 00 00 00 	lbu $11,20($29)
  4025dc:	14 00 0b 1d 
  4025e0:	22 00 00 00 	lbu $9,23($29)
  4025e4:	17 00 09 1d 
  4025e8:	22 00 00 00 	lbu $10,26($29)
  4025ec:	1a 00 0a 1d 
  4025f0:	22 00 00 00 	lbu $8,27($29)
  4025f4:	1b 00 08 1d 
  4025f8:	22 00 00 00 	lbu $2,21($29)
  4025fc:	15 00 02 1d 
  402600:	22 00 00 00 	lbu $3,22($29)
  402604:	16 00 03 1d 
  402608:	22 00 00 00 	lbu $7,31($29)
  40260c:	1f 00 07 1d 
  402610:	22 00 00 00 	lbu $5,30($29)
  402614:	1e 00 05 1d 
  402618:	22 00 00 00 	lbu $6,29($29)
  40261c:	1d 00 06 1d 
  402620:	30 00 00 00 	sb $11,23($29)
  402624:	17 00 0b 1d 
  402628:	22 00 00 00 	lbu $11,24($29)
  40262c:	18 00 0b 1d 
  402630:	30 00 00 00 	sb $11,26($29)
  402634:	1a 00 0b 1d 
  402638:	22 00 00 00 	lbu $11,25($29)
  40263c:	19 00 0b 1d 
  402640:	30 00 00 00 	sb $11,27($29)
  402644:	1b 00 0b 1d 
  402648:	22 00 00 00 	lbu $11,28($29)
  40264c:	1c 00 0b 1d 
  402650:	42 00 00 00 	addu $4,$0,$16
  402654:	00 04 10 00 
  402658:	30 00 00 00 	sb $2,20($29)
  40265c:	14 00 02 1d 
  402660:	30 00 00 00 	sb $3,21($29)
  402664:	15 00 03 1d 
  402668:	30 00 00 00 	sb $9,22($29)
  40266c:	16 00 09 1d 
  402670:	30 00 00 00 	sb $5,31($29)
  402674:	1f 00 05 1d 
  402678:	30 00 00 00 	sb $6,30($29)
  40267c:	1e 00 06 1d 
  402680:	30 00 00 00 	sb $10,24($29)
  402684:	18 00 0a 1d 
  402688:	30 00 00 00 	sb $8,25($29)
  40268c:	19 00 08 1d 
  402690:	30 00 00 00 	sb $7,28($29)
  402694:	1c 00 07 1d 
  402698:	30 00 00 00 	sb $11,29($29)
  40269c:	1d 00 0b 1d 
  4026a0:	02 00 00 00 	jal 400968 <MixColumns>
  4026a4:	5a 02 10 00 
  4026a8:	42 00 00 00 	addu $4,$0,$16
  4026ac:	00 04 10 00 
  4026b0:	43 00 00 00 	addiu $5,$18,144
  4026b4:	90 00 05 12 
  4026b8:	02 00 00 00 	jal 4001f0 <AddRoundKey>
  4026bc:	7c 00 10 00 
  4026c0:	22 00 00 00 	lbu $2,16($29)
  4026c4:	10 00 02 1d 
  4026c8:	30 00 00 00 	sb $2,0($17)
  4026cc:	00 00 02 11 
  4026d0:	22 00 00 00 	lbu $2,20($29)
  4026d4:	14 00 02 1d 
  4026d8:	30 00 00 00 	sb $2,1($17)
  4026dc:	01 00 02 11 
  4026e0:	22 00 00 00 	lbu $2,24($29)
  4026e4:	18 00 02 1d 
  4026e8:	30 00 00 00 	sb $2,2($17)
  4026ec:	02 00 02 11 
  4026f0:	22 00 00 00 	lbu $2,28($29)
  4026f4:	1c 00 02 1d 
  4026f8:	30 00 00 00 	sb $2,3($17)
  4026fc:	03 00 02 11 
  402700:	22 00 00 00 	lbu $2,17($29)
  402704:	11 00 02 1d 
  402708:	30 00 00 00 	sb $2,4($17)
  40270c:	04 00 02 11 
  402710:	22 00 00 00 	lbu $2,21($29)
  402714:	15 00 02 1d 
  402718:	30 00 00 00 	sb $2,5($17)
  40271c:	05 00 02 11 
  402720:	22 00 00 00 	lbu $2,25($29)
  402724:	19 00 02 1d 
  402728:	30 00 00 00 	sb $2,6($17)
  40272c:	06 00 02 11 
  402730:	22 00 00 00 	lbu $2,29($29)
  402734:	1d 00 02 1d 
  402738:	30 00 00 00 	sb $2,7($17)
  40273c:	07 00 02 11 
  402740:	22 00 00 00 	lbu $2,18($29)
  402744:	12 00 02 1d 
  402748:	30 00 00 00 	sb $2,8($17)
  40274c:	08 00 02 11 
  402750:	22 00 00 00 	lbu $2,22($29)
  402754:	16 00 02 1d 
  402758:	30 00 00 00 	sb $2,9($17)
  40275c:	09 00 02 11 
  402760:	22 00 00 00 	lbu $2,26($29)
  402764:	1a 00 02 1d 
  402768:	30 00 00 00 	sb $2,10($17)
  40276c:	0a 00 02 11 
  402770:	22 00 00 00 	lbu $2,30($29)
  402774:	1e 00 02 1d 
  402778:	30 00 00 00 	sb $2,11($17)
  40277c:	0b 00 02 11 
  402780:	22 00 00 00 	lbu $2,19($29)
  402784:	13 00 02 1d 
  402788:	30 00 00 00 	sb $2,12($17)
  40278c:	0c 00 02 11 
  402790:	22 00 00 00 	lbu $2,23($29)
  402794:	17 00 02 1d 
  402798:	30 00 00 00 	sb $2,13($17)
  40279c:	0d 00 02 11 
  4027a0:	22 00 00 00 	lbu $2,27($29)
  4027a4:	1b 00 02 1d 
  4027a8:	30 00 00 00 	sb $2,14($17)
  4027ac:	0e 00 02 11 
  4027b0:	22 00 00 00 	lbu $2,31($29)
  4027b4:	1f 00 02 1d 
  4027b8:	30 00 00 00 	sb $2,15($17)
  4027bc:	0f 00 02 11 
  4027c0:	28 00 00 00 	lw $31,44($29)
  4027c4:	2c 00 1f 1d 
  4027c8:	28 00 00 00 	lw $18,40($29)
  4027cc:	28 00 12 1d 
  4027d0:	28 00 00 00 	lw $17,36($29)
  4027d4:	24 00 11 1d 
  4027d8:	28 00 00 00 	lw $16,32($29)
  4027dc:	20 00 10 1d 
  4027e0:	43 00 00 00 	addiu $29,$29,48
  4027e4:	30 00 1d 1d 
  4027e8:	03 00 00 00 	jr $31
  4027ec:	00 00 00 1f 

004027f0 <main>:
  4027f0:	43 00 00 00 	addiu $29,$29,-584
  4027f4:	b8 fd 1d 1d 
  4027f8:	34 00 00 00 	sw $31,580($29)
  4027fc:	44 02 1f 1d 
  402800:	34 00 00 00 	sw $16,576($29)
  402804:	40 02 10 1d 
  402808:	02 00 00 00 	jal 402da8 <__main>
  40280c:	6a 0b 10 00 
  402810:	43 00 00 00 	addiu $4,$29,16
  402814:	10 00 04 1d 
  402818:	43 00 00 00 	addiu $16,$29,32
  40281c:	20 00 10 1d 
  402820:	42 00 00 00 	addu $5,$0,$16
  402824:	00 05 10 00 
  402828:	43 00 00 00 	addiu $6,$0,128
  40282c:	80 00 06 00 
  402830:	43 00 00 00 	addiu $2,$0,1
  402834:	01 00 02 00 
  402838:	30 00 00 00 	sb $2,545($29)
  40283c:	21 02 02 1d 
  402840:	43 00 00 00 	addiu $2,$0,2
  402844:	02 00 02 00 
  402848:	30 00 00 00 	sb $2,546($29)
  40284c:	22 02 02 1d 
  402850:	43 00 00 00 	addiu $2,$0,86
  402854:	56 00 02 00 
  402858:	30 00 00 00 	sb $2,547($29)
  40285c:	23 02 02 1d 
  402860:	43 00 00 00 	addiu $2,$0,255
  402864:	ff 00 02 00 
  402868:	30 00 00 00 	sb $2,548($29)
  40286c:	24 02 02 1d 
  402870:	43 00 00 00 	addiu $2,$0,205
  402874:	cd 00 02 00 
  402878:	30 00 00 00 	sb $2,549($29)
  40287c:	25 02 02 1d 
  402880:	43 00 00 00 	addiu $2,$0,171
  402884:	ab 00 02 00 
  402888:	30 00 00 00 	sb $2,550($29)
  40288c:	26 02 02 1d 
  402890:	43 00 00 00 	addiu $2,$0,52
  402894:	34 00 02 00 
  402898:	30 00 00 00 	sb $2,551($29)
  40289c:	27 02 02 1d 
  4028a0:	43 00 00 00 	addiu $2,$0,136
  4028a4:	88 00 02 00 
  4028a8:	30 00 00 00 	sb $2,552($29)
  4028ac:	28 02 02 1d 
  4028b0:	43 00 00 00 	addiu $2,$0,170
  4028b4:	aa 00 02 00 
  4028b8:	30 00 00 00 	sb $2,553($29)
  4028bc:	29 02 02 1d 
  4028c0:	43 00 00 00 	addiu $2,$0,221
  4028c4:	dd 00 02 00 
  4028c8:	30 00 00 00 	sb $2,554($29)
  4028cc:	2a 02 02 1d 
  4028d0:	43 00 00 00 	addiu $2,$0,101
  4028d4:	65 00 02 00 
  4028d8:	30 00 00 00 	sb $2,555($29)
  4028dc:	2b 02 02 1d 
  4028e0:	43 00 00 00 	addiu $2,$0,18
  4028e4:	12 00 02 00 
  4028e8:	30 00 00 00 	sb $2,556($29)
  4028ec:	2c 02 02 1d 
  4028f0:	43 00 00 00 	addiu $2,$0,20
  4028f4:	14 00 02 00 
  4028f8:	43 00 00 00 	addiu $3,$0,32
  4028fc:	20 00 03 00 
  402900:	30 00 00 00 	sb $2,557($29)
  402904:	2d 02 02 1d 
  402908:	43 00 00 00 	addiu $2,$0,68
  40290c:	44 00 02 00 
  402910:	30 00 00 00 	sb $2,559($29)
  402914:	2f 02 02 1d 
  402918:	43 00 00 00 	addiu $2,$0,10
  40291c:	0a 00 02 00 
  402920:	30 00 00 00 	sb $2,16($29)
  402924:	10 00 02 1d 
  402928:	43 00 00 00 	addiu $2,$0,16
  40292c:	10 00 02 00 
  402930:	30 00 00 00 	sb $2,17($29)
  402934:	11 00 02 1d 
  402938:	43 00 00 00 	addiu $2,$0,35
  40293c:	23 00 02 00 
  402940:	30 00 00 00 	sb $2,19($29)
  402944:	13 00 02 1d 
  402948:	43 00 00 00 	addiu $2,$0,103
  40294c:	67 00 02 00 
  402950:	30 00 00 00 	sb $2,20($29)
  402954:	14 00 02 1d 
  402958:	43 00 00 00 	addiu $2,$0,84
  40295c:	54 00 02 00 
  402960:	30 00 00 00 	sb $2,21($29)
  402964:	15 00 02 1d 
  402968:	43 00 00 00 	addiu $2,$0,163
  40296c:	a3 00 02 00 
  402970:	30 00 00 00 	sb $2,22($29)
  402974:	16 00 02 1d 
  402978:	43 00 00 00 	addiu $2,$0,228
  40297c:	e4 00 02 00 
  402980:	30 00 00 00 	sb $2,23($29)
  402984:	17 00 02 1d 
  402988:	43 00 00 00 	addiu $2,$0,23
  40298c:	17 00 02 00 
  402990:	30 00 00 00 	sb $2,24($29)
  402994:	18 00 02 1d 
  402998:	43 00 00 00 	addiu $2,$0,165
  40299c:	a5 00 02 00 
  4029a0:	30 00 00 00 	sb $2,25($29)
  4029a4:	19 00 02 1d 
  4029a8:	43 00 00 00 	addiu $2,$0,211
  4029ac:	d3 00 02 00 
  4029b0:	30 00 00 00 	sb $2,26($29)
  4029b4:	1a 00 02 1d 
  4029b8:	43 00 00 00 	addiu $2,$0,97
  4029bc:	61 00 02 00 
  4029c0:	30 00 00 00 	sb $2,27($29)
  4029c4:	1b 00 02 1d 
  4029c8:	43 00 00 00 	addiu $2,$0,33
  4029cc:	21 00 02 00 
  4029d0:	30 00 00 00 	sb $2,28($29)
  4029d4:	1c 00 02 1d 
  4029d8:	43 00 00 00 	addiu $2,$0,36
  4029dc:	24 00 02 00 
  4029e0:	30 00 00 00 	sb $2,29($29)
  4029e4:	1d 00 02 1d 
  4029e8:	43 00 00 00 	addiu $2,$0,112
  4029ec:	70 00 02 00 
  4029f0:	30 00 00 00 	sb $2,30($29)
  4029f4:	1e 00 02 1d 
  4029f8:	43 00 00 00 	addiu $2,$0,69
  4029fc:	45 00 02 00 
  402a00:	30 00 00 00 	sb $0,544($29)
  402a04:	20 02 00 1d 
  402a08:	30 00 00 00 	sb $3,558($29)
  402a0c:	2e 02 03 1d 
  402a10:	30 00 00 00 	sb $3,18($29)
  402a14:	12 00 03 1d 
  402a18:	30 00 00 00 	sb $2,31($29)
  402a1c:	1f 00 02 1d 
  402a20:	02 00 00 00 	jal 4016f8 <KeyExpansion>
  402a24:	be 05 10 00 
  402a28:	43 00 00 00 	addiu $4,$29,544
  402a2c:	20 02 04 1d 
  402a30:	43 00 00 00 	addiu $5,$29,560
  402a34:	30 02 05 1d 
  402a38:	42 00 00 00 	addu $6,$0,$16
  402a3c:	00 06 10 00 
  402a40:	43 00 00 00 	addiu $7,$0,128
  402a44:	80 00 07 00 
  402a48:	02 00 00 00 	jal 401cb0 <aes_encrypt>
  402a4c:	2c 07 10 00 
  402a50:	22 00 00 00 	lbu $5,560($29)
  402a54:	30 02 05 1d 
  402a58:	43 00 00 00 	addiu $16,$28,-32768
  402a5c:	00 80 10 1c 
  402a60:	42 00 00 00 	addu $4,$0,$16
  402a64:	00 04 10 00 
  402a68:	02 00 00 00 	jal 403010 <printf>
  402a6c:	04 0c 10 00 
  402a70:	22 00 00 00 	lbu $5,561($29)
  402a74:	31 02 05 1d 
  402a78:	42 00 00 00 	addu $4,$0,$16
  402a7c:	00 04 10 00 
  402a80:	02 00 00 00 	jal 403010 <printf>
  402a84:	04 0c 10 00 
  402a88:	22 00 00 00 	lbu $5,562($29)
  402a8c:	32 02 05 1d 
  402a90:	42 00 00 00 	addu $4,$0,$16
  402a94:	00 04 10 00 
  402a98:	02 00 00 00 	jal 403010 <printf>
  402a9c:	04 0c 10 00 
  402aa0:	22 00 00 00 	lbu $5,563($29)
  402aa4:	33 02 05 1d 
  402aa8:	42 00 00 00 	addu $4,$0,$16
  402aac:	00 04 10 00 
  402ab0:	02 00 00 00 	jal 403010 <printf>
  402ab4:	04 0c 10 00 
  402ab8:	22 00 00 00 	lbu $5,564($29)
  402abc:	34 02 05 1d 
  402ac0:	42 00 00 00 	addu $4,$0,$16
  402ac4:	00 04 10 00 
  402ac8:	02 00 00 00 	jal 403010 <printf>
  402acc:	04 0c 10 00 
  402ad0:	22 00 00 00 	lbu $5,565($29)
  402ad4:	35 02 05 1d 
  402ad8:	42 00 00 00 	addu $4,$0,$16
  402adc:	00 04 10 00 
  402ae0:	02 00 00 00 	jal 403010 <printf>
  402ae4:	04 0c 10 00 
  402ae8:	22 00 00 00 	lbu $5,566($29)
  402aec:	36 02 05 1d 
  402af0:	42 00 00 00 	addu $4,$0,$16
  402af4:	00 04 10 00 
  402af8:	02 00 00 00 	jal 403010 <printf>
  402afc:	04 0c 10 00 
  402b00:	22 00 00 00 	lbu $5,567($29)
  402b04:	37 02 05 1d 
  402b08:	42 00 00 00 	addu $4,$0,$16
  402b0c:	00 04 10 00 
  402b10:	02 00 00 00 	jal 403010 <printf>
  402b14:	04 0c 10 00 
  402b18:	22 00 00 00 	lbu $5,568($29)
  402b1c:	38 02 05 1d 
  402b20:	42 00 00 00 	addu $4,$0,$16
  402b24:	00 04 10 00 
  402b28:	02 00 00 00 	jal 403010 <printf>
  402b2c:	04 0c 10 00 
  402b30:	22 00 00 00 	lbu $5,569($29)
  402b34:	39 02 05 1d 
  402b38:	42 00 00 00 	addu $4,$0,$16
  402b3c:	00 04 10 00 
  402b40:	02 00 00 00 	jal 403010 <printf>
  402b44:	04 0c 10 00 
  402b48:	22 00 00 00 	lbu $5,570($29)
  402b4c:	3a 02 05 1d 
  402b50:	42 00 00 00 	addu $4,$0,$16
  402b54:	00 04 10 00 
  402b58:	02 00 00 00 	jal 403010 <printf>
  402b5c:	04 0c 10 00 
  402b60:	22 00 00 00 	lbu $5,571($29)
  402b64:	3b 02 05 1d 
  402b68:	42 00 00 00 	addu $4,$0,$16
  402b6c:	00 04 10 00 
  402b70:	02 00 00 00 	jal 403010 <printf>
  402b74:	04 0c 10 00 
  402b78:	22 00 00 00 	lbu $5,572($29)
  402b7c:	3c 02 05 1d 
  402b80:	42 00 00 00 	addu $4,$0,$16
  402b84:	00 04 10 00 
  402b88:	02 00 00 00 	jal 403010 <printf>
  402b8c:	04 0c 10 00 
  402b90:	22 00 00 00 	lbu $5,573($29)
  402b94:	3d 02 05 1d 
  402b98:	42 00 00 00 	addu $4,$0,$16
  402b9c:	00 04 10 00 
  402ba0:	02 00 00 00 	jal 403010 <printf>
  402ba4:	04 0c 10 00 
  402ba8:	22 00 00 00 	lbu $5,574($29)
  402bac:	3e 02 05 1d 
  402bb0:	42 00 00 00 	addu $4,$0,$16
  402bb4:	00 04 10 00 
  402bb8:	02 00 00 00 	jal 403010 <printf>
  402bbc:	04 0c 10 00 
  402bc0:	22 00 00 00 	lbu $5,575($29)
  402bc4:	3f 02 05 1d 
  402bc8:	42 00 00 00 	addu $4,$0,$16
  402bcc:	00 04 10 00 
  402bd0:	02 00 00 00 	jal 403010 <printf>
  402bd4:	04 0c 10 00 
  402bd8:	28 00 00 00 	lw $31,580($29)
  402bdc:	44 02 1f 1d 
  402be0:	28 00 00 00 	lw $16,576($29)
  402be4:	40 02 10 1d 
  402be8:	43 00 00 00 	addiu $29,$29,584
  402bec:	48 02 1d 1d 
  402bf0:	03 00 00 00 	jr $31
  402bf4:	00 00 00 1f 
	...

00402c00 <__do_global_dtors>:
  402c00:	43 00 00 00 	addiu $29,$29,-24
  402c04:	e8 ff 1d 1d 
  402c08:	34 00 00 00 	sw $16,16($29)
  402c0c:	10 00 10 1d 
  402c10:	a2 00 00 00 	lui $16,4096
  402c14:	00 10 10 10 
  402c18:	43 00 00 00 	addiu $16,$16,8188
  402c1c:	fc 1f 10 10 
  402c20:	34 00 00 00 	sw $31,20($29)
  402c24:	14 00 1f 1d 
  402c28:	28 00 00 00 	lw $2,0($16)
  402c2c:	00 00 02 10 
  402c30:	05 00 00 00 	beq $2,$0,402c60 <__do_global_dtors+0x60>
  402c34:	0a 00 00 02 
  402c38:	28 00 00 00 	lw $2,0($16)
  402c3c:	00 00 02 10 
  402c40:	43 00 00 00 	addiu $16,$16,4
  402c44:	04 00 10 10 
  402c48:	04 00 00 00 	jalr $31,$2
  402c4c:	00 1f 00 02 
  402c50:	28 00 00 00 	lw $2,0($16)
  402c54:	00 00 02 10 
  402c58:	06 00 00 00 	bne $2,$0,402c38 <__do_global_dtors+0x38>
  402c5c:	f6 ff 00 02 
  402c60:	28 00 00 00 	lw $31,20($29)
  402c64:	14 00 1f 1d 
  402c68:	28 00 00 00 	lw $16,16($29)
  402c6c:	10 00 10 1d 
  402c70:	43 00 00 00 	addiu $29,$29,24
  402c74:	18 00 1d 1d 
  402c78:	03 00 00 00 	jr $31
  402c7c:	00 00 00 1f 

00402c80 <__do_global_ctors>:
  402c80:	43 00 00 00 	addiu $29,$29,-32
  402c84:	e0 ff 1d 1d 
  402c88:	34 00 00 00 	sw $31,24($29)
  402c8c:	18 00 1f 1d 
  402c90:	34 00 00 00 	sw $17,20($29)
  402c94:	14 00 11 1d 
  402c98:	34 00 00 00 	sw $16,16($29)
  402c9c:	10 00 10 1d 
  402ca0:	a2 00 00 00 	lui $4,4096
  402ca4:	00 10 04 04 
  402ca8:	43 00 00 00 	addiu $4,$4,8176
  402cac:	f0 1f 04 04 
  402cb0:	28 00 00 00 	lw $3,0($4)
  402cb4:	00 00 03 04 
  402cb8:	43 00 00 00 	addiu $2,$0,-1
  402cbc:	ff ff 02 00 
  402cc0:	06 00 00 00 	bne $3,$2,402d18 <__do_global_ctors+0x98>
  402cc4:	14 00 02 03 
  402cc8:	28 00 00 00 	lw $2,4($4)
  402ccc:	04 00 02 04 
  402cd0:	42 00 00 00 	addu $3,$0,$0
  402cd4:	00 03 00 00 
  402cd8:	05 00 00 00 	beq $2,$0,402d18 <__do_global_ctors+0x98>
  402cdc:	0e 00 00 02 
  402ce0:	a2 00 00 00 	lui $4,4096
  402ce4:	00 10 04 04 
  402ce8:	43 00 00 00 	addiu $4,$4,8180
  402cec:	f4 1f 04 04 
  402cf0:	43 00 00 00 	addiu $3,$3,1
  402cf4:	01 00 03 03 
  402cf8:	55 00 00 00 	sll $2,$3,0x2
  402cfc:	02 02 03 00 
  402d00:	42 00 00 00 	addu $2,$2,$4
  402d04:	00 02 04 02 
  402d08:	28 00 00 00 	lw $2,0($2)
  402d0c:	00 00 02 02 
  402d10:	06 00 00 00 	bne $2,$0,402cf0 <__do_global_ctors+0x70>
  402d14:	f6 ff 00 02 
  402d18:	42 00 00 00 	addu $16,$0,$3
  402d1c:	00 10 03 00 
  402d20:	05 00 00 00 	beq $16,$0,402d68 <__do_global_ctors+0xe8>
  402d24:	10 00 00 10 
  402d28:	a2 00 00 00 	lui $17,4096
  402d2c:	00 10 11 11 
  402d30:	43 00 00 00 	addiu $17,$17,8176
  402d34:	f0 1f 11 11 
  402d38:	55 00 00 00 	sll $2,$16,0x2
  402d3c:	02 02 10 00 
  402d40:	42 00 00 00 	addu $2,$2,$17
  402d44:	00 02 11 02 
  402d48:	28 00 00 00 	lw $2,0($2)
  402d4c:	00 00 02 02 
  402d50:	04 00 00 00 	jalr $31,$2
  402d54:	00 1f 00 02 
  402d58:	43 00 00 00 	addiu $16,$16,-1
  402d5c:	ff ff 10 10 
  402d60:	06 00 00 00 	bne $16,$0,402d38 <__do_global_ctors+0xb8>
  402d64:	f4 ff 00 10 
  402d68:	a2 00 00 00 	lui $4,64
  402d6c:	40 00 04 00 
  402d70:	43 00 00 00 	addiu $4,$4,11264
  402d74:	00 2c 04 04 
  402d78:	02 00 00 00 	jal 403080 <atexit>
  402d7c:	20 0c 10 00 
  402d80:	28 00 00 00 	lw $31,24($29)
  402d84:	18 00 1f 1d 
  402d88:	28 00 00 00 	lw $17,20($29)
  402d8c:	14 00 11 1d 
  402d90:	28 00 00 00 	lw $16,16($29)
  402d94:	10 00 10 1d 
  402d98:	43 00 00 00 	addiu $29,$29,32
  402d9c:	20 00 1d 1d 
  402da0:	03 00 00 00 	jr $31
  402da4:	00 00 00 1f 

00402da8 <__main>:
  402da8:	28 00 00 00 	lw $2,-32448($28)
  402dac:	40 81 02 1c 
  402db0:	43 00 00 00 	addiu $29,$29,-24
  402db4:	e8 ff 1d 1d 
  402db8:	34 00 00 00 	sw $31,16($29)
  402dbc:	10 00 1f 1d 
  402dc0:	06 00 00 00 	bne $2,$0,402de0 <__main+0x38>
  402dc4:	06 00 00 02 
  402dc8:	43 00 00 00 	addiu $2,$0,1
  402dcc:	01 00 02 00 
  402dd0:	34 00 00 00 	sw $2,-32448($28)
  402dd4:	40 81 02 1c 
  402dd8:	02 00 00 00 	jal 402c80 <__do_global_ctors>
  402ddc:	20 0b 10 00 
  402de0:	28 00 00 00 	lw $31,16($29)
  402de4:	10 00 1f 1d 
  402de8:	43 00 00 00 	addiu $29,$29,24
  402dec:	18 00 1d 1d 
  402df0:	03 00 00 00 	jr $31
  402df4:	00 00 00 1f 
	...

00402e00 <__libc_init>:
  402e00:	43 00 00 00 	addiu $29,$29,-24
  402e04:	e8 ff 1d 1d 
  402e08:	34 00 00 00 	sw $31,16($29)
  402e0c:	10 00 1f 1d 
  402e10:	02 00 00 00 	jal 403290 <__init_misc>
  402e14:	a4 0c 10 00 
  402e18:	28 00 00 00 	lw $31,16($29)
  402e1c:	10 00 1f 1d 
  402e20:	43 00 00 00 	addiu $29,$29,24
  402e24:	18 00 1d 1d 
  402e28:	03 00 00 00 	jr $31
  402e2c:	00 00 00 1f 

00402e30 <exit>:
  402e30:	43 00 00 00 	addiu $29,$29,-48
  402e34:	d0 ff 1d 1d 
  402e38:	34 00 00 00 	sw $18,24($29)
  402e3c:	18 00 12 1d 
  402e40:	28 00 00 00 	lw $18,-32704($28)
  402e44:	40 80 12 1c 
  402e48:	34 00 00 00 	sw $19,28($29)
  402e4c:	1c 00 13 1d 
  402e50:	42 00 00 00 	addu $19,$0,$4
  402e54:	00 13 04 00 
  402e58:	34 00 00 00 	sw $31,40($29)
  402e5c:	28 00 1f 1d 
  402e60:	34 00 00 00 	sw $21,36($29)
  402e64:	24 00 15 1d 
  402e68:	34 00 00 00 	sw $20,32($29)
  402e6c:	20 00 14 1d 
  402e70:	34 00 00 00 	sw $17,20($29)
  402e74:	14 00 11 1d 
  402e78:	34 00 00 00 	sw $16,16($29)
  402e7c:	10 00 10 1d 
  402e80:	05 00 00 00 	beq $18,$0,402f70 <exit+0x140>
  402e84:	3a 00 00 12 
  402e88:	43 00 00 00 	addiu $21,$0,1
  402e8c:	01 00 15 00 
  402e90:	43 00 00 00 	addiu $20,$0,2
  402e94:	02 00 14 00 
  402e98:	28 00 00 00 	lw $16,4($18)
  402e9c:	04 00 10 12 
  402ea0:	42 00 00 00 	addu $2,$0,$16
  402ea4:	00 02 10 00 
  402ea8:	43 00 00 00 	addiu $16,$16,-1
  402eac:	ff ff 10 10 
  402eb0:	05 00 00 00 	beq $2,$0,402f60 <exit+0x130>
  402eb4:	2a 00 00 02 
  402eb8:	55 00 00 00 	sll $2,$16,0x1
  402ebc:	01 02 10 00 
  402ec0:	42 00 00 00 	addu $2,$2,$16
  402ec4:	00 02 10 02 
  402ec8:	55 00 00 00 	sll $2,$2,0x2
  402ecc:	02 02 02 00 
  402ed0:	43 00 00 00 	addiu $17,$2,8
  402ed4:	08 00 11 02 
  402ed8:	42 00 00 00 	addu $3,$18,$17
  402edc:	00 03 11 12 
  402ee0:	28 00 00 00 	lw $2,0($3)
  402ee4:	00 00 02 03 
  402ee8:	05 00 00 00 	beq $2,$21,402f08 <exit+0xd8>
  402eec:	06 00 15 02 
  402ef0:	05 00 00 00 	beq $2,$0,402f40 <exit+0x110>
  402ef4:	12 00 00 02 
  402ef8:	05 00 00 00 	beq $2,$20,402f30 <exit+0x100>
  402efc:	0c 00 14 02 
  402f00:	01 00 00 00 	j 402f40 <exit+0x110>
  402f04:	d0 0b 10 00 
  402f08:	28 00 00 00 	lw $2,4($3)
  402f0c:	04 00 02 03 
  402f10:	28 00 00 00 	lw $5,8($3)
  402f14:	08 00 05 03 
  402f18:	42 00 00 00 	addu $4,$0,$19
  402f1c:	00 04 13 00 
  402f20:	04 00 00 00 	jalr $31,$2
  402f24:	00 1f 00 02 
  402f28:	01 00 00 00 	j 402f40 <exit+0x110>
  402f2c:	d0 0b 10 00 
  402f30:	28 00 00 00 	lw $2,4($3)
  402f34:	04 00 02 03 
  402f38:	04 00 00 00 	jalr $31,$2
  402f3c:	00 1f 00 02 
  402f40:	43 00 00 00 	addiu $17,$17,-12
  402f44:	f4 ff 11 11 
  402f48:	42 00 00 00 	addu $2,$0,$16
  402f4c:	00 02 10 00 
  402f50:	43 00 00 00 	addiu $16,$16,-1
  402f54:	ff ff 10 10 
  402f58:	06 00 00 00 	bne $2,$0,402ed8 <exit+0xa8>
  402f5c:	de ff 00 02 
  402f60:	28 00 00 00 	lw $18,0($18)
  402f64:	00 00 12 12 
  402f68:	06 00 00 00 	bne $18,$0,402e98 <exit+0x68>
  402f6c:	ca ff 00 12 
  402f70:	02 00 00 00 	jal 402fd0 <_cleanup>
  402f74:	f4 0b 10 00 
  402f78:	42 00 00 00 	addu $4,$0,$19
  402f7c:	00 04 13 00 
  402f80:	02 00 00 00 	jal 403330 <_exit>
  402f84:	cc 0c 10 00 
  402f88:	28 00 00 00 	lw $31,40($29)
  402f8c:	28 00 1f 1d 
  402f90:	28 00 00 00 	lw $21,36($29)
  402f94:	24 00 15 1d 
  402f98:	28 00 00 00 	lw $20,32($29)
  402f9c:	20 00 14 1d 
  402fa0:	28 00 00 00 	lw $19,28($29)
  402fa4:	1c 00 13 1d 
  402fa8:	28 00 00 00 	lw $18,24($29)
  402fac:	18 00 12 1d 
  402fb0:	28 00 00 00 	lw $17,20($29)
  402fb4:	14 00 11 1d 
  402fb8:	28 00 00 00 	lw $16,16($29)
  402fbc:	10 00 10 1d 
  402fc0:	43 00 00 00 	addiu $29,$29,48
  402fc4:	30 00 1d 1d 
  402fc8:	03 00 00 00 	jr $31
  402fcc:	00 00 00 1f 

00402fd0 <_cleanup>:
  402fd0:	43 00 00 00 	addiu $29,$29,-24
  402fd4:	e8 ff 1d 1d 
  402fd8:	34 00 00 00 	sw $31,16($29)
  402fdc:	10 00 1f 1d 
  402fe0:	42 00 00 00 	addu $4,$0,$0
  402fe4:	00 04 00 00 
  402fe8:	02 00 00 00 	jal 403350 <fclose>
  402fec:	d4 0c 10 00 
  402ff0:	28 00 00 00 	lw $31,16($29)
  402ff4:	10 00 1f 1d 
  402ff8:	43 00 00 00 	addiu $29,$29,24
  402ffc:	18 00 1d 1d 
  403000:	03 00 00 00 	jr $31
  403004:	00 00 00 1f 
	...

00403010 <printf>:
  403010:	34 00 00 00 	sw $5,4($29)
  403014:	04 00 05 1d 
  403018:	42 00 00 00 	addu $5,$0,$4
  40301c:	00 05 04 00 
  403020:	34 00 00 00 	sw $4,0($29)
  403024:	00 00 04 1d 
  403028:	28 00 00 00 	lw $4,-32716($28)
  40302c:	34 80 04 1c 
  403030:	34 00 00 00 	sw $6,8($29)
  403034:	08 00 06 1d 
  403038:	34 00 00 00 	sw $7,12($29)
  40303c:	0c 00 07 1d 
  403040:	43 00 00 00 	addiu $29,$29,-24
  403044:	e8 ff 1d 1d 
  403048:	43 00 00 00 	addiu $6,$29,28
  40304c:	1c 00 06 1d 
  403050:	34 00 00 00 	sw $31,16($29)
  403054:	10 00 1f 1d 
  403058:	02 00 00 00 	jal 4035d0 <vfprintf>
  40305c:	74 0d 10 00 
  403060:	28 00 00 00 	lw $31,16($29)
  403064:	10 00 1f 1d 
  403068:	43 00 00 00 	addiu $29,$29,24
  40306c:	18 00 1d 1d 
  403070:	03 00 00 00 	jr $31
  403074:	00 00 00 1f 
	...

00403080 <atexit>:
  403080:	43 00 00 00 	addiu $29,$29,-24
  403084:	e8 ff 1d 1d 
  403088:	34 00 00 00 	sw $16,16($29)
  40308c:	10 00 10 1d 
  403090:	42 00 00 00 	addu $16,$0,$4
  403094:	00 10 04 00 
  403098:	34 00 00 00 	sw $31,20($29)
  40309c:	14 00 1f 1d 
  4030a0:	02 00 00 00 	jal 403108 <__new_exitfn>
  4030a4:	42 0c 10 00 
  4030a8:	42 00 00 00 	addu $4,$0,$2
  4030ac:	00 04 02 00 
  4030b0:	05 00 00 00 	beq $4,$0,4030e0 <atexit+0x60>
  4030b4:	0a 00 00 04 
  4030b8:	42 00 00 00 	addu $2,$0,$0
  4030bc:	00 02 00 00 
  4030c0:	43 00 00 00 	addiu $3,$0,2
  4030c4:	02 00 03 00 
  4030c8:	34 00 00 00 	sw $3,0($4)
  4030cc:	00 00 03 04 
  4030d0:	34 00 00 00 	sw $16,4($4)
  4030d4:	04 00 10 04 
  4030d8:	01 00 00 00 	j 4030e8 <atexit+0x68>
  4030dc:	3a 0c 10 00 
  4030e0:	43 00 00 00 	addiu $2,$0,-1
  4030e4:	ff ff 02 00 
  4030e8:	28 00 00 00 	lw $31,20($29)
  4030ec:	14 00 1f 1d 
  4030f0:	28 00 00 00 	lw $16,16($29)
  4030f4:	10 00 10 1d 
  4030f8:	43 00 00 00 	addiu $29,$29,24
  4030fc:	18 00 1d 1d 
  403100:	03 00 00 00 	jr $31
  403104:	00 00 00 1f 

00403108 <__new_exitfn>:
  403108:	28 00 00 00 	lw $7,-32704($28)
  40310c:	40 80 07 1c 
  403110:	43 00 00 00 	addiu $29,$29,-32
  403114:	e0 ff 1d 1d 
  403118:	34 00 00 00 	sw $31,24($29)
  40311c:	18 00 1f 1d 
  403120:	05 00 00 00 	beq $7,$0,4031c0 <__new_exitfn+0xb8>
  403124:	26 00 00 07 
  403128:	28 00 00 00 	lw $2,4($7)
  40312c:	04 00 02 07 
  403130:	42 00 00 00 	addu $4,$0,$0
  403134:	00 04 00 00 
  403138:	05 00 00 00 	beq $2,$0,403198 <__new_exitfn+0x90>
  40313c:	16 00 00 02 
  403140:	42 00 00 00 	addu $8,$0,$2
  403144:	00 08 02 00 
  403148:	42 00 00 00 	addu $3,$0,$7
  40314c:	00 03 07 00 
  403150:	42 00 00 00 	addu $6,$0,$0
  403154:	00 06 00 00 
  403158:	28 00 00 00 	lw $2,8($3)
  40315c:	08 00 02 03 
  403160:	42 00 00 00 	addu $5,$0,$6
  403164:	00 05 06 00 
  403168:	05 00 00 00 	beq $2,$0,403218 <__new_exitfn+0x110>
  40316c:	2a 00 00 02 
  403170:	43 00 00 00 	addiu $3,$3,12
  403174:	0c 00 03 03 
  403178:	43 00 00 00 	addiu $6,$5,12
  40317c:	0c 00 06 05 
  403180:	43 00 00 00 	addiu $4,$4,1
  403184:	01 00 04 04 
  403188:	5d 00 00 00 	sltu $2,$4,$8
  40318c:	00 02 08 04 
  403190:	06 00 00 00 	bne $2,$0,403158 <__new_exitfn+0x50>
  403194:	f0 ff 00 02 
  403198:	28 00 00 00 	lw $3,4($7)
  40319c:	04 00 03 07 
  4031a0:	5e 00 00 00 	sltiu $2,$3,32
  4031a4:	20 00 02 03 
  4031a8:	06 00 00 00 	bne $2,$0,403230 <__new_exitfn+0x128>
  4031ac:	20 00 00 02 
  4031b0:	28 00 00 00 	lw $7,0($7)
  4031b4:	00 00 07 07 
  4031b8:	06 00 00 00 	bne $7,$0,403128 <__new_exitfn+0x20>
  4031bc:	da ff 00 07 
  4031c0:	43 00 00 00 	addiu $4,$0,392
  4031c4:	88 01 04 00 
  4031c8:	02 00 00 00 	jal 4068e8 <malloc>
  4031cc:	3a 1a 10 00 
  4031d0:	42 00 00 00 	addu $7,$0,$2
  4031d4:	00 07 02 00 
  4031d8:	05 00 00 00 	beq $7,$0,403270 <__new_exitfn+0x168>
  4031dc:	24 00 00 07 
  4031e0:	28 00 00 00 	lw $4,-32704($28)
  4031e4:	40 80 04 1c 
  4031e8:	43 00 00 00 	addiu $2,$7,8
  4031ec:	08 00 02 07 
  4031f0:	43 00 00 00 	addiu $3,$0,1
  4031f4:	01 00 03 00 
  4031f8:	34 00 00 00 	sw $3,4($7)
  4031fc:	04 00 03 07 
  403200:	34 00 00 00 	sw $4,0($7)
  403204:	00 00 04 07 
  403208:	34 00 00 00 	sw $7,-32704($28)
  40320c:	40 80 07 1c 
  403210:	01 00 00 00 	j 403278 <__new_exitfn+0x170>
  403214:	9e 0c 10 00 
  403218:	43 00 00 00 	addiu $2,$6,8
  40321c:	08 00 02 06 
  403220:	42 00 00 00 	addu $2,$7,$2
  403224:	00 02 02 07 
  403228:	01 00 00 00 	j 403278 <__new_exitfn+0x170>
  40322c:	9e 0c 10 00 
  403230:	43 00 00 00 	addiu $2,$3,1
  403234:	01 00 02 03 
  403238:	34 00 00 00 	sw $2,4($7)
  40323c:	04 00 02 07 
  403240:	55 00 00 00 	sll $2,$3,0x1
  403244:	01 02 03 00 
  403248:	42 00 00 00 	addu $2,$2,$3
  40324c:	00 02 03 02 
  403250:	55 00 00 00 	sll $2,$2,0x2
  403254:	02 02 02 00 
  403258:	43 00 00 00 	addiu $2,$2,8
  40325c:	08 00 02 02 
  403260:	42 00 00 00 	addu $2,$7,$2
  403264:	00 02 02 07 
  403268:	01 00 00 00 	j 403278 <__new_exitfn+0x170>
  40326c:	9e 0c 10 00 
  403270:	42 00 00 00 	addu $2,$0,$0
  403274:	00 02 00 00 
  403278:	28 00 00 00 	lw $31,24($29)
  40327c:	18 00 1f 1d 
  403280:	43 00 00 00 	addiu $29,$29,32
  403284:	20 00 1d 1d 
  403288:	03 00 00 00 	jr $31
  40328c:	00 00 00 1f 

00403290 <__init_misc>:
  403290:	43 00 00 00 	addiu $29,$29,-24
  403294:	e8 ff 1d 1d 
  403298:	34 00 00 00 	sw $16,16($29)
  40329c:	10 00 10 1d 
  4032a0:	42 00 00 00 	addu $16,$0,$5
  4032a4:	00 10 05 00 
  4032a8:	34 00 00 00 	sw $31,20($29)
  4032ac:	14 00 1f 1d 
  4032b0:	05 00 00 00 	beq $16,$0,403300 <__init_misc+0x70>
  4032b4:	12 00 00 10 
  4032b8:	28 00 00 00 	lw $4,0($16)
  4032bc:	00 00 04 10 
  4032c0:	05 00 00 00 	beq $4,$0,403300 <__init_misc+0x70>
  4032c4:	0e 00 00 04 
  4032c8:	43 00 00 00 	addiu $5,$0,47
  4032cc:	2f 00 05 00 
  4032d0:	02 00 00 00 	jal 407270 <strrchr>
  4032d4:	9c 1c 10 00 
  4032d8:	06 00 00 00 	bne $2,$0,4032f0 <__init_misc+0x60>
  4032dc:	04 00 00 02 
  4032e0:	28 00 00 00 	lw $2,0($16)
  4032e4:	00 00 02 10 
  4032e8:	01 00 00 00 	j 4032f8 <__init_misc+0x68>
  4032ec:	be 0c 10 00 
  4032f0:	43 00 00 00 	addiu $2,$2,1
  4032f4:	01 00 02 02 
  4032f8:	34 00 00 00 	sw $2,-32684($28)
  4032fc:	54 80 02 1c 
  403300:	28 00 00 00 	lw $31,20($29)
  403304:	14 00 1f 1d 
  403308:	28 00 00 00 	lw $16,16($29)
  40330c:	10 00 10 1d 
  403310:	43 00 00 00 	addiu $29,$29,24
  403314:	18 00 1d 1d 
  403318:	03 00 00 00 	jr $31
  40331c:	00 00 00 1f 
  403320:	01 00 00 00 	j 407320 <syscall_error>
  403324:	c8 1c 10 00 
	...

00403330 <_exit>:
  403330:	43 00 00 00 	addiu $2,$0,1
  403334:	01 00 02 00 
  403338:	a0 00 00 00 	syscall 
  40333c:	00 00 00 00 
  403340:	06 00 00 00 	bne $7,$0,403320 <__init_misc+0x90>
  403344:	f6 ff 00 07 
	...

00403350 <fclose>:
  403350:	43 00 00 00 	addiu $29,$29,-32
  403354:	e0 ff 1d 1d 
  403358:	34 00 00 00 	sw $16,16($29)
  40335c:	10 00 10 1d 
  403360:	42 00 00 00 	addu $16,$0,$4
  403364:	00 10 04 00 
  403368:	34 00 00 00 	sw $31,28($29)
  40336c:	1c 00 1f 1d 
  403370:	34 00 00 00 	sw $18,24($29)
  403374:	18 00 12 1d 
  403378:	34 00 00 00 	sw $17,20($29)
  40337c:	14 00 11 1d 
  403380:	06 00 00 00 	bne $16,$0,403418 <fclose+0xc8>
  403384:	24 00 00 10 
  403388:	28 00 00 00 	lw $16,-32708($28)
  40338c:	3c 80 10 1c 
  403390:	05 00 00 00 	beq $16,$0,403408 <fclose+0xb8>
  403394:	1c 00 00 10 
  403398:	a2 00 00 00 	lui $18,65261
  40339c:	ed fe 12 00 
  4033a0:	51 00 00 00 	ori $18,$18,47806
  4033a4:	be ba 12 12 
  4033a8:	a2 00 00 00 	lui $17,65242
  4033ac:	da fe 11 00 
  4033b0:	51 00 00 00 	ori $17,$17,48875
  4033b4:	eb be 11 11 
  4033b8:	28 00 00 00 	lw $2,0($16)
  4033bc:	00 00 02 10 
  4033c0:	06 00 00 00 	bne $2,$18,4033d8 <fclose+0x88>
  4033c4:	04 00 12 02 
  4033c8:	28 00 00 00 	lw $2,4($16)
  4033cc:	04 00 02 10 
  4033d0:	28 00 00 00 	lw $16,0($2)
  4033d4:	00 00 10 02 
  4033d8:	28 00 00 00 	lw $2,0($16)
  4033dc:	00 00 02 10 
  4033e0:	06 00 00 00 	bne $2,$17,4033f8 <fclose+0xa8>
  4033e4:	04 00 11 02 
  4033e8:	42 00 00 00 	addu $4,$0,$16
  4033ec:	00 04 10 00 
  4033f0:	02 00 00 00 	jal 403350 <fclose>
  4033f4:	d4 0c 10 00 
  4033f8:	28 00 00 00 	lw $16,68($16)
  4033fc:	44 00 10 10 
  403400:	06 00 00 00 	bne $16,$0,4033b8 <fclose+0x68>
  403404:	ec ff 00 10 
  403408:	42 00 00 00 	addu $2,$0,$0
  40340c:	00 02 00 00 
  403410:	01 00 00 00 	j 403598 <fclose+0x248>
  403414:	66 0d 10 00 
  403418:	28 00 00 00 	lw $3,0($16)
  40341c:	00 00 03 10 
  403420:	a2 00 00 00 	lui $2,65261
  403424:	ed fe 02 00 
  403428:	51 00 00 00 	ori $2,$2,47806
  40342c:	be ba 02 02 
  403430:	06 00 00 00 	bne $3,$2,403448 <fclose+0xf8>
  403434:	04 00 02 03 
  403438:	28 00 00 00 	lw $2,4($16)
  40343c:	04 00 02 10 
  403440:	28 00 00 00 	lw $16,0($2)
  403444:	00 00 10 02 
  403448:	28 00 00 00 	lw $3,0($16)
  40344c:	00 00 03 10 
  403450:	a2 00 00 00 	lui $2,65242
  403454:	da fe 02 00 
  403458:	51 00 00 00 	ori $2,$2,48875
  40345c:	eb be 02 02 
  403460:	05 00 00 00 	beq $3,$2,403488 <fclose+0x138>
  403464:	08 00 02 03 
  403468:	43 00 00 00 	addiu $2,$0,22
  40346c:	16 00 02 00 
  403470:	34 00 00 00 	sw $2,-32416($28)
  403474:	60 81 02 1c 
  403478:	43 00 00 00 	addiu $2,$0,-1
  40347c:	ff ff 02 00 
  403480:	01 00 00 00 	j 403598 <fclose+0x248>
  403484:	66 0d 10 00 
  403488:	28 00 00 00 	lw $2,28($16)
  40348c:	1c 00 02 10 
  403490:	4f 00 00 00 	andi $2,$2,2
  403494:	02 00 02 02 
  403498:	05 00 00 00 	beq $2,$0,4034d8 <fclose+0x188>
  40349c:	0e 00 00 02 
  4034a0:	42 00 00 00 	addu $4,$0,$16
  4034a4:	00 04 10 00 
  4034a8:	43 00 00 00 	addiu $5,$0,-1
  4034ac:	ff ff 05 00 
  4034b0:	02 00 00 00 	jal 408380 <__flshfp>
  4034b4:	e0 20 10 00 
  4034b8:	43 00 00 00 	addiu $3,$0,-1
  4034bc:	ff ff 03 00 
  4034c0:	06 00 00 00 	bne $2,$3,4034d8 <fclose+0x188>
  4034c4:	04 00 03 02 
  4034c8:	43 00 00 00 	addiu $2,$0,-1
  4034cc:	ff ff 02 00 
  4034d0:	01 00 00 00 	j 403598 <fclose+0x248>
  4034d4:	66 0d 10 00 
  4034d8:	28 00 00 00 	lw $4,16($16)
  4034dc:	10 00 04 10 
  4034e0:	05 00 00 00 	beq $4,$0,403508 <fclose+0x1b8>
  4034e4:	08 00 00 04 
  4034e8:	28 00 00 00 	lw $2,76($16)
  4034ec:	4c 00 02 10 
  4034f0:	4f 00 00 00 	andi $2,$2,2048
  4034f4:	00 08 02 02 
  4034f8:	06 00 00 00 	bne $2,$0,403508 <fclose+0x1b8>
  4034fc:	02 00 00 02 
  403500:	02 00 00 00 	jal 409770 <free>
  403504:	dc 25 10 00 
  403508:	28 00 00 00 	lw $2,44($16)
  40350c:	2c 00 02 10 
  403510:	05 00 00 00 	beq $2,$0,403538 <fclose+0x1e8>
  403514:	08 00 00 02 
  403518:	28 00 00 00 	lw $4,24($16)
  40351c:	18 00 04 10 
  403520:	04 00 00 00 	jalr $31,$2
  403524:	00 1f 00 02 
  403528:	42 00 00 00 	addu $17,$0,$2
  40352c:	00 11 02 00 
  403530:	01 00 00 00 	j 403580 <fclose+0x230>
  403534:	60 0d 10 00 
  403538:	28 00 00 00 	lw $2,76($16)
  40353c:	4c 00 02 10 
  403540:	4f 00 00 00 	andi $2,$2,16384
  403544:	00 40 02 02 
  403548:	06 00 00 00 	bne $2,$0,403578 <fclose+0x228>
  40354c:	0a 00 00 02 
  403550:	28 00 00 00 	lw $4,24($16)
  403554:	18 00 04 10 
  403558:	05 00 00 00 	beq $4,$0,403578 <fclose+0x228>
  40355c:	06 00 00 04 
  403560:	02 00 00 00 	jal 4099b0 <__stdio_close>
  403564:	6c 26 10 00 
  403568:	42 00 00 00 	addu $17,$0,$2
  40356c:	00 11 02 00 
  403570:	01 00 00 00 	j 403580 <fclose+0x230>
  403574:	60 0d 10 00 
  403578:	42 00 00 00 	addu $17,$0,$0
  40357c:	00 11 00 00 
  403580:	42 00 00 00 	addu $4,$0,$16
  403584:	00 04 10 00 
  403588:	02 00 00 00 	jal 408e48 <__invalidate>
  40358c:	92 23 10 00 
  403590:	59 00 00 00 	sra $2,$17,0x1f
  403594:	1f 02 11 00 
  403598:	28 00 00 00 	lw $31,28($29)
  40359c:	1c 00 1f 1d 
  4035a0:	28 00 00 00 	lw $18,24($29)
  4035a4:	18 00 12 1d 
  4035a8:	28 00 00 00 	lw $17,20($29)
  4035ac:	14 00 11 1d 
  4035b0:	28 00 00 00 	lw $16,16($29)
  4035b4:	10 00 10 1d 
  4035b8:	43 00 00 00 	addiu $29,$29,32
  4035bc:	20 00 1d 1d 
  4035c0:	03 00 00 00 	jr $31
  4035c4:	00 00 00 1f 
	...

004035d0 <vfprintf>:
  4035d0:	43 00 00 00 	addiu $29,$29,-2488
  4035d4:	48 f6 1d 1d 
  4035d8:	34 00 00 00 	sw $20,2464($29)
  4035dc:	a0 09 14 1d 
  4035e0:	42 00 00 00 	addu $20,$0,$4
  4035e4:	00 14 04 00 
  4035e8:	34 00 00 00 	sw $16,2448($29)
  4035ec:	90 09 10 1d 
  4035f0:	42 00 00 00 	addu $16,$0,$5
  4035f4:	00 10 05 00 
  4035f8:	34 00 00 00 	sw $21,2468($29)
  4035fc:	a4 09 15 1d 
  403600:	42 00 00 00 	addu $21,$0,$0
  403604:	00 15 00 00 
  403608:	34 00 00 00 	sw $31,2484($29)
  40360c:	b4 09 1f 1d 
  403610:	34 00 00 00 	sw $30,2480($29)
  403614:	b0 09 1e 1d 
  403618:	34 00 00 00 	sw $23,2476($29)
  40361c:	ac 09 17 1d 
  403620:	34 00 00 00 	sw $22,2472($29)
  403624:	a8 09 16 1d 
  403628:	34 00 00 00 	sw $19,2460($29)
  40362c:	9c 09 13 1d 
  403630:	34 00 00 00 	sw $18,2456($29)
  403634:	98 09 12 1d 
  403638:	34 00 00 00 	sw $17,2452($29)
  40363c:	94 09 11 1d 
  403640:	34 00 00 00 	sw $6,2496($29)
  403644:	c0 09 06 1d 
  403648:	05 00 00 00 	beq $20,$0,4036c0 <vfprintf+0xf0>
  40364c:	1c 00 00 14 
  403650:	28 00 00 00 	lw $3,0($20)
  403654:	00 00 03 14 
  403658:	a2 00 00 00 	lui $2,65261
  40365c:	ed fe 02 00 
  403660:	51 00 00 00 	ori $2,$2,47806
  403664:	be ba 02 02 
  403668:	06 00 00 00 	bne $3,$2,403680 <vfprintf+0xb0>
  40366c:	04 00 02 03 
  403670:	28 00 00 00 	lw $2,4($20)
  403674:	04 00 02 14 
  403678:	28 00 00 00 	lw $20,0($2)
  40367c:	00 00 14 02 
  403680:	28 00 00 00 	lw $3,0($20)
  403684:	00 00 03 14 
  403688:	a2 00 00 00 	lui $2,65242
  40368c:	da fe 02 00 
  403690:	51 00 00 00 	ori $2,$2,48875
  403694:	eb be 02 02 
  403698:	06 00 00 00 	bne $3,$2,4036c0 <vfprintf+0xf0>
  40369c:	08 00 02 03 
  4036a0:	28 00 00 00 	lw $2,28($20)
  4036a4:	1c 00 02 14 
  4036a8:	4f 00 00 00 	andi $2,$2,2
  4036ac:	02 00 02 02 
  4036b0:	05 00 00 00 	beq $2,$0,4036c0 <vfprintf+0xf0>
  4036b4:	02 00 00 02 
  4036b8:	06 00 00 00 	bne $16,$0,4036e0 <vfprintf+0x110>
  4036bc:	08 00 00 10 
  4036c0:	43 00 00 00 	addiu $2,$0,22
  4036c4:	16 00 02 00 
  4036c8:	34 00 00 00 	sw $2,-32416($28)
  4036cc:	60 81 02 1c 
  4036d0:	43 00 00 00 	addiu $2,$0,-1
  4036d4:	ff ff 02 00 
  4036d8:	01 00 00 00 	j 405ae8 <vfprintf+0x2518>
  4036dc:	ba 16 10 00 
  4036e0:	28 00 00 00 	lw $2,76($20)
  4036e4:	4c 00 02 14 
  4036e8:	4f 00 00 00 	andi $2,$2,16384
  4036ec:	00 40 02 02 
  4036f0:	06 00 00 00 	bne $2,$0,403720 <vfprintf+0x150>
  4036f4:	0a 00 00 02 
  4036f8:	42 00 00 00 	addu $4,$0,$20
  4036fc:	00 04 14 00 
  403700:	43 00 00 00 	addiu $5,$0,-1
  403704:	ff ff 05 00 
  403708:	02 00 00 00 	jal 408380 <__flshfp>
  40370c:	e0 20 10 00 
  403710:	43 00 00 00 	addiu $3,$0,-1
  403714:	ff ff 03 00 
  403718:	05 00 00 00 	beq $2,$3,4036d0 <vfprintf+0x100>
  40371c:	ec ff 03 02 
  403720:	28 00 00 00 	lw $2,16($20)
  403724:	10 00 02 14 
  403728:	5e 00 00 00 	sltiu $2,$2,1
  40372c:	01 00 02 02 
  403730:	30 00 00 00 	sb $2,2336($29)
  403734:	20 09 02 1d 
  403738:	05 00 00 00 	beq $2,$0,403790 <vfprintf+0x1c0>
  40373c:	14 00 00 02 
  403740:	43 00 00 00 	addiu $2,$29,16
  403744:	10 00 02 1d 
  403748:	34 00 00 00 	sw $2,16($20)
  40374c:	10 00 02 14 
  403750:	28 00 00 00 	lw $3,16($20)
  403754:	10 00 03 14 
  403758:	28 00 00 00 	lw $4,16($20)
  40375c:	10 00 04 14 
  403760:	34 00 00 00 	sw $2,4($20)
  403764:	04 00 02 14 
  403768:	43 00 00 00 	addiu $2,$0,1024
  40376c:	00 04 02 00 
  403770:	34 00 00 00 	sw $2,20($20)
  403774:	14 00 02 14 
  403778:	43 00 00 00 	addiu $3,$3,1024
  40377c:	00 04 03 03 
  403780:	34 00 00 00 	sw $3,12($20)
  403784:	0c 00 03 14 
  403788:	34 00 00 00 	sw $4,8($20)
  40378c:	08 00 04 14 
  403790:	42 00 00 00 	addu $4,$0,$0
  403794:	00 04 00 00 
  403798:	42 00 00 00 	addu $5,$0,$0
  40379c:	00 05 00 00 
  4037a0:	42 00 00 00 	addu $6,$0,$0
  4037a4:	00 06 00 00 
  4037a8:	02 00 00 00 	jal 409ee0 <mbtowc>
  4037ac:	b8 27 10 00 
  4037b0:	42 00 00 00 	addu $8,$0,$16
  4037b4:	00 08 10 00 
  4037b8:	01 00 00 00 	j 405a68 <vfprintf+0x2498>
  4037bc:	9a 16 10 00 
  4037c0:	4f 00 00 00 	andi $2,$3,128
  4037c4:	80 00 02 03 
  4037c8:	05 00 00 00 	beq $2,$0,403900 <vfprintf+0x330>
  4037cc:	4c 00 00 02 
  4037d0:	42 00 00 00 	addu $4,$0,$8
  4037d4:	00 04 08 00 
  4037d8:	34 00 00 00 	sw $8,2432($29)
  4037dc:	80 09 08 1d 
  4037e0:	02 00 00 00 	jal 40a110 <strlen>
  4037e4:	44 28 10 00 
  4037e8:	28 00 00 00 	lw $8,2432($29)
  4037ec:	80 09 08 1d 
  4037f0:	42 00 00 00 	addu $4,$0,$0
  4037f4:	00 04 00 00 
  4037f8:	42 00 00 00 	addu $6,$0,$2
  4037fc:	00 06 02 00 
  403800:	42 00 00 00 	addu $5,$0,$8
  403804:	00 05 08 00 
  403808:	02 00 00 00 	jal 409ee0 <mbtowc>
  40380c:	b8 27 10 00 
  403810:	28 00 00 00 	lw $8,2432($29)
  403814:	80 09 08 1d 
  403818:	42 00 00 00 	addu $16,$0,$2
  40381c:	00 10 02 00 
  403820:	07 00 00 00 	blez $16,403900 <vfprintf+0x330>
  403824:	36 00 00 10 
  403828:	43 00 00 00 	addiu $16,$16,-1
  40382c:	ff ff 10 10 
  403830:	20 00 00 00 	lb $5,0($8)
  403834:	00 00 05 08 
  403838:	28 00 00 00 	lw $3,4($20)
  40383c:	04 00 03 14 
  403840:	28 00 00 00 	lw $2,12($20)
  403844:	0c 00 02 14 
  403848:	43 00 00 00 	addiu $8,$8,1
  40384c:	01 00 08 08 
  403850:	5d 00 00 00 	sltu $2,$3,$2
  403854:	00 02 02 03 
  403858:	05 00 00 00 	beq $2,$0,4038a0 <vfprintf+0x2d0>
  40385c:	10 00 00 02 
  403860:	43 00 00 00 	addiu $2,$3,1
  403864:	01 00 02 03 
  403868:	34 00 00 00 	sw $2,4($20)
  40386c:	04 00 02 14 
  403870:	42 00 00 00 	addu $2,$0,$5
  403874:	00 02 05 00 
  403878:	30 00 00 00 	sb $2,0($3)
  40387c:	00 00 02 03 
  403880:	4f 00 00 00 	andi $2,$2,255
  403884:	ff 00 02 02 
  403888:	43 00 00 00 	addiu $15,$0,-1
  40388c:	ff ff 0f 00 
  403890:	05 00 00 00 	beq $2,$15,403b48 <vfprintf+0x578>
  403894:	ac 00 0f 02 
  403898:	01 00 00 00 	j 4038d8 <vfprintf+0x308>
  40389c:	36 0e 10 00 
  4038a0:	42 00 00 00 	addu $4,$0,$20
  4038a4:	00 04 14 00 
  4038a8:	4f 00 00 00 	andi $5,$5,255
  4038ac:	ff 00 05 05 
  4038b0:	34 00 00 00 	sw $8,2432($29)
  4038b4:	80 09 08 1d 
  4038b8:	02 00 00 00 	jal 408380 <__flshfp>
  4038bc:	e0 20 10 00 
  4038c0:	28 00 00 00 	lw $8,2432($29)
  4038c4:	80 09 08 1d 
  4038c8:	43 00 00 00 	addiu $14,$0,-1
  4038cc:	ff ff 0e 00 
  4038d0:	05 00 00 00 	beq $2,$14,403b48 <vfprintf+0x578>
  4038d4:	9c 00 0e 02 
  4038d8:	43 00 00 00 	addiu $21,$21,1
  4038dc:	01 00 15 15 
  4038e0:	42 00 00 00 	addu $2,$0,$16
  4038e4:	00 02 10 00 
  4038e8:	43 00 00 00 	addiu $16,$16,-1
  4038ec:	ff ff 10 10 
  4038f0:	08 00 00 00 	bgtz $2,403830 <vfprintf+0x260>
  4038f4:	ce ff 00 02 
  4038f8:	01 00 00 00 	j 405a68 <vfprintf+0x2498>
  4038fc:	9a 16 10 00 
  403900:	20 00 00 00 	lb $3,0($8)
  403904:	00 00 03 08 
  403908:	43 00 00 00 	addiu $2,$0,37
  40390c:	25 00 02 00 
  403910:	05 00 00 00 	beq $3,$2,403ad0 <vfprintf+0x500>
  403914:	6e 00 02 03 
  403918:	43 00 00 00 	addiu $16,$8,1
  40391c:	01 00 10 08 
  403920:	42 00 00 00 	addu $4,$0,$16
  403924:	00 04 10 00 
  403928:	43 00 00 00 	addiu $5,$0,37
  40392c:	25 00 05 00 
  403930:	34 00 00 00 	sw $8,2432($29)
  403934:	80 09 08 1d 
  403938:	02 00 00 00 	jal 40a260 <strchr>
  40393c:	98 28 10 00 
  403940:	28 00 00 00 	lw $8,2432($29)
  403944:	80 09 08 1d 
  403948:	42 00 00 00 	addu $17,$0,$2
  40394c:	00 11 02 00 
  403950:	06 00 00 00 	bne $17,$0,403988 <vfprintf+0x3b8>
  403954:	0c 00 00 11 
  403958:	42 00 00 00 	addu $4,$0,$16
  40395c:	00 04 10 00 
  403960:	42 00 00 00 	addu $5,$0,$0
  403964:	00 05 00 00 
  403968:	34 00 00 00 	sw $8,2432($29)
  40396c:	80 09 08 1d 
  403970:	02 00 00 00 	jal 40a260 <strchr>
  403974:	98 28 10 00 
  403978:	42 00 00 00 	addu $17,$0,$2
  40397c:	00 11 02 00 
  403980:	28 00 00 00 	lw $8,2432($29)
  403984:	80 09 08 1d 
  403988:	45 00 00 00 	subu $16,$17,$8
  40398c:	00 10 08 11 
  403990:	5c 00 00 00 	slti $2,$16,21
  403994:	15 00 02 10 
  403998:	06 00 00 00 	bne $2,$0,4039f8 <vfprintf+0x428>
  40399c:	16 00 00 02 
  4039a0:	42 00 00 00 	addu $4,$0,$8
  4039a4:	00 04 08 00 
  4039a8:	43 00 00 00 	addiu $5,$0,1
  4039ac:	01 00 05 00 
  4039b0:	42 00 00 00 	addu $6,$0,$16
  4039b4:	00 06 10 00 
  4039b8:	42 00 00 00 	addu $7,$0,$20
  4039bc:	00 07 14 00 
  4039c0:	34 00 00 00 	sw $8,2432($29)
  4039c4:	80 09 08 1d 
  4039c8:	02 00 00 00 	jal 40a400 <fwrite>
  4039cc:	00 29 10 00 
  4039d0:	28 00 00 00 	lw $8,2432($29)
  4039d4:	80 09 08 1d 
  4039d8:	42 00 00 00 	addu $21,$21,$2
  4039dc:	00 15 02 15 
  4039e0:	06 00 00 00 	bne $2,$16,405a80 <vfprintf+0x24b0>
  4039e4:	26 08 10 02 
  4039e8:	42 00 00 00 	addu $8,$8,$2
  4039ec:	00 08 02 08 
  4039f0:	01 00 00 00 	j 405a68 <vfprintf+0x2498>
  4039f4:	9a 16 10 00 
  4039f8:	5d 00 00 00 	sltu $2,$8,$17
  4039fc:	00 02 11 08 
  403a00:	05 00 00 00 	beq $2,$0,405a68 <vfprintf+0x2498>
  403a04:	18 08 00 02 
  403a08:	20 00 00 00 	lb $5,0($8)
  403a0c:	00 00 05 08 
  403a10:	28 00 00 00 	lw $3,4($20)
  403a14:	04 00 03 14 
  403a18:	28 00 00 00 	lw $2,12($20)
  403a1c:	0c 00 02 14 
  403a20:	43 00 00 00 	addiu $8,$8,1
  403a24:	01 00 08 08 
  403a28:	5d 00 00 00 	sltu $2,$3,$2
  403a2c:	00 02 02 03 
  403a30:	05 00 00 00 	beq $2,$0,403a78 <vfprintf+0x4a8>
  403a34:	10 00 00 02 
  403a38:	43 00 00 00 	addiu $2,$3,1
  403a3c:	01 00 02 03 
  403a40:	34 00 00 00 	sw $2,4($20)
  403a44:	04 00 02 14 
  403a48:	42 00 00 00 	addu $2,$0,$5
  403a4c:	00 02 05 00 
  403a50:	30 00 00 00 	sb $2,0($3)
  403a54:	00 00 02 03 
  403a58:	4f 00 00 00 	andi $2,$2,255
  403a5c:	ff 00 02 02 
  403a60:	43 00 00 00 	addiu $15,$0,-1
  403a64:	ff ff 0f 00 
  403a68:	05 00 00 00 	beq $2,$15,403b48 <vfprintf+0x578>
  403a6c:	36 00 0f 02 
  403a70:	01 00 00 00 	j 403ab0 <vfprintf+0x4e0>
  403a74:	ac 0e 10 00 
  403a78:	42 00 00 00 	addu $4,$0,$20
  403a7c:	00 04 14 00 
  403a80:	4f 00 00 00 	andi $5,$5,255
  403a84:	ff 00 05 05 
  403a88:	34 00 00 00 	sw $8,2432($29)
  403a8c:	80 09 08 1d 
  403a90:	02 00 00 00 	jal 408380 <__flshfp>
  403a94:	e0 20 10 00 
  403a98:	28 00 00 00 	lw $8,2432($29)
  403a9c:	80 09 08 1d 
  403aa0:	43 00 00 00 	addiu $14,$0,-1
  403aa4:	ff ff 0e 00 
  403aa8:	05 00 00 00 	beq $2,$14,403b48 <vfprintf+0x578>
  403aac:	26 00 0e 02 
  403ab0:	43 00 00 00 	addiu $21,$21,1
  403ab4:	01 00 15 15 
  403ab8:	5d 00 00 00 	sltu $2,$8,$17
  403abc:	00 02 11 08 
  403ac0:	06 00 00 00 	bne $2,$0,403a08 <vfprintf+0x438>
  403ac4:	d0 ff 00 02 
  403ac8:	01 00 00 00 	j 405a68 <vfprintf+0x2498>
  403acc:	9a 16 10 00 
  403ad0:	43 00 00 00 	addiu $8,$8,1
  403ad4:	01 00 08 08 
  403ad8:	20 00 00 00 	lb $2,0($8)
  403adc:	00 00 02 08 
  403ae0:	06 00 00 00 	bne $2,$3,403b88 <vfprintf+0x5b8>
  403ae4:	28 00 03 02 
  403ae8:	43 00 00 00 	addiu $8,$8,1
  403aec:	01 00 08 08 
  403af0:	28 00 00 00 	lw $3,4($20)
  403af4:	04 00 03 14 
  403af8:	28 00 00 00 	lw $2,12($20)
  403afc:	0c 00 02 14 
  403b00:	5d 00 00 00 	sltu $2,$3,$2
  403b04:	00 02 02 03 
  403b08:	06 00 00 00 	bne $2,$0,403b58 <vfprintf+0x588>
  403b0c:	12 00 00 02 
  403b10:	42 00 00 00 	addu $4,$0,$20
  403b14:	00 04 14 00 
  403b18:	43 00 00 00 	addiu $5,$0,37
  403b1c:	25 00 05 00 
  403b20:	34 00 00 00 	sw $8,2432($29)
  403b24:	80 09 08 1d 
  403b28:	02 00 00 00 	jal 408380 <__flshfp>
  403b2c:	e0 20 10 00 
  403b30:	28 00 00 00 	lw $8,2432($29)
  403b34:	80 09 08 1d 
  403b38:	43 00 00 00 	addiu $15,$0,-1
  403b3c:	ff ff 0f 00 
  403b40:	06 00 00 00 	bne $2,$15,403b78 <vfprintf+0x5a8>
  403b44:	0c 00 0f 02 
  403b48:	43 00 00 00 	addiu $21,$0,-1
  403b4c:	ff ff 15 00 
  403b50:	01 00 00 00 	j 405a80 <vfprintf+0x24b0>
  403b54:	a0 16 10 00 
  403b58:	43 00 00 00 	addiu $2,$3,1
  403b5c:	01 00 02 03 
  403b60:	34 00 00 00 	sw $2,4($20)
  403b64:	04 00 02 14 
  403b68:	43 00 00 00 	addiu $2,$0,37
  403b6c:	25 00 02 00 
  403b70:	30 00 00 00 	sb $2,0($3)
  403b74:	00 00 02 03 
  403b78:	43 00 00 00 	addiu $21,$21,1
  403b7c:	01 00 15 15 
  403b80:	01 00 00 00 	j 405a68 <vfprintf+0x2498>
  403b84:	9a 16 10 00 
  403b88:	42 00 00 00 	addu $13,$0,$0
  403b8c:	00 0d 00 00 
  403b90:	42 00 00 00 	addu $12,$0,$0
  403b94:	00 0c 00 00 
  403b98:	43 00 00 00 	addiu $14,$0,32
  403b9c:	20 00 0e 00 
  403ba0:	43 00 00 00 	addiu $7,$0,43
  403ba4:	2b 00 07 00 
  403ba8:	43 00 00 00 	addiu $6,$0,45
  403bac:	2d 00 06 00 
  403bb0:	43 00 00 00 	addiu $5,$0,35
  403bb4:	23 00 05 00 
  403bb8:	43 00 00 00 	addiu $4,$0,48
  403bbc:	30 00 04 00 
  403bc0:	a2 00 00 00 	lui $9,4096
  403bc4:	00 10 09 00 
  403bc8:	43 00 00 00 	addiu $9,$9,600
  403bcc:	58 02 09 09 
  403bd0:	43 00 00 00 	addiu $15,$0,32
  403bd4:	20 00 0f 00 
  403bd8:	30 00 00 00 	sb $0,2360($29)
  403bdc:	38 09 00 1d 
  403be0:	30 00 00 00 	sb $0,2352($29)
  403be4:	30 09 00 1d 
  403be8:	30 00 00 00 	sb $14,2368($29)
  403bec:	40 09 0e 1d 
  403bf0:	01 00 00 00 	j 403cc0 <vfprintf+0x6f0>
  403bf4:	30 0f 10 00 
  403bf8:	22 00 00 00 	lbu $2,0($8)
  403bfc:	00 00 02 08 
  403c00:	43 00 00 00 	addiu $8,$8,1
  403c04:	01 00 08 08 
  403c08:	43 00 00 00 	addiu $2,$2,-32
  403c0c:	e0 ff 02 02 
  403c10:	55 00 00 00 	sll $2,$2,0x18
  403c14:	18 02 02 00 
  403c18:	59 00 00 00 	sra $3,$2,0x18
  403c1c:	18 03 02 00 
  403c20:	5e 00 00 00 	sltiu $2,$3,17
  403c24:	11 00 02 03 
  403c28:	05 00 00 00 	beq $2,$0,403cb0 <vfprintf+0x6e0>
  403c2c:	20 00 00 02 
  403c30:	55 00 00 00 	sll $2,$3,0x2
  403c34:	02 02 03 00 
  403c38:	42 00 00 00 	addu $2,$2,$9
  403c3c:	00 02 09 02 
  403c40:	28 00 00 00 	lw $2,0($2)
  403c44:	00 00 02 02 
  403c48:	03 00 00 00 	jr $2
  403c4c:	00 00 00 02 
  403c50:	43 00 00 00 	addiu $12,$0,1
  403c54:	01 00 0c 00 
  403c58:	01 00 00 00 	j 403cb0 <vfprintf+0x6e0>
  403c5c:	2c 0f 10 00 
  403c60:	43 00 00 00 	addiu $13,$0,1
  403c64:	01 00 0d 00 
  403c68:	01 00 00 00 	j 403cb0 <vfprintf+0x6e0>
  403c6c:	2c 0f 10 00 
  403c70:	43 00 00 00 	addiu $14,$0,1
  403c74:	01 00 0e 00 
  403c78:	30 00 00 00 	sb $14,2352($29)
  403c7c:	30 09 0e 1d 
  403c80:	01 00 00 00 	j 403cb0 <vfprintf+0x6e0>
  403c84:	2c 0f 10 00 
  403c88:	43 00 00 00 	addiu $15,$0,1
  403c8c:	01 00 0f 00 
  403c90:	30 00 00 00 	sb $15,2360($29)
  403c94:	38 09 0f 1d 
  403c98:	01 00 00 00 	j 403cb0 <vfprintf+0x6e0>
  403c9c:	2c 0f 10 00 
  403ca0:	43 00 00 00 	addiu $14,$0,48
  403ca4:	30 00 0e 00 
  403ca8:	30 00 00 00 	sb $14,2368($29)
  403cac:	40 09 0e 1d 
  403cb0:	20 00 00 00 	lb $2,0($8)
  403cb4:	00 00 02 08 
  403cb8:	43 00 00 00 	addiu $15,$0,32
  403cbc:	20 00 0f 00 
  403cc0:	05 00 00 00 	beq $2,$15,403bf8 <vfprintf+0x628>
  403cc4:	cc ff 0f 02 
  403cc8:	05 00 00 00 	beq $2,$7,403bf8 <vfprintf+0x628>
  403ccc:	ca ff 07 02 
  403cd0:	05 00 00 00 	beq $2,$6,403bf8 <vfprintf+0x628>
  403cd4:	c8 ff 06 02 
  403cd8:	05 00 00 00 	beq $2,$5,403bf8 <vfprintf+0x628>
  403cdc:	c6 ff 05 02 
  403ce0:	05 00 00 00 	beq $2,$4,403bf8 <vfprintf+0x628>
  403ce4:	c4 ff 04 02 
  403ce8:	22 00 00 00 	lbu $14,2352($29)
  403cec:	30 09 0e 1d 
  403cf0:	42 00 00 00 	addu $2,$0,$14
  403cf4:	00 02 0e 00 
  403cf8:	05 00 00 00 	beq $2,$0,403d10 <vfprintf+0x740>
  403cfc:	04 00 00 02 
  403d00:	43 00 00 00 	addiu $15,$0,32
  403d04:	20 00 0f 00 
  403d08:	30 00 00 00 	sb $15,2368($29)
  403d0c:	40 09 0f 1d 
  403d10:	20 00 00 00 	lb $3,0($8)
  403d14:	00 00 03 08 
  403d18:	42 00 00 00 	addu $22,$0,$0
  403d1c:	00 16 00 00 
  403d20:	43 00 00 00 	addiu $2,$0,42
  403d24:	2a 00 02 00 
  403d28:	06 00 00 00 	bne $3,$2,403d98 <vfprintf+0x7c8>
  403d2c:	1a 00 02 03 
  403d30:	28 00 00 00 	lw $2,2496($29)
  403d34:	c0 09 02 1d 
  403d38:	43 00 00 00 	addiu $3,$0,-4
  403d3c:	fc ff 03 00 
  403d40:	43 00 00 00 	addiu $2,$2,3
  403d44:	03 00 02 02 
  403d48:	4e 00 00 00 	and $2,$2,$3
  403d4c:	00 02 03 02 
  403d50:	28 00 00 00 	lw $22,0($2)
  403d54:	00 00 16 02 
  403d58:	43 00 00 00 	addiu $2,$2,4
  403d5c:	04 00 02 02 
  403d60:	34 00 00 00 	sw $2,2496($29)
  403d64:	c0 09 02 1d 
  403d68:	0a 00 00 00 	bgez $22,403d88 <vfprintf+0x7b8>
  403d6c:	06 00 00 16 
  403d70:	45 00 00 00 	subu $22,$0,$22
  403d74:	00 16 16 00 
  403d78:	43 00 00 00 	addiu $14,$0,1
  403d7c:	01 00 0e 00 
  403d80:	30 00 00 00 	sb $14,2352($29)
  403d84:	30 09 0e 1d 
  403d88:	43 00 00 00 	addiu $8,$8,1
  403d8c:	01 00 08 08 
  403d90:	01 00 00 00 	j 403e30 <vfprintf+0x860>
  403d94:	8c 0f 10 00 
  403d98:	28 00 00 00 	lw $5,-32576($28)
  403d9c:	c0 80 05 1c 
  403da0:	55 00 00 00 	sll $2,$3,0x1
  403da4:	01 02 03 00 
  403da8:	42 00 00 00 	addu $2,$2,$5
  403dac:	00 02 05 02 
  403db0:	26 00 00 00 	lhu $2,0($2)
  403db4:	00 00 02 02 
  403db8:	4f 00 00 00 	andi $2,$2,8
  403dbc:	08 00 02 02 
  403dc0:	05 00 00 00 	beq $2,$0,403e30 <vfprintf+0x860>
  403dc4:	1a 00 00 02 
  403dc8:	20 00 00 00 	lb $4,0($8)
  403dcc:	00 00 04 08 
  403dd0:	55 00 00 00 	sll $3,$22,0x2
  403dd4:	02 03 16 00 
  403dd8:	43 00 00 00 	addiu $8,$8,1
  403ddc:	01 00 08 08 
  403de0:	20 00 00 00 	lb $2,0($8)
  403de4:	00 00 02 08 
  403de8:	42 00 00 00 	addu $3,$3,$22
  403dec:	00 03 16 03 
  403df0:	55 00 00 00 	sll $22,$3,0x1
  403df4:	01 16 03 00 
  403df8:	55 00 00 00 	sll $2,$2,0x1
  403dfc:	01 02 02 00 
  403e00:	42 00 00 00 	addu $2,$2,$5
  403e04:	00 02 05 02 
  403e08:	26 00 00 00 	lhu $3,0($2)
  403e0c:	00 00 03 02 
  403e10:	43 00 00 00 	addiu $2,$22,-48
  403e14:	d0 ff 02 16 
  403e18:	42 00 00 00 	addu $22,$2,$4
  403e1c:	00 16 04 02 
  403e20:	4f 00 00 00 	andi $3,$3,8
  403e24:	08 00 03 03 
  403e28:	06 00 00 00 	bne $3,$0,403dc8 <vfprintf+0x7f8>
  403e2c:	e6 ff 00 03 
  403e30:	20 00 00 00 	lb $3,0($8)
  403e34:	00 00 03 08 
  403e38:	43 00 00 00 	addiu $30,$0,-1
  403e3c:	ff ff 1e 00 
  403e40:	43 00 00 00 	addiu $2,$0,46
  403e44:	2e 00 02 00 
  403e48:	06 00 00 00 	bne $3,$2,403f80 <vfprintf+0x9b0>
  403e4c:	4c 00 02 03 
  403e50:	43 00 00 00 	addiu $8,$8,1
  403e54:	01 00 08 08 
  403e58:	20 00 00 00 	lb $3,0($8)
  403e5c:	00 00 03 08 
  403e60:	43 00 00 00 	addiu $2,$0,42
  403e64:	2a 00 02 00 
  403e68:	06 00 00 00 	bne $3,$2,403ec8 <vfprintf+0x8f8>
  403e6c:	16 00 02 03 
  403e70:	28 00 00 00 	lw $2,2496($29)
  403e74:	c0 09 02 1d 
  403e78:	43 00 00 00 	addiu $3,$0,-4
  403e7c:	fc ff 03 00 
  403e80:	43 00 00 00 	addiu $2,$2,3
  403e84:	03 00 02 02 
  403e88:	4e 00 00 00 	and $2,$2,$3
  403e8c:	00 02 03 02 
  403e90:	28 00 00 00 	lw $30,0($2)
  403e94:	00 00 1e 02 
  403e98:	43 00 00 00 	addiu $2,$2,4
  403e9c:	04 00 02 02 
  403ea0:	34 00 00 00 	sw $2,2496($29)
  403ea4:	c0 09 02 1d 
  403ea8:	0a 00 00 00 	bgez $30,403eb8 <vfprintf+0x8e8>
  403eac:	02 00 00 1e 
  403eb0:	43 00 00 00 	addiu $30,$0,-1
  403eb4:	ff ff 1e 00 
  403eb8:	43 00 00 00 	addiu $8,$8,1
  403ebc:	01 00 08 08 
  403ec0:	01 00 00 00 	j 403f80 <vfprintf+0x9b0>
  403ec4:	e0 0f 10 00 
  403ec8:	28 00 00 00 	lw $4,-32576($28)
  403ecc:	c0 80 04 1c 
  403ed0:	55 00 00 00 	sll $2,$3,0x1
  403ed4:	01 02 03 00 
  403ed8:	42 00 00 00 	addu $2,$2,$4
  403edc:	00 02 04 02 
  403ee0:	26 00 00 00 	lhu $2,0($2)
  403ee4:	00 00 02 02 
  403ee8:	4f 00 00 00 	andi $2,$2,8
  403eec:	08 00 02 02 
  403ef0:	05 00 00 00 	beq $2,$0,403f80 <vfprintf+0x9b0>
  403ef4:	22 00 00 02 
  403ef8:	42 00 00 00 	addu $30,$0,$0
  403efc:	00 1e 00 00 
  403f00:	05 00 00 00 	beq $3,$0,403f80 <vfprintf+0x9b0>
  403f04:	1e 00 00 03 
  403f08:	42 00 00 00 	addu $5,$0,$4
  403f0c:	00 05 04 00 
  403f10:	20 00 00 00 	lb $4,0($8)
  403f14:	00 00 04 08 
  403f18:	55 00 00 00 	sll $2,$4,0x1
  403f1c:	01 02 04 00 
  403f20:	42 00 00 00 	addu $2,$2,$5
  403f24:	00 02 05 02 
  403f28:	26 00 00 00 	lhu $2,0($2)
  403f2c:	00 00 02 02 
  403f30:	4f 00 00 00 	andi $2,$2,8
  403f34:	08 00 02 02 
  403f38:	05 00 00 00 	beq $2,$0,403f80 <vfprintf+0x9b0>
  403f3c:	10 00 00 02 
  403f40:	55 00 00 00 	sll $2,$30,0x2
  403f44:	02 02 1e 00 
  403f48:	42 00 00 00 	addu $2,$2,$30
  403f4c:	00 02 1e 02 
  403f50:	55 00 00 00 	sll $30,$2,0x1
  403f54:	01 1e 02 00 
  403f58:	43 00 00 00 	addiu $8,$8,1
  403f5c:	01 00 08 08 
  403f60:	20 00 00 00 	lb $3,0($8)
  403f64:	00 00 03 08 
  403f68:	43 00 00 00 	addiu $2,$30,-48
  403f6c:	d0 ff 02 1e 
  403f70:	42 00 00 00 	addu $30,$2,$4
  403f74:	00 1e 04 02 
  403f78:	06 00 00 00 	bne $3,$0,403f10 <vfprintf+0x940>
  403f7c:	e4 ff 00 03 
  403f80:	42 00 00 00 	addu $7,$0,$0
  403f84:	00 07 00 00 
  403f88:	42 00 00 00 	addu $10,$0,$0
  403f8c:	00 0a 00 00 
  403f90:	20 00 00 00 	lb $3,0($8)
  403f94:	00 00 03 08 
  403f98:	42 00 00 00 	addu $11,$0,$0
  403f9c:	00 0b 00 00 
  403fa0:	01 00 00 00 	j 404060 <vfprintf+0xa90>
  403fa4:	18 10 10 00 
  403fa8:	22 00 00 00 	lbu $2,0($8)
  403fac:	00 00 02 08 
  403fb0:	43 00 00 00 	addiu $8,$8,1
  403fb4:	01 00 08 08 
  403fb8:	43 00 00 00 	addiu $2,$2,-76
  403fbc:	b4 ff 02 02 
  403fc0:	55 00 00 00 	sll $2,$2,0x18
  403fc4:	18 02 02 00 
  403fc8:	59 00 00 00 	sra $3,$2,0x18
  403fcc:	18 03 02 00 
  403fd0:	5e 00 00 00 	sltiu $2,$3,38
  403fd4:	26 00 02 03 
  403fd8:	05 00 00 00 	beq $2,$0,404058 <vfprintf+0xa88>
  403fdc:	1e 00 00 02 
  403fe0:	55 00 00 00 	sll $2,$3,0x2
  403fe4:	02 02 03 00 
  403fe8:	a2 00 00 00 	lui $1,4096
  403fec:	00 10 01 00 
  403ff0:	42 00 00 00 	addu $1,$1,$2
  403ff4:	00 01 02 01 
  403ff8:	28 00 00 00 	lw $2,672($1)
  403ffc:	a0 02 02 01 
  404000:	03 00 00 00 	jr $2
  404004:	00 00 00 02 
  404008:	43 00 00 00 	addiu $11,$0,1
  40400c:	01 00 0b 00 
  404010:	01 00 00 00 	j 404058 <vfprintf+0xa88>
  404014:	16 10 10 00 
  404018:	42 00 00 00 	addu $2,$0,$10
  40401c:	00 02 0a 00 
  404020:	06 00 00 00 	bne $2,$0,404050 <vfprintf+0xa80>
  404024:	0a 00 00 02 
  404028:	43 00 00 00 	addiu $10,$0,1
  40402c:	01 00 0a 00 
  404030:	01 00 00 00 	j 404058 <vfprintf+0xa88>
  404034:	16 10 10 00 
  404038:	42 00 00 00 	addu $7,$0,$0
  40403c:	00 07 00 00 
  404040:	42 00 00 00 	addu $10,$0,$0
  404044:	00 0a 00 00 
  404048:	01 00 00 00 	j 404058 <vfprintf+0xa88>
  40404c:	16 10 10 00 
  404050:	43 00 00 00 	addiu $7,$0,1
  404054:	01 00 07 00 
  404058:	20 00 00 00 	lb $3,0($8)
  40405c:	00 00 03 08 
  404060:	43 00 00 00 	addiu $2,$0,104
  404064:	68 00 02 00 
  404068:	05 00 00 00 	beq $3,$2,403fa8 <vfprintf+0x9d8>
  40406c:	ce ff 02 03 
  404070:	43 00 00 00 	addiu $2,$0,108
  404074:	6c 00 02 00 
  404078:	05 00 00 00 	beq $3,$2,403fa8 <vfprintf+0x9d8>
  40407c:	ca ff 02 03 
  404080:	43 00 00 00 	addiu $2,$0,76
  404084:	4c 00 02 00 
  404088:	05 00 00 00 	beq $3,$2,403fa8 <vfprintf+0x9d8>
  40408c:	c6 ff 02 03 
  404090:	43 00 00 00 	addiu $2,$0,113
  404094:	71 00 02 00 
  404098:	05 00 00 00 	beq $3,$2,403fa8 <vfprintf+0x9d8>
  40409c:	c2 ff 02 03 
  4040a0:	22 00 00 00 	lbu $15,0($8)
  4040a4:	00 00 0f 08 
  4040a8:	28 00 00 00 	lw $3,-32320($28)
  4040ac:	c0 81 03 1c 
  4040b0:	43 00 00 00 	addiu $8,$8,1
  4040b4:	01 00 08 08 
  4040b8:	30 00 00 00 	sb $15,2384($29)
  4040bc:	50 09 0f 1d 
  4040c0:	05 00 00 00 	beq $3,$0,4040f0 <vfprintf+0xb20>
  4040c4:	0a 00 00 03 
  4040c8:	55 00 00 00 	sll $2,$15,0x18
  4040cc:	18 02 0f 00 
  4040d0:	59 00 00 00 	sra $2,$2,0x16
  4040d4:	16 02 02 00 
  4040d8:	42 00 00 00 	addu $2,$2,$3
  4040dc:	00 02 03 02 
  4040e0:	28 00 00 00 	lw $9,0($2)
  4040e4:	00 00 09 02 
  4040e8:	01 00 00 00 	j 4040f8 <vfprintf+0xb28>
  4040ec:	3e 10 10 00 
  4040f0:	42 00 00 00 	addu $9,$0,$0
  4040f4:	00 09 00 00 
  4040f8:	06 00 00 00 	bne $9,$0,4058f8 <vfprintf+0x2328>
  4040fc:	fe 05 00 09 
  404100:	22 00 00 00 	lbu $14,2384($29)
  404104:	50 09 0e 1d 
  404108:	43 00 00 00 	addiu $2,$14,-69
  40410c:	bb ff 02 0e 
  404110:	55 00 00 00 	sll $2,$2,0x18
  404114:	18 02 02 00 
  404118:	59 00 00 00 	sra $3,$2,0x18
  40411c:	18 03 02 00 
  404120:	5e 00 00 00 	sltiu $2,$3,52
  404124:	34 00 02 03 
  404128:	05 00 00 00 	beq $2,$0,4058e8 <vfprintf+0x2318>
  40412c:	ee 05 00 02 
  404130:	55 00 00 00 	sll $2,$3,0x2
  404134:	02 02 03 00 
  404138:	a2 00 00 00 	lui $1,4096
  40413c:	00 10 01 00 
  404140:	42 00 00 00 	addu $1,$1,$2
  404144:	00 01 02 01 
  404148:	28 00 00 00 	lw $2,824($1)
  40414c:	38 03 02 01 
  404150:	03 00 00 00 	jr $2
  404154:	00 00 00 02 
  404158:	43 00 00 00 	addiu $15,$0,10
  40415c:	0a 00 0f 00 
  404160:	34 00 00 00 	sw $15,2392($29)
  404164:	58 09 0f 1d 
  404168:	42 00 00 00 	addu $2,$0,$7
  40416c:	00 02 07 00 
  404170:	05 00 00 00 	beq $2,$0,4041b8 <vfprintf+0xbe8>
  404174:	10 00 00 02 
  404178:	28 00 00 00 	lw $2,2496($29)
  40417c:	c0 09 02 1d 
  404180:	43 00 00 00 	addiu $3,$0,-8
  404184:	f8 ff 03 00 
  404188:	43 00 00 00 	addiu $2,$2,7
  40418c:	07 00 02 02 
  404190:	4e 00 00 00 	and $2,$2,$3
  404194:	00 02 03 02 
  404198:	28 00 00 00 	lw $4,0($2)
  40419c:	00 00 04 02 
  4041a0:	28 00 00 00 	lw $5,4($2)
  4041a4:	04 00 05 02 
  4041a8:	43 00 00 00 	addiu $2,$2,8
  4041ac:	08 00 02 02 
  4041b0:	01 00 00 00 	j 4042a0 <vfprintf+0xcd0>
  4041b4:	a8 10 10 00 
  4041b8:	42 00 00 00 	addu $2,$0,$10
  4041bc:	00 02 0a 00 
  4041c0:	05 00 00 00 	beq $2,$0,404208 <vfprintf+0xc38>
  4041c4:	10 00 00 02 
  4041c8:	28 00 00 00 	lw $2,2496($29)
  4041cc:	c0 09 02 1d 
  4041d0:	43 00 00 00 	addiu $3,$0,-4
  4041d4:	fc ff 03 00 
  4041d8:	43 00 00 00 	addiu $2,$2,3
  4041dc:	03 00 02 02 
  4041e0:	4e 00 00 00 	and $2,$2,$3
  4041e4:	00 02 03 02 
  4041e8:	28 00 00 00 	lw $3,0($2)
  4041ec:	00 00 03 02 
  4041f0:	43 00 00 00 	addiu $2,$2,4
  4041f4:	04 00 02 02 
  4041f8:	42 00 00 00 	addu $4,$0,$3
  4041fc:	00 04 03 00 
  404200:	01 00 00 00 	j 404298 <vfprintf+0xcc8>
  404204:	a6 10 10 00 
  404208:	42 00 00 00 	addu $2,$0,$11
  40420c:	00 02 0b 00 
  404210:	06 00 00 00 	bne $2,$0,404258 <vfprintf+0xc88>
  404214:	10 00 00 02 
  404218:	28 00 00 00 	lw $2,2496($29)
  40421c:	c0 09 02 1d 
  404220:	43 00 00 00 	addiu $3,$0,-4
  404224:	fc ff 03 00 
  404228:	43 00 00 00 	addiu $2,$2,3
  40422c:	03 00 02 02 
  404230:	4e 00 00 00 	and $2,$2,$3
  404234:	00 02 03 02 
  404238:	28 00 00 00 	lw $3,0($2)
  40423c:	00 00 03 02 
  404240:	43 00 00 00 	addiu $2,$2,4
  404244:	04 00 02 02 
  404248:	42 00 00 00 	addu $4,$0,$3
  40424c:	00 04 03 00 
  404250:	01 00 00 00 	j 404298 <vfprintf+0xcc8>
  404254:	a6 10 10 00 
  404258:	28 00 00 00 	lw $2,2496($29)
  40425c:	c0 09 02 1d 
  404260:	43 00 00 00 	addiu $3,$0,-4
  404264:	fc ff 03 00 
  404268:	43 00 00 00 	addiu $2,$2,3
  40426c:	03 00 02 02 
  404270:	4e 00 00 00 	and $2,$2,$3
  404274:	00 02 03 02 
  404278:	26 00 00 00 	lhu $3,0($2)
  40427c:	00 00 03 02 
  404280:	43 00 00 00 	addiu $2,$2,4
  404284:	04 00 02 02 
  404288:	55 00 00 00 	sll $3,$3,0x10
  40428c:	10 03 03 00 
  404290:	59 00 00 00 	sra $4,$3,0x10
  404294:	10 04 03 00 
  404298:	59 00 00 00 	sra $5,$3,0x1f
  40429c:	1f 05 03 00 
  4042a0:	34 00 00 00 	sw $2,2496($29)
  4042a4:	c0 09 02 1d 
  4042a8:	57 00 00 00 	srl $2,$5,0x1f
  4042ac:	1f 02 05 00 
  4042b0:	30 00 00 00 	sb $2,2376($29)
  4042b4:	48 09 02 1d 
  4042b8:	42 00 00 00 	addu $16,$0,$4
  4042bc:	00 10 04 00 
  4042c0:	42 00 00 00 	addu $17,$0,$5
  4042c4:	00 11 05 00 
  4042c8:	05 00 00 00 	beq $2,$0,404458 <vfprintf+0xe88>
  4042cc:	62 00 00 02 
  4042d0:	45 00 00 00 	subu $16,$0,$16
  4042d4:	00 10 10 00 
  4042d8:	45 00 00 00 	subu $17,$0,$17
  4042dc:	00 11 11 00 
  4042e0:	5d 00 00 00 	sltu $2,$0,$16
  4042e4:	00 02 10 00 
  4042e8:	45 00 00 00 	subu $17,$17,$2
  4042ec:	00 11 02 11 
  4042f0:	01 00 00 00 	j 404458 <vfprintf+0xe88>
  4042f4:	16 11 10 00 
  4042f8:	43 00 00 00 	addiu $14,$0,10
  4042fc:	0a 00 0e 00 
  404300:	01 00 00 00 	j 404328 <vfprintf+0xd58>
  404304:	ca 10 10 00 
  404308:	43 00 00 00 	addiu $15,$0,8
  40430c:	08 00 0f 00 
  404310:	34 00 00 00 	sw $15,2392($29)
  404314:	58 09 0f 1d 
  404318:	01 00 00 00 	j 404330 <vfprintf+0xd60>
  40431c:	cc 10 10 00 
  404320:	43 00 00 00 	addiu $14,$0,16
  404324:	10 00 0e 00 
  404328:	34 00 00 00 	sw $14,2392($29)
  40432c:	58 09 0e 1d 
  404330:	42 00 00 00 	addu $2,$0,$7
  404334:	00 02 07 00 
  404338:	05 00 00 00 	beq $2,$0,404380 <vfprintf+0xdb0>
  40433c:	10 00 00 02 
  404340:	28 00 00 00 	lw $2,2496($29)
  404344:	c0 09 02 1d 
  404348:	43 00 00 00 	addiu $3,$0,-8
  40434c:	f8 ff 03 00 
  404350:	43 00 00 00 	addiu $2,$2,7
  404354:	07 00 02 02 
  404358:	4e 00 00 00 	and $2,$2,$3
  40435c:	00 02 03 02 
  404360:	28 00 00 00 	lw $16,0($2)
  404364:	00 00 10 02 
  404368:	28 00 00 00 	lw $17,4($2)
  40436c:	04 00 11 02 
  404370:	43 00 00 00 	addiu $2,$2,8
  404374:	08 00 02 02 
  404378:	01 00 00 00 	j 404438 <vfprintf+0xe68>
  40437c:	0e 11 10 00 
  404380:	42 00 00 00 	addu $2,$0,$10
  404384:	00 02 0a 00 
  404388:	05 00 00 00 	beq $2,$0,4043c0 <vfprintf+0xdf0>
  40438c:	0c 00 00 02 
  404390:	28 00 00 00 	lw $2,2496($29)
  404394:	c0 09 02 1d 
  404398:	43 00 00 00 	addiu $3,$0,-4
  40439c:	fc ff 03 00 
  4043a0:	43 00 00 00 	addiu $2,$2,3
  4043a4:	03 00 02 02 
  4043a8:	4e 00 00 00 	and $2,$2,$3
  4043ac:	00 02 03 02 
  4043b0:	28 00 00 00 	lw $16,0($2)
  4043b4:	00 00 10 02 
  4043b8:	01 00 00 00 	j 404428 <vfprintf+0xe58>
  4043bc:	0a 11 10 00 
  4043c0:	42 00 00 00 	addu $2,$0,$11
  4043c4:	00 02 0b 00 
  4043c8:	06 00 00 00 	bne $2,$0,404400 <vfprintf+0xe30>
  4043cc:	0c 00 00 02 
  4043d0:	28 00 00 00 	lw $2,2496($29)
  4043d4:	c0 09 02 1d 
  4043d8:	43 00 00 00 	addiu $3,$0,-4
  4043dc:	fc ff 03 00 
  4043e0:	43 00 00 00 	addiu $2,$2,3
  4043e4:	03 00 02 02 
  4043e8:	4e 00 00 00 	and $2,$2,$3
  4043ec:	00 02 03 02 
  4043f0:	28 00 00 00 	lw $16,0($2)
  4043f4:	00 00 10 02 
  4043f8:	01 00 00 00 	j 404428 <vfprintf+0xe58>
  4043fc:	0a 11 10 00 
  404400:	28 00 00 00 	lw $2,2496($29)
  404404:	c0 09 02 1d 
  404408:	43 00 00 00 	addiu $3,$0,-4
  40440c:	fc ff 03 00 
  404410:	43 00 00 00 	addiu $2,$2,3
  404414:	03 00 02 02 
  404418:	4e 00 00 00 	and $2,$2,$3
  40441c:	00 02 03 02 
  404420:	26 00 00 00 	lhu $16,0($2)
  404424:	00 00 10 02 
  404428:	43 00 00 00 	addiu $2,$2,4
  40442c:	04 00 02 02 
  404430:	42 00 00 00 	addu $17,$0,$0
  404434:	00 11 00 00 
  404438:	34 00 00 00 	sw $2,2496($29)
  40443c:	c0 09 02 1d 
  404440:	42 00 00 00 	addu $12,$0,$0
  404444:	00 0c 00 00 
  404448:	42 00 00 00 	addu $13,$0,$0
  40444c:	00 0d 00 00 
  404450:	30 00 00 00 	sb $0,2376($29)
  404454:	48 09 00 1d 
  404458:	43 00 00 00 	addiu $15,$29,2319
  40445c:	0f 09 0f 1d 
  404460:	34 00 00 00 	sw $15,2400($29)
  404464:	60 09 0f 1d 
  404468:	43 00 00 00 	addiu $14,$0,-1
  40446c:	ff ff 0e 00 
  404470:	06 00 00 00 	bne $30,$14,404480 <vfprintf+0xeb0>
  404474:	02 00 0e 1e 
  404478:	43 00 00 00 	addiu $30,$0,1
  40447c:	01 00 1e 00 
  404480:	42 00 00 00 	addu $18,$0,$16
  404484:	00 12 10 00 
  404488:	42 00 00 00 	addu $19,$0,$17
  40448c:	00 13 11 00 
  404490:	22 00 00 00 	lbu $14,2384($29)
  404494:	50 09 0e 1d 
  404498:	a2 00 00 00 	lui $15,4096
  40449c:	00 10 0f 00 
  4044a0:	43 00 00 00 	addiu $15,$15,3136
  4044a4:	40 0c 0f 0f 
  4044a8:	43 00 00 00 	addiu $3,$29,2320
  4044ac:	10 09 03 1d 
  4044b0:	34 00 00 00 	sw $15,2408($29)
  4044b4:	68 09 0f 1d 
  4044b8:	55 00 00 00 	sll $2,$14,0x18
  4044bc:	18 02 0e 00 
  4044c0:	59 00 00 00 	sra $2,$2,0x18
  4044c4:	18 02 02 00 
  4044c8:	53 00 00 00 	xori $2,$2,88
  4044cc:	58 00 02 02 
  4044d0:	06 00 00 00 	bne $2,$0,4044f0 <vfprintf+0xf20>
  4044d4:	06 00 00 02 
  4044d8:	a2 00 00 00 	lui $15,4096
  4044dc:	00 10 0f 00 
  4044e0:	43 00 00 00 	addiu $15,$15,3176
  4044e4:	68 0c 0f 0f 
  4044e8:	34 00 00 00 	sw $15,2408($29)
  4044ec:	68 09 0f 1d 
  4044f0:	42 00 00 00 	addu $23,$0,$3
  4044f4:	00 17 03 00 
  4044f8:	06 00 00 00 	bne $16,$0,404508 <vfprintf+0xf38>
  4044fc:	02 00 00 10 
  404500:	05 00 00 00 	beq $17,$0,4045e0 <vfprintf+0x1010>
  404504:	36 00 00 11 
  404508:	28 00 00 00 	lw $16,2392($29)
  40450c:	58 09 10 1d 
  404510:	42 00 00 00 	addu $4,$0,$18
  404514:	00 04 12 00 
  404518:	42 00 00 00 	addu $5,$0,$19
  40451c:	00 05 13 00 
  404520:	34 00 00 00 	sw $8,2432($29)
  404524:	80 09 08 1d 
  404528:	34 00 00 00 	sw $12,2436($29)
  40452c:	84 09 0c 1d 
  404530:	34 00 00 00 	sw $13,2440($29)
  404534:	88 09 0d 1d 
  404538:	42 00 00 00 	addu $17,$0,$0
  40453c:	00 11 00 00 
  404540:	42 00 00 00 	addu $6,$0,$16
  404544:	00 06 10 00 
  404548:	42 00 00 00 	addu $7,$0,$17
  40454c:	00 07 11 00 
  404550:	02 00 00 00 	jal 412f50 <__umoddi3>
  404554:	d4 4b 10 00 
  404558:	28 00 00 00 	lw $14,2408($29)
  40455c:	68 09 0e 1d 
  404560:	43 00 00 00 	addiu $23,$23,-1
  404564:	ff ff 17 17 
  404568:	42 00 00 00 	addu $2,$14,$2
  40456c:	00 02 02 0e 
  404570:	22 00 00 00 	lbu $2,0($2)
  404574:	00 00 02 02 
  404578:	42 00 00 00 	addu $4,$0,$18
  40457c:	00 04 12 00 
  404580:	42 00 00 00 	addu $5,$0,$19
  404584:	00 05 13 00 
  404588:	42 00 00 00 	addu $6,$0,$16
  40458c:	00 06 10 00 
  404590:	42 00 00 00 	addu $7,$0,$17
  404594:	00 07 11 00 
  404598:	30 00 00 00 	sb $2,0($23)
  40459c:	00 00 02 17 
  4045a0:	02 00 00 00 	jal 413850 <__udivdi3>
  4045a4:	14 4e 10 00 
  4045a8:	28 00 00 00 	lw $8,2432($29)
  4045ac:	80 09 08 1d 
  4045b0:	28 00 00 00 	lw $12,2436($29)
  4045b4:	84 09 0c 1d 
  4045b8:	28 00 00 00 	lw $13,2440($29)
  4045bc:	88 09 0d 1d 
  4045c0:	42 00 00 00 	addu $18,$0,$2
  4045c4:	00 12 02 00 
  4045c8:	42 00 00 00 	addu $19,$0,$3
  4045cc:	00 13 03 00 
  4045d0:	06 00 00 00 	bne $18,$0,404508 <vfprintf+0xf38>
  4045d4:	cc ff 00 12 
  4045d8:	06 00 00 00 	bne $19,$0,404508 <vfprintf+0xf38>
  4045dc:	ca ff 00 13 
  4045e0:	28 00 00 00 	lw $15,2400($29)
  4045e4:	60 09 0f 1d 
  4045e8:	43 00 00 00 	addiu $16,$23,-1
  4045ec:	ff ff 10 17 
  4045f0:	22 00 00 00 	lbu $14,2360($29)
  4045f4:	38 09 0e 1d 
  4045f8:	45 00 00 00 	subu $2,$15,$16
  4045fc:	00 02 10 0f 
  404600:	45 00 00 00 	subu $22,$22,$2
  404604:	00 16 02 16 
  404608:	45 00 00 00 	subu $30,$30,$2
  40460c:	00 1e 02 1e 
  404610:	42 00 00 00 	addu $2,$0,$14
  404614:	00 02 0e 00 
  404618:	05 00 00 00 	beq $2,$0,404660 <vfprintf+0x1090>
  40461c:	10 00 00 02 
  404620:	28 00 00 00 	lw $15,2392($29)
  404624:	58 09 0f 1d 
  404628:	43 00 00 00 	addiu $2,$0,8
  40462c:	08 00 02 00 
  404630:	06 00 00 00 	bne $15,$2,404660 <vfprintf+0x1090>
  404634:	0a 00 02 0f 
  404638:	08 00 00 00 	bgtz $30,404668 <vfprintf+0x1098>
  40463c:	0a 00 00 1e 
  404640:	43 00 00 00 	addiu $2,$0,48
  404644:	30 00 02 00 
  404648:	30 00 00 00 	sb $2,-1($23)
  40464c:	ff ff 02 17 
  404650:	43 00 00 00 	addiu $16,$16,-1
  404654:	ff ff 10 10 
  404658:	43 00 00 00 	addiu $22,$22,-1
  40465c:	ff ff 16 16 
  404660:	07 00 00 00 	blez $30,4046b8 <vfprintf+0x10e8>
  404664:	14 00 00 1e 
  404668:	45 00 00 00 	subu $22,$22,$30
  40466c:	00 16 1e 16 
  404670:	42 00 00 00 	addu $2,$0,$30
  404674:	00 02 1e 00 
  404678:	43 00 00 00 	addiu $30,$30,-1
  40467c:	ff ff 1e 1e 
  404680:	07 00 00 00 	blez $2,4046b8 <vfprintf+0x10e8>
  404684:	0c 00 00 02 
  404688:	43 00 00 00 	addiu $3,$0,48
  40468c:	30 00 03 00 
  404690:	30 00 00 00 	sb $3,0($16)
  404694:	00 00 03 10 
  404698:	43 00 00 00 	addiu $16,$16,-1
  40469c:	ff ff 10 10 
  4046a0:	42 00 00 00 	addu $2,$0,$30
  4046a4:	00 02 1e 00 
  4046a8:	43 00 00 00 	addiu $30,$30,-1
  4046ac:	ff ff 1e 1e 
  4046b0:	08 00 00 00 	bgtz $2,404690 <vfprintf+0x10c0>
  4046b4:	f6 ff 00 02 
  4046b8:	22 00 00 00 	lbu $14,2360($29)
  4046bc:	38 09 0e 1d 
  4046c0:	42 00 00 00 	addu $2,$0,$14
  4046c4:	00 02 0e 00 
  4046c8:	05 00 00 00 	beq $2,$0,4046f0 <vfprintf+0x1120>
  4046cc:	08 00 00 02 
  4046d0:	28 00 00 00 	lw $15,2392($29)
  4046d4:	58 09 0f 1d 
  4046d8:	43 00 00 00 	addiu $2,$0,16
  4046dc:	10 00 02 00 
  4046e0:	06 00 00 00 	bne $15,$2,4046f0 <vfprintf+0x1120>
  4046e4:	02 00 02 0f 
  4046e8:	43 00 00 00 	addiu $22,$22,-2
  4046ec:	fe ff 16 16 
  4046f0:	22 00 00 00 	lbu $14,2376($29)
  4046f4:	48 09 0e 1d 
  4046f8:	42 00 00 00 	addu $2,$0,$14
  4046fc:	00 02 0e 00 
  404700:	06 00 00 00 	bne $2,$0,404728 <vfprintf+0x1158>
  404704:	08 00 00 02 
  404708:	42 00 00 00 	addu $2,$0,$13
  40470c:	00 02 0d 00 
  404710:	06 00 00 00 	bne $2,$0,404728 <vfprintf+0x1158>
  404714:	04 00 00 02 
  404718:	42 00 00 00 	addu $2,$0,$12
  40471c:	00 02 0c 00 
  404720:	05 00 00 00 	beq $2,$0,404730 <vfprintf+0x1160>
  404724:	02 00 00 02 
  404728:	43 00 00 00 	addiu $22,$22,-1
  40472c:	ff ff 16 16 
  404730:	22 00 00 00 	lbu $15,2352($29)
  404734:	30 09 0f 1d 
  404738:	42 00 00 00 	addu $2,$0,$15
  40473c:	00 02 0f 00 
  404740:	06 00 00 00 	bne $2,$0,404828 <vfprintf+0x1258>
  404744:	38 00 00 02 
  404748:	22 00 00 00 	lbu $14,2368($29)
  40474c:	40 09 0e 1d 
  404750:	43 00 00 00 	addiu $15,$0,32
  404754:	20 00 0f 00 
  404758:	06 00 00 00 	bne $14,$15,404828 <vfprintf+0x1258>
  40475c:	32 00 0f 0e 
  404760:	01 00 00 00 	j 404810 <vfprintf+0x1240>
  404764:	04 12 10 00 
  404768:	28 00 00 00 	lw $3,4($20)
  40476c:	04 00 03 14 
  404770:	28 00 00 00 	lw $2,12($20)
  404774:	0c 00 02 14 
  404778:	5d 00 00 00 	sltu $2,$3,$2
  40477c:	00 02 02 03 
  404780:	06 00 00 00 	bne $2,$0,4047e8 <vfprintf+0x1218>
  404784:	18 00 00 02 
  404788:	42 00 00 00 	addu $4,$0,$20
  40478c:	00 04 14 00 
  404790:	43 00 00 00 	addiu $5,$0,32
  404794:	20 00 05 00 
  404798:	34 00 00 00 	sw $8,2432($29)
  40479c:	80 09 08 1d 
  4047a0:	34 00 00 00 	sw $12,2436($29)
  4047a4:	84 09 0c 1d 
  4047a8:	34 00 00 00 	sw $13,2440($29)
  4047ac:	88 09 0d 1d 
  4047b0:	02 00 00 00 	jal 408380 <__flshfp>
  4047b4:	e0 20 10 00 
  4047b8:	28 00 00 00 	lw $8,2432($29)
  4047bc:	80 09 08 1d 
  4047c0:	28 00 00 00 	lw $12,2436($29)
  4047c4:	84 09 0c 1d 
  4047c8:	28 00 00 00 	lw $13,2440($29)
  4047cc:	88 09 0d 1d 
  4047d0:	43 00 00 00 	addiu $14,$0,-1
  4047d4:	ff ff 0e 00 
  4047d8:	06 00 00 00 	bne $2,$14,404808 <vfprintf+0x1238>
  4047dc:	0a 00 0e 02 
  4047e0:	01 00 00 00 	j 403b48 <vfprintf+0x578>
  4047e4:	d2 0e 10 00 
  4047e8:	43 00 00 00 	addiu $2,$3,1
  4047ec:	01 00 02 03 
  4047f0:	34 00 00 00 	sw $2,4($20)
  4047f4:	04 00 02 14 
  4047f8:	43 00 00 00 	addiu $15,$0,32
  4047fc:	20 00 0f 00 
  404800:	30 00 00 00 	sb $15,0($3)
  404804:	00 00 0f 03 
  404808:	43 00 00 00 	addiu $21,$21,1
  40480c:	01 00 15 15 
  404810:	42 00 00 00 	addu $2,$0,$22
  404814:	00 02 16 00 
  404818:	43 00 00 00 	addiu $22,$22,-1
  40481c:	ff ff 16 16 
  404820:	08 00 00 00 	bgtz $2,404768 <vfprintf+0x1198>
  404824:	d0 ff 00 02 
  404828:	22 00 00 00 	lbu $14,2376($29)
  40482c:	48 09 0e 1d 
  404830:	42 00 00 00 	addu $2,$0,$14
  404834:	00 02 0e 00 
  404838:	05 00 00 00 	beq $2,$0,4048a0 <vfprintf+0x12d0>
  40483c:	18 00 00 02 
  404840:	28 00 00 00 	lw $3,4($20)
  404844:	04 00 03 14 
  404848:	28 00 00 00 	lw $2,12($20)
  40484c:	0c 00 02 14 
  404850:	5d 00 00 00 	sltu $2,$3,$2
  404854:	00 02 02 03 
  404858:	06 00 00 00 	bne $2,$0,404878 <vfprintf+0x12a8>
  40485c:	06 00 00 02 
  404860:	42 00 00 00 	addu $4,$0,$20
  404864:	00 04 14 00 
  404868:	43 00 00 00 	addiu $5,$0,45
  40486c:	2d 00 05 00 
  404870:	01 00 00 00 	j 404978 <vfprintf+0x13a8>
  404874:	5e 12 10 00 
  404878:	43 00 00 00 	addiu $2,$3,1
  40487c:	01 00 02 03 
  404880:	34 00 00 00 	sw $2,4($20)
  404884:	04 00 02 14 
  404888:	43 00 00 00 	addiu $2,$0,45
  40488c:	2d 00 02 00 
  404890:	30 00 00 00 	sb $2,0($3)
  404894:	00 00 02 03 
  404898:	01 00 00 00 	j 4049c8 <vfprintf+0x13f8>
  40489c:	72 12 10 00 
  4048a0:	42 00 00 00 	addu $2,$0,$13
  4048a4:	00 02 0d 00 
  4048a8:	05 00 00 00 	beq $2,$0,404938 <vfprintf+0x1368>
  4048ac:	22 00 00 02 
  4048b0:	28 00 00 00 	lw $3,4($20)
  4048b4:	04 00 03 14 
  4048b8:	28 00 00 00 	lw $2,12($20)
  4048bc:	0c 00 02 14 
  4048c0:	5d 00 00 00 	sltu $2,$3,$2
  4048c4:	00 02 02 03 
  4048c8:	06 00 00 00 	bne $2,$0,404910 <vfprintf+0x1340>
  4048cc:	10 00 00 02 
  4048d0:	42 00 00 00 	addu $4,$0,$20
  4048d4:	00 04 14 00 
  4048d8:	43 00 00 00 	addiu $5,$0,43
  4048dc:	2b 00 05 00 
  4048e0:	34 00 00 00 	sw $8,2432($29)
  4048e4:	80 09 08 1d 
  4048e8:	02 00 00 00 	jal 408380 <__flshfp>
  4048ec:	e0 20 10 00 
  4048f0:	28 00 00 00 	lw $8,2432($29)
  4048f4:	80 09 08 1d 
  4048f8:	43 00 00 00 	addiu $14,$0,-1
  4048fc:	ff ff 0e 00 
  404900:	06 00 00 00 	bne $2,$14,4049c8 <vfprintf+0x13f8>
  404904:	30 00 0e 02 
  404908:	01 00 00 00 	j 403b48 <vfprintf+0x578>
  40490c:	d2 0e 10 00 
  404910:	43 00 00 00 	addiu $2,$3,1
  404914:	01 00 02 03 
  404918:	34 00 00 00 	sw $2,4($20)
  40491c:	04 00 02 14 
  404920:	43 00 00 00 	addiu $2,$0,43
  404924:	2b 00 02 00 
  404928:	30 00 00 00 	sb $2,0($3)
  40492c:	00 00 02 03 
  404930:	01 00 00 00 	j 4049c8 <vfprintf+0x13f8>
  404934:	72 12 10 00 
  404938:	42 00 00 00 	addu $2,$0,$12
  40493c:	00 02 0c 00 
  404940:	05 00 00 00 	beq $2,$0,4049d0 <vfprintf+0x1400>
  404944:	22 00 00 02 
  404948:	28 00 00 00 	lw $3,4($20)
  40494c:	04 00 03 14 
  404950:	28 00 00 00 	lw $2,12($20)
  404954:	0c 00 02 14 
  404958:	5d 00 00 00 	sltu $2,$3,$2
  40495c:	00 02 02 03 
  404960:	06 00 00 00 	bne $2,$0,4049a8 <vfprintf+0x13d8>
  404964:	10 00 00 02 
  404968:	42 00 00 00 	addu $4,$0,$20
  40496c:	00 04 14 00 
  404970:	43 00 00 00 	addiu $5,$0,32
  404974:	20 00 05 00 
  404978:	34 00 00 00 	sw $8,2432($29)
  40497c:	80 09 08 1d 
  404980:	02 00 00 00 	jal 408380 <__flshfp>
  404984:	e0 20 10 00 
  404988:	28 00 00 00 	lw $8,2432($29)
  40498c:	80 09 08 1d 
  404990:	43 00 00 00 	addiu $15,$0,-1
  404994:	ff ff 0f 00 
  404998:	06 00 00 00 	bne $2,$15,4049c8 <vfprintf+0x13f8>
  40499c:	0a 00 0f 02 
  4049a0:	01 00 00 00 	j 403b48 <vfprintf+0x578>
  4049a4:	d2 0e 10 00 
  4049a8:	43 00 00 00 	addiu $2,$3,1
  4049ac:	01 00 02 03 
  4049b0:	34 00 00 00 	sw $2,4($20)
  4049b4:	04 00 02 14 
  4049b8:	43 00 00 00 	addiu $14,$0,32
  4049bc:	20 00 0e 00 
  4049c0:	30 00 00 00 	sb $14,0($3)
  4049c4:	00 00 0e 03 
  4049c8:	43 00 00 00 	addiu $21,$21,1
  4049cc:	01 00 15 15 
  4049d0:	22 00 00 00 	lbu $15,2360($29)
  4049d4:	38 09 0f 1d 
  4049d8:	42 00 00 00 	addu $2,$0,$15
  4049dc:	00 02 0f 00 
  4049e0:	05 00 00 00 	beq $2,$0,404b40 <vfprintf+0x1570>
  4049e4:	56 00 00 02 
  4049e8:	28 00 00 00 	lw $14,2392($29)
  4049ec:	58 09 0e 1d 
  4049f0:	43 00 00 00 	addiu $2,$0,16
  4049f4:	10 00 02 00 
  4049f8:	06 00 00 00 	bne $14,$2,404b40 <vfprintf+0x1570>
  4049fc:	50 00 02 0e 
  404a00:	28 00 00 00 	lw $3,4($20)
  404a04:	04 00 03 14 
  404a08:	28 00 00 00 	lw $2,12($20)
  404a0c:	0c 00 02 14 
  404a10:	5d 00 00 00 	sltu $2,$3,$2
  404a14:	00 02 02 03 
  404a18:	06 00 00 00 	bne $2,$0,404a60 <vfprintf+0x1490>
  404a1c:	10 00 00 02 
  404a20:	42 00 00 00 	addu $4,$0,$20
  404a24:	00 04 14 00 
  404a28:	43 00 00 00 	addiu $5,$0,48
  404a2c:	30 00 05 00 
  404a30:	34 00 00 00 	sw $8,2432($29)
  404a34:	80 09 08 1d 
  404a38:	02 00 00 00 	jal 408380 <__flshfp>
  404a3c:	e0 20 10 00 
  404a40:	28 00 00 00 	lw $8,2432($29)
  404a44:	80 09 08 1d 
  404a48:	43 00 00 00 	addiu $15,$0,-1
  404a4c:	ff ff 0f 00 
  404a50:	06 00 00 00 	bne $2,$15,404a80 <vfprintf+0x14b0>
  404a54:	0a 00 0f 02 
  404a58:	01 00 00 00 	j 403b48 <vfprintf+0x578>
  404a5c:	d2 0e 10 00 
  404a60:	43 00 00 00 	addiu $2,$3,1
  404a64:	01 00 02 03 
  404a68:	34 00 00 00 	sw $2,4($20)
  404a6c:	04 00 02 14 
  404a70:	43 00 00 00 	addiu $2,$0,48
  404a74:	30 00 02 00 
  404a78:	30 00 00 00 	sb $2,0($3)
  404a7c:	00 00 02 03 
  404a80:	43 00 00 00 	addiu $21,$21,1
  404a84:	01 00 15 15 
  404a88:	22 00 00 00 	lbu $14,2384($29)
  404a8c:	50 09 0e 1d 
  404a90:	55 00 00 00 	sll $3,$14,0x18
  404a94:	18 03 0e 00 
  404a98:	28 00 00 00 	lw $4,4($20)
  404a9c:	04 00 04 14 
  404aa0:	28 00 00 00 	lw $2,12($20)
  404aa4:	0c 00 02 14 
  404aa8:	59 00 00 00 	sra $3,$3,0x18
  404aac:	18 03 03 00 
  404ab0:	5d 00 00 00 	sltu $2,$4,$2
  404ab4:	00 02 02 04 
  404ab8:	05 00 00 00 	beq $2,$0,404b00 <vfprintf+0x1530>
  404abc:	10 00 00 02 
  404ac0:	43 00 00 00 	addiu $2,$4,1
  404ac4:	01 00 02 04 
  404ac8:	34 00 00 00 	sw $2,4($20)
  404acc:	04 00 02 14 
  404ad0:	42 00 00 00 	addu $2,$0,$3
  404ad4:	00 02 03 00 
  404ad8:	30 00 00 00 	sb $2,0($4)
  404adc:	00 00 02 04 
  404ae0:	4f 00 00 00 	andi $2,$2,255
  404ae4:	ff 00 02 02 
  404ae8:	43 00 00 00 	addiu $15,$0,-1
  404aec:	ff ff 0f 00 
  404af0:	05 00 00 00 	beq $2,$15,403b48 <vfprintf+0x578>
  404af4:	14 fc 0f 02 
  404af8:	01 00 00 00 	j 404b38 <vfprintf+0x1568>
  404afc:	ce 12 10 00 
  404b00:	42 00 00 00 	addu $4,$0,$20
  404b04:	00 04 14 00 
  404b08:	4f 00 00 00 	andi $5,$3,255
  404b0c:	ff 00 05 03 
  404b10:	34 00 00 00 	sw $8,2432($29)
  404b14:	80 09 08 1d 
  404b18:	02 00 00 00 	jal 408380 <__flshfp>
  404b1c:	e0 20 10 00 
  404b20:	28 00 00 00 	lw $8,2432($29)
  404b24:	80 09 08 1d 
  404b28:	43 00 00 00 	addiu $14,$0,-1
  404b2c:	ff ff 0e 00 
  404b30:	05 00 00 00 	beq $2,$14,403b48 <vfprintf+0x578>
  404b34:	04 fc 0e 02 
  404b38:	43 00 00 00 	addiu $21,$21,1
  404b3c:	01 00 15 15 
  404b40:	22 00 00 00 	lbu $15,2352($29)
  404b44:	30 09 0f 1d 
  404b48:	42 00 00 00 	addu $2,$0,$15
  404b4c:	00 02 0f 00 
  404b50:	06 00 00 00 	bne $2,$0,404c30 <vfprintf+0x1660>
  404b54:	36 00 00 02 
  404b58:	22 00 00 00 	lbu $14,2368($29)
  404b5c:	40 09 0e 1d 
  404b60:	43 00 00 00 	addiu $2,$0,48
  404b64:	30 00 02 00 
  404b68:	42 00 00 00 	addu $3,$0,$14
  404b6c:	00 03 0e 00 
  404b70:	06 00 00 00 	bne $3,$2,404c30 <vfprintf+0x1660>
  404b74:	2e 00 02 03 
  404b78:	42 00 00 00 	addu $2,$0,$22
  404b7c:	00 02 16 00 
  404b80:	43 00 00 00 	addiu $22,$22,-1
  404b84:	ff ff 16 16 
  404b88:	07 00 00 00 	blez $2,404c30 <vfprintf+0x1660>
  404b8c:	28 00 00 02 
  404b90:	43 00 00 00 	addiu $17,$0,48
  404b94:	30 00 11 00 
  404b98:	28 00 00 00 	lw $3,4($20)
  404b9c:	04 00 03 14 
  404ba0:	28 00 00 00 	lw $2,12($20)
  404ba4:	0c 00 02 14 
  404ba8:	5d 00 00 00 	sltu $2,$3,$2
  404bac:	00 02 02 03 
  404bb0:	06 00 00 00 	bne $2,$0,404bf8 <vfprintf+0x1628>
  404bb4:	10 00 00 02 
  404bb8:	42 00 00 00 	addu $4,$0,$20
  404bbc:	00 04 14 00 
  404bc0:	43 00 00 00 	addiu $5,$0,48
  404bc4:	30 00 05 00 
  404bc8:	34 00 00 00 	sw $8,2432($29)
  404bcc:	80 09 08 1d 
  404bd0:	02 00 00 00 	jal 408380 <__flshfp>
  404bd4:	e0 20 10 00 
  404bd8:	28 00 00 00 	lw $8,2432($29)
  404bdc:	80 09 08 1d 
  404be0:	43 00 00 00 	addiu $15,$0,-1
  404be4:	ff ff 0f 00 
  404be8:	06 00 00 00 	bne $2,$15,404c10 <vfprintf+0x1640>
  404bec:	08 00 0f 02 
  404bf0:	01 00 00 00 	j 403b48 <vfprintf+0x578>
  404bf4:	d2 0e 10 00 
  404bf8:	43 00 00 00 	addiu $2,$3,1
  404bfc:	01 00 02 03 
  404c00:	34 00 00 00 	sw $2,4($20)
  404c04:	04 00 02 14 
  404c08:	30 00 00 00 	sb $17,0($3)
  404c0c:	00 00 11 03 
  404c10:	43 00 00 00 	addiu $21,$21,1
  404c14:	01 00 15 15 
  404c18:	42 00 00 00 	addu $2,$0,$22
  404c1c:	00 02 16 00 
  404c20:	43 00 00 00 	addiu $22,$22,-1
  404c24:	ff ff 16 16 
  404c28:	08 00 00 00 	bgtz $2,404b98 <vfprintf+0x15c8>
  404c2c:	da ff 00 02 
  404c30:	28 00 00 00 	lw $14,2400($29)
  404c34:	60 09 0e 1d 
  404c38:	43 00 00 00 	addiu $16,$16,1
  404c3c:	01 00 10 10 
  404c40:	5d 00 00 00 	sltu $2,$14,$16
  404c44:	00 02 10 0e 
  404c48:	06 00 00 00 	bne $2,$0,404d18 <vfprintf+0x1748>
  404c4c:	32 00 00 02 
  404c50:	28 00 00 00 	lw $3,4($20)
  404c54:	04 00 03 14 
  404c58:	28 00 00 00 	lw $2,12($20)
  404c5c:	0c 00 02 14 
  404c60:	20 00 00 00 	lb $5,0($16)
  404c64:	00 00 05 10 
  404c68:	5d 00 00 00 	sltu $2,$3,$2
  404c6c:	00 02 02 03 
  404c70:	05 00 00 00 	beq $2,$0,404cb8 <vfprintf+0x16e8>
  404c74:	10 00 00 02 
  404c78:	43 00 00 00 	addiu $2,$3,1
  404c7c:	01 00 02 03 
  404c80:	34 00 00 00 	sw $2,4($20)
  404c84:	04 00 02 14 
  404c88:	42 00 00 00 	addu $2,$0,$5
  404c8c:	00 02 05 00 
  404c90:	30 00 00 00 	sb $2,0($3)
  404c94:	00 00 02 03 
  404c98:	4f 00 00 00 	andi $2,$2,255
  404c9c:	ff 00 02 02 
  404ca0:	43 00 00 00 	addiu $15,$0,-1
  404ca4:	ff ff 0f 00 
  404ca8:	05 00 00 00 	beq $2,$15,403b48 <vfprintf+0x578>
  404cac:	a6 fb 0f 02 
  404cb0:	01 00 00 00 	j 404cf0 <vfprintf+0x1720>
  404cb4:	3c 13 10 00 
  404cb8:	42 00 00 00 	addu $4,$0,$20
  404cbc:	00 04 14 00 
  404cc0:	4f 00 00 00 	andi $5,$5,255
  404cc4:	ff 00 05 05 
  404cc8:	34 00 00 00 	sw $8,2432($29)
  404ccc:	80 09 08 1d 
  404cd0:	02 00 00 00 	jal 408380 <__flshfp>
  404cd4:	e0 20 10 00 
  404cd8:	28 00 00 00 	lw $8,2432($29)
  404cdc:	80 09 08 1d 
  404ce0:	43 00 00 00 	addiu $14,$0,-1
  404ce4:	ff ff 0e 00 
  404ce8:	05 00 00 00 	beq $2,$14,403b48 <vfprintf+0x578>
  404cec:	96 fb 0e 02 
  404cf0:	43 00 00 00 	addiu $21,$21,1
  404cf4:	01 00 15 15 
  404cf8:	43 00 00 00 	addiu $16,$16,1
  404cfc:	01 00 10 10 
  404d00:	28 00 00 00 	lw $15,2400($29)
  404d04:	60 09 0f 1d 
  404d08:	5d 00 00 00 	sltu $2,$15,$16
  404d0c:	00 02 10 0f 
  404d10:	05 00 00 00 	beq $2,$0,404c50 <vfprintf+0x1680>
  404d14:	ce ff 00 02 
  404d18:	22 00 00 00 	lbu $14,2352($29)
  404d1c:	30 09 0e 1d 
  404d20:	42 00 00 00 	addu $2,$0,$14
  404d24:	00 02 0e 00 
  404d28:	05 00 00 00 	beq $2,$0,405a68 <vfprintf+0x2498>
  404d2c:	4e 03 00 02 
  404d30:	42 00 00 00 	addu $2,$0,$22
  404d34:	00 02 16 00 
  404d38:	43 00 00 00 	addiu $22,$22,-1
  404d3c:	ff ff 16 16 
  404d40:	07 00 00 00 	blez $2,405a68 <vfprintf+0x2498>
  404d44:	48 03 00 02 
  404d48:	28 00 00 00 	lw $3,4($20)
  404d4c:	04 00 03 14 
  404d50:	28 00 00 00 	lw $2,12($20)
  404d54:	0c 00 02 14 
  404d58:	5d 00 00 00 	sltu $2,$3,$2
  404d5c:	00 02 02 03 
  404d60:	06 00 00 00 	bne $2,$0,404da8 <vfprintf+0x17d8>
  404d64:	10 00 00 02 
  404d68:	42 00 00 00 	addu $4,$0,$20
  404d6c:	00 04 14 00 
  404d70:	43 00 00 00 	addiu $5,$0,32
  404d74:	20 00 05 00 
  404d78:	34 00 00 00 	sw $8,2432($29)
  404d7c:	80 09 08 1d 
  404d80:	02 00 00 00 	jal 408380 <__flshfp>
  404d84:	e0 20 10 00 
  404d88:	28 00 00 00 	lw $8,2432($29)
  404d8c:	80 09 08 1d 
  404d90:	43 00 00 00 	addiu $15,$0,-1
  404d94:	ff ff 0f 00 
  404d98:	06 00 00 00 	bne $2,$15,404dc8 <vfprintf+0x17f8>
  404d9c:	0a 00 0f 02 
  404da0:	01 00 00 00 	j 403b48 <vfprintf+0x578>
  404da4:	d2 0e 10 00 
  404da8:	43 00 00 00 	addiu $2,$3,1
  404dac:	01 00 02 03 
  404db0:	34 00 00 00 	sw $2,4($20)
  404db4:	04 00 02 14 
  404db8:	43 00 00 00 	addiu $14,$0,32
  404dbc:	20 00 0e 00 
  404dc0:	30 00 00 00 	sb $14,0($3)
  404dc4:	00 00 0e 03 
  404dc8:	43 00 00 00 	addiu $21,$21,1
  404dcc:	01 00 15 15 
  404dd0:	42 00 00 00 	addu $2,$0,$22
  404dd4:	00 02 16 00 
  404dd8:	43 00 00 00 	addiu $22,$22,-1
  404ddc:	ff ff 16 16 
  404de0:	08 00 00 00 	bgtz $2,404d48 <vfprintf+0x1778>
  404de4:	d8 ff 00 02 
  404de8:	01 00 00 00 	j 405a68 <vfprintf+0x2498>
  404dec:	9a 16 10 00 
  404df0:	a2 00 00 00 	lui $9,65
  404df4:	41 00 09 00 
  404df8:	43 00 00 00 	addiu $9,$9,-21376
  404dfc:	80 ac 09 09 
  404e00:	01 00 00 00 	j 4058f8 <vfprintf+0x2328>
  404e04:	3e 16 10 00 
  404e08:	28 00 00 00 	lw $2,2496($29)
  404e0c:	c0 09 02 1d 
  404e10:	43 00 00 00 	addiu $3,$0,-4
  404e14:	fc ff 03 00 
  404e18:	43 00 00 00 	addiu $2,$2,3
  404e1c:	03 00 02 02 
  404e20:	4e 00 00 00 	and $2,$2,$3
  404e24:	00 02 03 02 
  404e28:	28 00 00 00 	lw $3,0($2)
  404e2c:	00 00 03 02 
  404e30:	22 00 00 00 	lbu $15,2352($29)
  404e34:	30 09 0f 1d 
  404e38:	43 00 00 00 	addiu $2,$2,4
  404e3c:	04 00 02 02 
  404e40:	42 00 00 00 	addu $16,$0,$3
  404e44:	00 10 03 00 
  404e48:	59 00 00 00 	sra $17,$3,0x1f
  404e4c:	1f 11 03 00 
  404e50:	34 00 00 00 	sw $2,2496($29)
  404e54:	c0 09 02 1d 
  404e58:	42 00 00 00 	addu $2,$0,$15
  404e5c:	00 02 0f 00 
  404e60:	06 00 00 00 	bne $2,$0,404f10 <vfprintf+0x1940>
  404e64:	2a 00 00 02 
  404e68:	43 00 00 00 	addiu $22,$22,-1
  404e6c:	ff ff 16 16 
  404e70:	07 00 00 00 	blez $22,404f10 <vfprintf+0x1940>
  404e74:	26 00 00 16 
  404e78:	28 00 00 00 	lw $3,4($20)
  404e7c:	04 00 03 14 
  404e80:	28 00 00 00 	lw $2,12($20)
  404e84:	0c 00 02 14 
  404e88:	5d 00 00 00 	sltu $2,$3,$2
  404e8c:	00 02 02 03 
  404e90:	06 00 00 00 	bne $2,$0,404ed8 <vfprintf+0x1908>
  404e94:	10 00 00 02 
  404e98:	42 00 00 00 	addu $4,$0,$20
  404e9c:	00 04 14 00 
  404ea0:	43 00 00 00 	addiu $5,$0,32
  404ea4:	20 00 05 00 
  404ea8:	34 00 00 00 	sw $8,2432($29)
  404eac:	80 09 08 1d 
  404eb0:	02 00 00 00 	jal 408380 <__flshfp>
  404eb4:	e0 20 10 00 
  404eb8:	28 00 00 00 	lw $8,2432($29)
  404ebc:	80 09 08 1d 
  404ec0:	43 00 00 00 	addiu $14,$0,-1
  404ec4:	ff ff 0e 00 
  404ec8:	06 00 00 00 	bne $2,$14,404ef8 <vfprintf+0x1928>
  404ecc:	0a 00 0e 02 
  404ed0:	01 00 00 00 	j 403b48 <vfprintf+0x578>
  404ed4:	d2 0e 10 00 
  404ed8:	43 00 00 00 	addiu $2,$3,1
  404edc:	01 00 02 03 
  404ee0:	34 00 00 00 	sw $2,4($20)
  404ee4:	04 00 02 14 
  404ee8:	43 00 00 00 	addiu $15,$0,32
  404eec:	20 00 0f 00 
  404ef0:	30 00 00 00 	sb $15,0($3)
  404ef4:	00 00 0f 03 
  404ef8:	43 00 00 00 	addiu $21,$21,1
  404efc:	01 00 15 15 
  404f00:	43 00 00 00 	addiu $22,$22,-1
  404f04:	ff ff 16 16 
  404f08:	08 00 00 00 	bgtz $22,404e78 <vfprintf+0x18a8>
  404f0c:	da ff 00 16 
  404f10:	28 00 00 00 	lw $4,4($20)
  404f14:	04 00 04 14 
  404f18:	28 00 00 00 	lw $2,12($20)
  404f1c:	0c 00 02 14 
  404f20:	4f 00 00 00 	andi $5,$16,255
  404f24:	ff 00 05 10 
  404f28:	5d 00 00 00 	sltu $2,$4,$2
  404f2c:	00 02 02 04 
  404f30:	05 00 00 00 	beq $2,$0,404f78 <vfprintf+0x19a8>
  404f34:	10 00 00 02 
  404f38:	43 00 00 00 	addiu $2,$4,1
  404f3c:	01 00 02 04 
  404f40:	34 00 00 00 	sw $2,4($20)
  404f44:	04 00 02 14 
  404f48:	42 00 00 00 	addu $2,$0,$5
  404f4c:	00 02 05 00 
  404f50:	30 00 00 00 	sb $2,0($4)
  404f54:	00 00 02 04 
  404f58:	4f 00 00 00 	andi $2,$2,255
  404f5c:	ff 00 02 02 
  404f60:	43 00 00 00 	addiu $14,$0,-1
  404f64:	ff ff 0e 00 
  404f68:	05 00 00 00 	beq $2,$14,403b48 <vfprintf+0x578>
  404f6c:	f6 fa 0e 02 
  404f70:	01 00 00 00 	j 404fa8 <vfprintf+0x19d8>
  404f74:	ea 13 10 00 
  404f78:	42 00 00 00 	addu $4,$0,$20
  404f7c:	00 04 14 00 
  404f80:	34 00 00 00 	sw $8,2432($29)
  404f84:	80 09 08 1d 
  404f88:	02 00 00 00 	jal 408380 <__flshfp>
  404f8c:	e0 20 10 00 
  404f90:	28 00 00 00 	lw $8,2432($29)
  404f94:	80 09 08 1d 
  404f98:	43 00 00 00 	addiu $15,$0,-1
  404f9c:	ff ff 0f 00 
  404fa0:	05 00 00 00 	beq $2,$15,403b48 <vfprintf+0x578>
  404fa4:	e8 fa 0f 02 
  404fa8:	43 00 00 00 	addiu $21,$21,1
  404fac:	01 00 15 15 
  404fb0:	22 00 00 00 	lbu $14,2352($29)
  404fb4:	30 09 0e 1d 
  404fb8:	42 00 00 00 	addu $2,$0,$14
  404fbc:	00 02 0e 00 
  404fc0:	05 00 00 00 	beq $2,$0,405a68 <vfprintf+0x2498>
  404fc4:	a8 02 00 02 
  404fc8:	43 00 00 00 	addiu $22,$22,-1
  404fcc:	ff ff 16 16 
  404fd0:	07 00 00 00 	blez $22,405a68 <vfprintf+0x2498>
  404fd4:	a4 02 00 16 
  404fd8:	28 00 00 00 	lw $3,4($20)
  404fdc:	04 00 03 14 
  404fe0:	28 00 00 00 	lw $2,12($20)
  404fe4:	0c 00 02 14 
  404fe8:	5d 00 00 00 	sltu $2,$3,$2
  404fec:	00 02 02 03 
  404ff0:	06 00 00 00 	bne $2,$0,405038 <vfprintf+0x1a68>
  404ff4:	10 00 00 02 
  404ff8:	42 00 00 00 	addu $4,$0,$20
  404ffc:	00 04 14 00 
  405000:	43 00 00 00 	addiu $5,$0,32
  405004:	20 00 05 00 
  405008:	34 00 00 00 	sw $8,2432($29)
  40500c:	80 09 08 1d 
  405010:	02 00 00 00 	jal 408380 <__flshfp>
  405014:	e0 20 10 00 
  405018:	28 00 00 00 	lw $8,2432($29)
  40501c:	80 09 08 1d 
  405020:	43 00 00 00 	addiu $15,$0,-1
  405024:	ff ff 0f 00 
  405028:	06 00 00 00 	bne $2,$15,405058 <vfprintf+0x1a88>
  40502c:	0a 00 0f 02 
  405030:	01 00 00 00 	j 403b48 <vfprintf+0x578>
  405034:	d2 0e 10 00 
  405038:	43 00 00 00 	addiu $2,$3,1
  40503c:	01 00 02 03 
  405040:	34 00 00 00 	sw $2,4($20)
  405044:	04 00 02 14 
  405048:	43 00 00 00 	addiu $14,$0,32
  40504c:	20 00 0e 00 
  405050:	30 00 00 00 	sb $14,0($3)
  405054:	00 00 0e 03 
  405058:	43 00 00 00 	addiu $21,$21,1
  40505c:	01 00 15 15 
  405060:	43 00 00 00 	addiu $22,$22,-1
  405064:	ff ff 16 16 
  405068:	08 00 00 00 	bgtz $22,404fd8 <vfprintf+0x1a08>
  40506c:	da ff 00 16 
  405070:	01 00 00 00 	j 405a68 <vfprintf+0x2498>
  405074:	9a 16 10 00 
  405078:	28 00 00 00 	lw $2,2496($29)
  40507c:	c0 09 02 1d 
  405080:	43 00 00 00 	addiu $3,$0,-4
  405084:	fc ff 03 00 
  405088:	43 00 00 00 	addiu $2,$2,3
  40508c:	03 00 02 02 
  405090:	4e 00 00 00 	and $2,$2,$3
  405094:	00 02 03 02 
  405098:	28 00 00 00 	lw $16,0($2)
  40509c:	00 00 10 02 
  4050a0:	43 00 00 00 	addiu $2,$2,4
  4050a4:	04 00 02 02 
  4050a8:	34 00 00 00 	sw $2,2496($29)
  4050ac:	c0 09 02 1d 
  4050b0:	06 00 00 00 	bne $16,$0,405108 <vfprintf+0x1b38>
  4050b4:	14 00 00 10 
  4050b8:	43 00 00 00 	addiu $15,$0,-1
  4050bc:	ff ff 0f 00 
  4050c0:	05 00 00 00 	beq $30,$15,4050d8 <vfprintf+0x1b08>
  4050c4:	04 00 0f 1e 
  4050c8:	5c 00 00 00 	slti $2,$30,6
  4050cc:	06 00 02 1e 
  4050d0:	06 00 00 00 	bne $2,$0,4050f0 <vfprintf+0x1b20>
  4050d4:	06 00 00 02 
  4050d8:	43 00 00 00 	addiu $16,$28,-32672
  4050dc:	60 80 10 1c 
  4050e0:	43 00 00 00 	addiu $17,$0,6
  4050e4:	06 00 11 00 
  4050e8:	01 00 00 00 	j 405130 <vfprintf+0x1b60>
  4050ec:	4c 14 10 00 
  4050f0:	43 00 00 00 	addiu $16,$28,-32664
  4050f4:	68 80 10 1c 
  4050f8:	42 00 00 00 	addu $17,$0,$0
  4050fc:	00 11 00 00 
  405100:	01 00 00 00 	j 405130 <vfprintf+0x1b60>
  405104:	4c 14 10 00 
  405108:	42 00 00 00 	addu $4,$0,$16
  40510c:	00 04 10 00 
  405110:	34 00 00 00 	sw $8,2432($29)
  405114:	80 09 08 1d 
  405118:	02 00 00 00 	jal 40a110 <strlen>
  40511c:	44 28 10 00 
  405120:	42 00 00 00 	addu $17,$0,$2
  405124:	00 11 02 00 
  405128:	28 00 00 00 	lw $8,2432($29)
  40512c:	80 09 08 1d 
  405130:	43 00 00 00 	addiu $14,$0,-1
  405134:	ff ff 0e 00 
  405138:	05 00 00 00 	beq $30,$14,405158 <vfprintf+0x1b88>
  40513c:	06 00 0e 1e 
  405140:	5d 00 00 00 	sltu $2,$30,$17
  405144:	00 02 11 1e 
  405148:	05 00 00 00 	beq $2,$0,405158 <vfprintf+0x1b88>
  40514c:	02 00 00 02 
  405150:	42 00 00 00 	addu $17,$0,$30
  405154:	00 11 1e 00 
  405158:	22 00 00 00 	lbu $15,2352($29)
  40515c:	30 09 0f 1d 
  405160:	45 00 00 00 	subu $22,$22,$17
  405164:	00 16 11 16 
  405168:	42 00 00 00 	addu $2,$0,$15
  40516c:	00 02 0f 00 
  405170:	06 00 00 00 	bne $2,$0,405220 <vfprintf+0x1c50>
  405174:	2a 00 00 02 
  405178:	01 00 00 00 	j 405208 <vfprintf+0x1c38>
  40517c:	82 14 10 00 
  405180:	28 00 00 00 	lw $3,4($20)
  405184:	04 00 03 14 
  405188:	28 00 00 00 	lw $2,12($20)
  40518c:	0c 00 02 14 
  405190:	5d 00 00 00 	sltu $2,$3,$2
  405194:	00 02 02 03 
  405198:	06 00 00 00 	bne $2,$0,4051e0 <vfprintf+0x1c10>
  40519c:	10 00 00 02 
  4051a0:	42 00 00 00 	addu $4,$0,$20
  4051a4:	00 04 14 00 
  4051a8:	43 00 00 00 	addiu $5,$0,32
  4051ac:	20 00 05 00 
  4051b0:	34 00 00 00 	sw $8,2432($29)
  4051b4:	80 09 08 1d 
  4051b8:	02 00 00 00 	jal 408380 <__flshfp>
  4051bc:	e0 20 10 00 
  4051c0:	28 00 00 00 	lw $8,2432($29)
  4051c4:	80 09 08 1d 
  4051c8:	43 00 00 00 	addiu $14,$0,-1
  4051cc:	ff ff 0e 00 
  4051d0:	06 00 00 00 	bne $2,$14,405200 <vfprintf+0x1c30>
  4051d4:	0a 00 0e 02 
  4051d8:	01 00 00 00 	j 403b48 <vfprintf+0x578>
  4051dc:	d2 0e 10 00 
  4051e0:	43 00 00 00 	addiu $2,$3,1
  4051e4:	01 00 02 03 
  4051e8:	34 00 00 00 	sw $2,4($20)
  4051ec:	04 00 02 14 
  4051f0:	43 00 00 00 	addiu $15,$0,32
  4051f4:	20 00 0f 00 
  4051f8:	30 00 00 00 	sb $15,0($3)
  4051fc:	00 00 0f 03 
  405200:	43 00 00 00 	addiu $21,$21,1
  405204:	01 00 15 15 
  405208:	42 00 00 00 	addu $2,$0,$22
  40520c:	00 02 16 00 
  405210:	43 00 00 00 	addiu $22,$22,-1
  405214:	ff ff 16 16 
  405218:	08 00 00 00 	bgtz $2,405180 <vfprintf+0x1bb0>
  40521c:	d8 ff 00 02 
  405220:	5e 00 00 00 	sltiu $2,$17,20
  405224:	14 00 02 11 
  405228:	05 00 00 00 	beq $2,$0,405318 <vfprintf+0x1d48>
  40522c:	3a 00 00 02 
  405230:	42 00 00 00 	addu $2,$0,$17
  405234:	00 02 11 00 
  405238:	43 00 00 00 	addiu $17,$17,-1
  40523c:	ff ff 11 11 
  405240:	05 00 00 00 	beq $2,$0,405360 <vfprintf+0x1d90>
  405244:	46 00 00 02 
  405248:	20 00 00 00 	lb $5,0($16)
  40524c:	00 00 05 10 
  405250:	28 00 00 00 	lw $3,4($20)
  405254:	04 00 03 14 
  405258:	28 00 00 00 	lw $2,12($20)
  40525c:	0c 00 02 14 
  405260:	43 00 00 00 	addiu $16,$16,1
  405264:	01 00 10 10 
  405268:	5d 00 00 00 	sltu $2,$3,$2
  40526c:	00 02 02 03 
  405270:	05 00 00 00 	beq $2,$0,4052b8 <vfprintf+0x1ce8>
  405274:	10 00 00 02 
  405278:	43 00 00 00 	addiu $2,$3,1
  40527c:	01 00 02 03 
  405280:	34 00 00 00 	sw $2,4($20)
  405284:	04 00 02 14 
  405288:	42 00 00 00 	addu $2,$0,$5
  40528c:	00 02 05 00 
  405290:	30 00 00 00 	sb $2,0($3)
  405294:	00 00 02 03 
  405298:	4f 00 00 00 	andi $2,$2,255
  40529c:	ff 00 02 02 
  4052a0:	43 00 00 00 	addiu $14,$0,-1
  4052a4:	ff ff 0e 00 
  4052a8:	05 00 00 00 	beq $2,$14,403b48 <vfprintf+0x578>
  4052ac:	26 fa 0e 02 
  4052b0:	01 00 00 00 	j 4052f0 <vfprintf+0x1d20>
  4052b4:	bc 14 10 00 
  4052b8:	42 00 00 00 	addu $4,$0,$20
  4052bc:	00 04 14 00 
  4052c0:	4f 00 00 00 	andi $5,$5,255
  4052c4:	ff 00 05 05 
  4052c8:	34 00 00 00 	sw $8,2432($29)
  4052cc:	80 09 08 1d 
  4052d0:	02 00 00 00 	jal 408380 <__flshfp>
  4052d4:	e0 20 10 00 
  4052d8:	28 00 00 00 	lw $8,2432($29)
  4052dc:	80 09 08 1d 
  4052e0:	43 00 00 00 	addiu $15,$0,-1
  4052e4:	ff ff 0f 00 
  4052e8:	05 00 00 00 	beq $2,$15,403b48 <vfprintf+0x578>
  4052ec:	16 fa 0f 02 
  4052f0:	43 00 00 00 	addiu $21,$21,1
  4052f4:	01 00 15 15 
  4052f8:	42 00 00 00 	addu $2,$0,$17
  4052fc:	00 02 11 00 
  405300:	43 00 00 00 	addiu $17,$17,-1
  405304:	ff ff 11 11 
  405308:	06 00 00 00 	bne $2,$0,405248 <vfprintf+0x1c78>
  40530c:	ce ff 00 02 
  405310:	01 00 00 00 	j 405360 <vfprintf+0x1d90>
  405314:	d8 14 10 00 
  405318:	42 00 00 00 	addu $4,$0,$16
  40531c:	00 04 10 00 
  405320:	43 00 00 00 	addiu $5,$0,1
  405324:	01 00 05 00 
  405328:	42 00 00 00 	addu $6,$0,$17
  40532c:	00 06 11 00 
  405330:	42 00 00 00 	addu $7,$0,$20
  405334:	00 07 14 00 
  405338:	34 00 00 00 	sw $8,2432($29)
  40533c:	80 09 08 1d 
  405340:	02 00 00 00 	jal 40a400 <fwrite>
  405344:	00 29 10 00 
  405348:	28 00 00 00 	lw $8,2432($29)
  40534c:	80 09 08 1d 
  405350:	06 00 00 00 	bne $2,$17,403b48 <vfprintf+0x578>
  405354:	fc f9 11 02 
  405358:	42 00 00 00 	addu $21,$21,$17
  40535c:	00 15 11 15 
  405360:	22 00 00 00 	lbu $14,2352($29)
  405364:	30 09 0e 1d 
  405368:	42 00 00 00 	addu $2,$0,$14
  40536c:	00 02 0e 00 
  405370:	05 00 00 00 	beq $2,$0,405a68 <vfprintf+0x2498>
  405374:	bc 01 00 02 
  405378:	42 00 00 00 	addu $2,$0,$22
  40537c:	00 02 16 00 
  405380:	43 00 00 00 	addiu $22,$22,-1
  405384:	ff ff 16 16 
  405388:	07 00 00 00 	blez $2,405a68 <vfprintf+0x2498>
  40538c:	b6 01 00 02 
  405390:	28 00 00 00 	lw $3,4($20)
  405394:	04 00 03 14 
  405398:	28 00 00 00 	lw $2,12($20)
  40539c:	0c 00 02 14 
  4053a0:	5d 00 00 00 	sltu $2,$3,$2
  4053a4:	00 02 02 03 
  4053a8:	06 00 00 00 	bne $2,$0,4053f0 <vfprintf+0x1e20>
  4053ac:	10 00 00 02 
  4053b0:	42 00 00 00 	addu $4,$0,$20
  4053b4:	00 04 14 00 
  4053b8:	43 00 00 00 	addiu $5,$0,32
  4053bc:	20 00 05 00 
  4053c0:	34 00 00 00 	sw $8,2432($29)
  4053c4:	80 09 08 1d 
  4053c8:	02 00 00 00 	jal 408380 <__flshfp>
  4053cc:	e0 20 10 00 
  4053d0:	28 00 00 00 	lw $8,2432($29)
  4053d4:	80 09 08 1d 
  4053d8:	43 00 00 00 	addiu $15,$0,-1
  4053dc:	ff ff 0f 00 
  4053e0:	06 00 00 00 	bne $2,$15,405410 <vfprintf+0x1e40>
  4053e4:	0a 00 0f 02 
  4053e8:	01 00 00 00 	j 403b48 <vfprintf+0x578>
  4053ec:	d2 0e 10 00 
  4053f0:	43 00 00 00 	addiu $2,$3,1
  4053f4:	01 00 02 03 
  4053f8:	34 00 00 00 	sw $2,4($20)
  4053fc:	04 00 02 14 
  405400:	43 00 00 00 	addiu $14,$0,32
  405404:	20 00 0e 00 
  405408:	30 00 00 00 	sb $14,0($3)
  40540c:	00 00 0e 03 
  405410:	43 00 00 00 	addiu $21,$21,1
  405414:	01 00 15 15 
  405418:	42 00 00 00 	addu $2,$0,$22
  40541c:	00 02 16 00 
  405420:	43 00 00 00 	addiu $22,$22,-1
  405424:	ff ff 16 16 
  405428:	08 00 00 00 	bgtz $2,405390 <vfprintf+0x1dc0>
  40542c:	d8 ff 00 02 
  405430:	01 00 00 00 	j 405a68 <vfprintf+0x2498>
  405434:	9a 16 10 00 
  405438:	28 00 00 00 	lw $2,2496($29)
  40543c:	c0 09 02 1d 
  405440:	43 00 00 00 	addiu $3,$0,-4
  405444:	fc ff 03 00 
  405448:	43 00 00 00 	addiu $2,$2,3
  40544c:	03 00 02 02 
  405450:	4e 00 00 00 	and $2,$2,$3
  405454:	00 02 03 02 
  405458:	28 00 00 00 	lw $3,0($2)
  40545c:	00 00 03 02 
  405460:	43 00 00 00 	addiu $2,$2,4
  405464:	04 00 02 02 
  405468:	34 00 00 00 	sw $2,2496($29)
  40546c:	c0 09 02 1d 
  405470:	05 00 00 00 	beq $3,$0,4054c0 <vfprintf+0x1ef0>
  405474:	12 00 00 03 
  405478:	43 00 00 00 	addiu $15,$0,16
  40547c:	10 00 0f 00 
  405480:	43 00 00 00 	addiu $14,$0,120
  405484:	78 00 0e 00 
  405488:	34 00 00 00 	sw $15,2392($29)
  40548c:	58 09 0f 1d 
  405490:	43 00 00 00 	addiu $15,$0,1
  405494:	01 00 0f 00 
  405498:	42 00 00 00 	addu $16,$0,$3
  40549c:	00 10 03 00 
  4054a0:	42 00 00 00 	addu $17,$0,$0
  4054a4:	00 11 00 00 
  4054a8:	30 00 00 00 	sb $14,2384($29)
  4054ac:	50 09 0e 1d 
  4054b0:	30 00 00 00 	sb $15,2360($29)
  4054b4:	38 09 0f 1d 
  4054b8:	01 00 00 00 	j 404450 <vfprintf+0xe80>
  4054bc:	14 11 10 00 
  4054c0:	22 00 00 00 	lbu $14,2352($29)
  4054c4:	30 09 0e 1d 
  4054c8:	43 00 00 00 	addiu $22,$22,-5
  4054cc:	fb ff 16 16 
  4054d0:	42 00 00 00 	addu $2,$0,$14
  4054d4:	00 02 0e 00 
  4054d8:	06 00 00 00 	bne $2,$0,405588 <vfprintf+0x1fb8>
  4054dc:	2a 00 00 02 
  4054e0:	01 00 00 00 	j 405570 <vfprintf+0x1fa0>
  4054e4:	5c 15 10 00 
  4054e8:	28 00 00 00 	lw $3,4($20)
  4054ec:	04 00 03 14 
  4054f0:	28 00 00 00 	lw $2,12($20)
  4054f4:	0c 00 02 14 
  4054f8:	5d 00 00 00 	sltu $2,$3,$2
  4054fc:	00 02 02 03 
  405500:	06 00 00 00 	bne $2,$0,405548 <vfprintf+0x1f78>
  405504:	10 00 00 02 
  405508:	42 00 00 00 	addu $4,$0,$20
  40550c:	00 04 14 00 
  405510:	43 00 00 00 	addiu $5,$0,32
  405514:	20 00 05 00 
  405518:	34 00 00 00 	sw $8,2432($29)
  40551c:	80 09 08 1d 
  405520:	02 00 00 00 	jal 408380 <__flshfp>
  405524:	e0 20 10 00 
  405528:	28 00 00 00 	lw $8,2432($29)
  40552c:	80 09 08 1d 
  405530:	43 00 00 00 	addiu $15,$0,-1
  405534:	ff ff 0f 00 
  405538:	06 00 00 00 	bne $2,$15,405568 <vfprintf+0x1f98>
  40553c:	0a 00 0f 02 
  405540:	01 00 00 00 	j 403b48 <vfprintf+0x578>
  405544:	d2 0e 10 00 
  405548:	43 00 00 00 	addiu $2,$3,1
  40554c:	01 00 02 03 
  405550:	34 00 00 00 	sw $2,4($20)
  405554:	04 00 02 14 
  405558:	43 00 00 00 	addiu $14,$0,32
  40555c:	20 00 0e 00 
  405560:	30 00 00 00 	sb $14,0($3)
  405564:	00 00 0e 03 
  405568:	43 00 00 00 	addiu $21,$21,1
  40556c:	01 00 15 15 
  405570:	42 00 00 00 	addu $2,$0,$22
  405574:	00 02 16 00 
  405578:	43 00 00 00 	addiu $22,$22,-1
  40557c:	ff ff 16 16 
  405580:	08 00 00 00 	bgtz $2,4054e8 <vfprintf+0x1f18>
  405584:	d8 ff 00 02 
  405588:	20 00 00 00 	lb $2,-32660($28)
  40558c:	6c 80 02 1c 
  405590:	43 00 00 00 	addiu $16,$28,-32660
  405594:	6c 80 10 1c 
  405598:	05 00 00 00 	beq $2,$0,405660 <vfprintf+0x2090>
  40559c:	30 00 00 02 
  4055a0:	28 00 00 00 	lw $3,4($20)
  4055a4:	04 00 03 14 
  4055a8:	28 00 00 00 	lw $2,12($20)
  4055ac:	0c 00 02 14 
  4055b0:	20 00 00 00 	lb $5,0($16)
  4055b4:	00 00 05 10 
  4055b8:	5d 00 00 00 	sltu $2,$3,$2
  4055bc:	00 02 02 03 
  4055c0:	05 00 00 00 	beq $2,$0,405608 <vfprintf+0x2038>
  4055c4:	10 00 00 02 
  4055c8:	43 00 00 00 	addiu $2,$3,1
  4055cc:	01 00 02 03 
  4055d0:	34 00 00 00 	sw $2,4($20)
  4055d4:	04 00 02 14 
  4055d8:	42 00 00 00 	addu $2,$0,$5
  4055dc:	00 02 05 00 
  4055e0:	30 00 00 00 	sb $2,0($3)
  4055e4:	00 00 02 03 
  4055e8:	4f 00 00 00 	andi $2,$2,255
  4055ec:	ff 00 02 02 
  4055f0:	43 00 00 00 	addiu $15,$0,-1
  4055f4:	ff ff 0f 00 
  4055f8:	05 00 00 00 	beq $2,$15,403b48 <vfprintf+0x578>
  4055fc:	52 f9 0f 02 
  405600:	01 00 00 00 	j 405640 <vfprintf+0x2070>
  405604:	90 15 10 00 
  405608:	42 00 00 00 	addu $4,$0,$20
  40560c:	00 04 14 00 
  405610:	4f 00 00 00 	andi $5,$5,255
  405614:	ff 00 05 05 
  405618:	34 00 00 00 	sw $8,2432($29)
  40561c:	80 09 08 1d 
  405620:	02 00 00 00 	jal 408380 <__flshfp>
  405624:	e0 20 10 00 
  405628:	28 00 00 00 	lw $8,2432($29)
  40562c:	80 09 08 1d 
  405630:	43 00 00 00 	addiu $14,$0,-1
  405634:	ff ff 0e 00 
  405638:	05 00 00 00 	beq $2,$14,403b48 <vfprintf+0x578>
  40563c:	42 f9 0e 02 
  405640:	43 00 00 00 	addiu $21,$21,1
  405644:	01 00 15 15 
  405648:	43 00 00 00 	addiu $16,$16,1
  40564c:	01 00 10 10 
  405650:	20 00 00 00 	lb $2,0($16)
  405654:	00 00 02 10 
  405658:	06 00 00 00 	bne $2,$0,4055a0 <vfprintf+0x1fd0>
  40565c:	d0 ff 00 02 
  405660:	22 00 00 00 	lbu $15,2352($29)
  405664:	30 09 0f 1d 
  405668:	42 00 00 00 	addu $2,$0,$15
  40566c:	00 02 0f 00 
  405670:	05 00 00 00 	beq $2,$0,405a68 <vfprintf+0x2498>
  405674:	fc 00 00 02 
  405678:	42 00 00 00 	addu $2,$0,$22
  40567c:	00 02 16 00 
  405680:	43 00 00 00 	addiu $22,$22,-1
  405684:	ff ff 16 16 
  405688:	07 00 00 00 	blez $2,405a68 <vfprintf+0x2498>
  40568c:	f6 00 00 02 
  405690:	28 00 00 00 	lw $3,4($20)
  405694:	04 00 03 14 
  405698:	28 00 00 00 	lw $2,12($20)
  40569c:	0c 00 02 14 
  4056a0:	5d 00 00 00 	sltu $2,$3,$2
  4056a4:	00 02 02 03 
  4056a8:	06 00 00 00 	bne $2,$0,4056f0 <vfprintf+0x2120>
  4056ac:	10 00 00 02 
  4056b0:	42 00 00 00 	addu $4,$0,$20
  4056b4:	00 04 14 00 
  4056b8:	43 00 00 00 	addiu $5,$0,32
  4056bc:	20 00 05 00 
  4056c0:	34 00 00 00 	sw $8,2432($29)
  4056c4:	80 09 08 1d 
  4056c8:	02 00 00 00 	jal 408380 <__flshfp>
  4056cc:	e0 20 10 00 
  4056d0:	28 00 00 00 	lw $8,2432($29)
  4056d4:	80 09 08 1d 
  4056d8:	43 00 00 00 	addiu $14,$0,-1
  4056dc:	ff ff 0e 00 
  4056e0:	06 00 00 00 	bne $2,$14,405710 <vfprintf+0x2140>
  4056e4:	0a 00 0e 02 
  4056e8:	01 00 00 00 	j 403b48 <vfprintf+0x578>
  4056ec:	d2 0e 10 00 
  4056f0:	43 00 00 00 	addiu $2,$3,1
  4056f4:	01 00 02 03 
  4056f8:	34 00 00 00 	sw $2,4($20)
  4056fc:	04 00 02 14 
  405700:	43 00 00 00 	addiu $15,$0,32
  405704:	20 00 0f 00 
  405708:	30 00 00 00 	sb $15,0($3)
  40570c:	00 00 0f 03 
  405710:	43 00 00 00 	addiu $21,$21,1
  405714:	01 00 15 15 
  405718:	42 00 00 00 	addu $2,$0,$22
  40571c:	00 02 16 00 
  405720:	43 00 00 00 	addiu $22,$22,-1
  405724:	ff ff 16 16 
  405728:	08 00 00 00 	bgtz $2,405690 <vfprintf+0x20c0>
  40572c:	d8 ff 00 02 
  405730:	01 00 00 00 	j 405a68 <vfprintf+0x2498>
  405734:	9a 16 10 00 
  405738:	42 00 00 00 	addu $2,$0,$7
  40573c:	00 02 07 00 
  405740:	05 00 00 00 	beq $2,$0,4057a8 <vfprintf+0x21d8>
  405744:	18 00 00 02 
  405748:	28 00 00 00 	lw $4,2496($29)
  40574c:	c0 09 04 1d 
  405750:	43 00 00 00 	addiu $5,$0,-4
  405754:	fc ff 05 00 
  405758:	43 00 00 00 	addiu $4,$4,3
  40575c:	03 00 04 04 
  405760:	4e 00 00 00 	and $4,$4,$5
  405764:	00 04 05 04 
  405768:	28 00 00 00 	lw $5,0($4)
  40576c:	00 00 05 04 
  405770:	42 00 00 00 	addu $2,$0,$21
  405774:	00 02 15 00 
  405778:	42 00 00 00 	addu $3,$0,$0
  40577c:	00 03 00 00 
  405780:	43 00 00 00 	addiu $4,$4,4
  405784:	04 00 04 04 
  405788:	34 00 00 00 	sw $4,2496($29)
  40578c:	c0 09 04 1d 
  405790:	34 00 00 00 	sw $2,0($5)
  405794:	00 00 02 05 
  405798:	34 00 00 00 	sw $3,4($5)
  40579c:	04 00 03 05 
  4057a0:	01 00 00 00 	j 405a68 <vfprintf+0x2498>
  4057a4:	9a 16 10 00 
  4057a8:	42 00 00 00 	addu $2,$0,$10
  4057ac:	00 02 0a 00 
  4057b0:	06 00 00 00 	bne $2,$0,4057c8 <vfprintf+0x21f8>
  4057b4:	04 00 00 02 
  4057b8:	42 00 00 00 	addu $2,$0,$11
  4057bc:	00 02 0b 00 
  4057c0:	06 00 00 00 	bne $2,$0,405810 <vfprintf+0x2240>
  4057c4:	12 00 00 02 
  4057c8:	28 00 00 00 	lw $2,2496($29)
  4057cc:	c0 09 02 1d 
  4057d0:	43 00 00 00 	addiu $3,$0,-4
  4057d4:	fc ff 03 00 
  4057d8:	43 00 00 00 	addiu $2,$2,3
  4057dc:	03 00 02 02 
  4057e0:	4e 00 00 00 	and $2,$2,$3
  4057e4:	00 02 03 02 
  4057e8:	28 00 00 00 	lw $3,0($2)
  4057ec:	00 00 03 02 
  4057f0:	43 00 00 00 	addiu $2,$2,4
  4057f4:	04 00 02 02 
  4057f8:	34 00 00 00 	sw $2,2496($29)
  4057fc:	c0 09 02 1d 
  405800:	34 00 00 00 	sw $21,0($3)
  405804:	00 00 15 03 
  405808:	01 00 00 00 	j 405a68 <vfprintf+0x2498>
  40580c:	9a 16 10 00 
  405810:	28 00 00 00 	lw $2,2496($29)
  405814:	c0 09 02 1d 
  405818:	43 00 00 00 	addiu $3,$0,-4
  40581c:	fc ff 03 00 
  405820:	43 00 00 00 	addiu $2,$2,3
  405824:	03 00 02 02 
  405828:	4e 00 00 00 	and $2,$2,$3
  40582c:	00 02 03 02 
  405830:	28 00 00 00 	lw $3,0($2)
  405834:	00 00 03 02 
  405838:	43 00 00 00 	addiu $2,$2,4
  40583c:	04 00 02 02 
  405840:	34 00 00 00 	sw $2,2496($29)
  405844:	c0 09 02 1d 
  405848:	32 00 00 00 	sh $21,0($3)
  40584c:	00 00 15 03 
  405850:	01 00 00 00 	j 405a68 <vfprintf+0x2498>
  405854:	9a 16 10 00 
  405858:	28 00 00 00 	lw $6,-32416($28)
  40585c:	60 81 06 1c 
  405860:	09 00 00 00 	bltz $6,405880 <vfprintf+0x22b0>
  405864:	06 00 00 06 
  405868:	28 00 00 00 	lw $2,-32592($28)
  40586c:	b0 80 02 1c 
  405870:	5b 00 00 00 	slt $2,$2,$6
  405874:	00 02 06 02 
  405878:	05 00 00 00 	beq $2,$0,4058c0 <vfprintf+0x22f0>
  40587c:	10 00 00 02 
  405880:	43 00 00 00 	addiu $16,$29,1040
  405884:	10 04 10 1d 
  405888:	42 00 00 00 	addu $4,$0,$16
  40588c:	00 04 10 00 
  405890:	a2 00 00 00 	lui $5,4096
  405894:	00 10 05 00 
  405898:	43 00 00 00 	addiu $5,$5,576
  40589c:	40 02 05 05 
  4058a0:	34 00 00 00 	sw $8,2432($29)
  4058a4:	80 09 08 1d 
  4058a8:	02 00 00 00 	jal 40f6f0 <sprintf>
  4058ac:	bc 3d 10 00 
  4058b0:	28 00 00 00 	lw $8,2432($29)
  4058b4:	80 09 08 1d 
  4058b8:	01 00 00 00 	j 4050b0 <vfprintf+0x1ae0>
  4058bc:	2c 14 10 00 
  4058c0:	55 00 00 00 	sll $2,$6,0x2
  4058c4:	02 02 06 00 
  4058c8:	a2 00 00 00 	lui $16,4096
  4058cc:	00 10 10 00 
  4058d0:	42 00 00 00 	addu $16,$16,$2
  4058d4:	00 10 02 10 
  4058d8:	28 00 00 00 	lw $16,1072($16)
  4058dc:	30 04 10 10 
  4058e0:	01 00 00 00 	j 4050b0 <vfprintf+0x1ae0>
  4058e4:	2c 14 10 00 
  4058e8:	a2 00 00 00 	lui $9,64
  4058ec:	40 00 09 00 
  4058f0:	43 00 00 00 	addiu $9,$9,23368
  4058f4:	48 5b 09 09 
  4058f8:	22 00 00 00 	lbu $14,2384($29)
  4058fc:	50 09 0e 1d 
  405900:	22 00 00 00 	lbu $15,2360($29)
  405904:	38 09 0f 1d 
  405908:	42 00 00 00 	addu $4,$0,$20
  40590c:	00 04 14 00 
  405910:	43 00 00 00 	addiu $5,$29,2320
  405914:	10 09 05 1d 
  405918:	30 00 00 00 	sb $14,2328($29)
  40591c:	18 09 0e 1d 
  405920:	28 00 00 00 	lw $2,2328($29)
  405924:	18 09 02 1d 
  405928:	43 00 00 00 	addiu $6,$29,2496
  40592c:	c0 09 06 1d 
  405930:	43 00 00 00 	addiu $3,$0,-257
  405934:	ff fe 03 00 
  405938:	34 00 00 00 	sw $30,2320($29)
  40593c:	10 09 1e 1d 
  405940:	34 00 00 00 	sw $22,2324($29)
  405944:	14 09 16 1d 
  405948:	34 00 00 00 	sw $8,2432($29)
  40594c:	80 09 08 1d 
  405950:	22 00 00 00 	lbu $14,2352($29)
  405954:	30 09 0e 1d 
  405958:	4e 00 00 00 	and $2,$2,$3
  40595c:	00 02 03 02 
  405960:	55 00 00 00 	sll $3,$7,0x8
  405964:	08 03 07 00 
  405968:	50 00 00 00 	or $2,$2,$3
  40596c:	00 02 03 02 
  405970:	43 00 00 00 	addiu $3,$0,-513
  405974:	ff fd 03 00 
  405978:	4e 00 00 00 	and $2,$2,$3
  40597c:	00 02 03 02 
  405980:	55 00 00 00 	sll $3,$11,0x9
  405984:	09 03 0b 00 
  405988:	50 00 00 00 	or $2,$2,$3
  40598c:	00 02 03 02 
  405990:	43 00 00 00 	addiu $3,$0,-1025
  405994:	ff fb 03 00 
  405998:	4e 00 00 00 	and $2,$2,$3
  40599c:	00 02 03 02 
  4059a0:	55 00 00 00 	sll $3,$10,0xa
  4059a4:	0a 03 0a 00 
  4059a8:	50 00 00 00 	or $2,$2,$3
  4059ac:	00 02 03 02 
  4059b0:	43 00 00 00 	addiu $3,$0,-2049
  4059b4:	ff f7 03 00 
  4059b8:	4e 00 00 00 	and $2,$2,$3
  4059bc:	00 02 03 02 
  4059c0:	55 00 00 00 	sll $3,$15,0xb
  4059c4:	0b 03 0f 00 
  4059c8:	50 00 00 00 	or $2,$2,$3
  4059cc:	00 02 03 02 
  4059d0:	43 00 00 00 	addiu $3,$0,-4097
  4059d4:	ff ef 03 00 
  4059d8:	4e 00 00 00 	and $2,$2,$3
  4059dc:	00 02 03 02 
  4059e0:	55 00 00 00 	sll $3,$12,0xc
  4059e4:	0c 03 0c 00 
  4059e8:	50 00 00 00 	or $2,$2,$3
  4059ec:	00 02 03 02 
  4059f0:	43 00 00 00 	addiu $3,$0,-8193
  4059f4:	ff df 03 00 
  4059f8:	4e 00 00 00 	and $2,$2,$3
  4059fc:	00 02 03 02 
  405a00:	55 00 00 00 	sll $3,$14,0xd
  405a04:	0d 03 0e 00 
  405a08:	50 00 00 00 	or $2,$2,$3
  405a0c:	00 02 03 02 
  405a10:	43 00 00 00 	addiu $3,$0,-16385
  405a14:	ff bf 03 00 
  405a18:	4e 00 00 00 	and $2,$2,$3
  405a1c:	00 02 03 02 
  405a20:	22 00 00 00 	lbu $15,2368($29)
  405a24:	40 09 0f 1d 
  405a28:	55 00 00 00 	sll $3,$13,0xe
  405a2c:	0e 03 0d 00 
  405a30:	50 00 00 00 	or $2,$2,$3
  405a34:	00 02 03 02 
  405a38:	34 00 00 00 	sw $2,2328($29)
  405a3c:	18 09 02 1d 
  405a40:	30 00 00 00 	sb $15,2330($29)
  405a44:	1a 09 0f 1d 
  405a48:	04 00 00 00 	jalr $31,$9
  405a4c:	00 1f 00 09 
  405a50:	28 00 00 00 	lw $8,2432($29)
  405a54:	80 09 08 1d 
  405a58:	09 00 00 00 	bltz $2,403b48 <vfprintf+0x578>
  405a5c:	3a f8 00 02 
  405a60:	42 00 00 00 	addu $21,$21,$2
  405a64:	00 15 02 15 
  405a68:	20 00 00 00 	lb $2,0($8)
  405a6c:	00 00 02 08 
  405a70:	22 00 00 00 	lbu $3,0($8)
  405a74:	00 00 03 08 
  405a78:	06 00 00 00 	bne $2,$0,4037c0 <vfprintf+0x1f0>
  405a7c:	50 f7 00 02 
  405a80:	22 00 00 00 	lbu $14,2336($29)
  405a84:	20 09 0e 1d 
  405a88:	42 00 00 00 	addu $2,$0,$14
  405a8c:	00 02 0e 00 
  405a90:	05 00 00 00 	beq $2,$0,405ae0 <vfprintf+0x2510>
  405a94:	12 00 00 02 
  405a98:	42 00 00 00 	addu $4,$0,$20
  405a9c:	00 04 14 00 
  405aa0:	02 00 00 00 	jal 40f740 <fflush>
  405aa4:	d0 3d 10 00 
  405aa8:	43 00 00 00 	addiu $3,$0,-1
  405aac:	ff ff 03 00 
  405ab0:	05 00 00 00 	beq $2,$3,4036d0 <vfprintf+0x100>
  405ab4:	06 f7 03 02 
  405ab8:	34 00 00 00 	sw $0,12($20)
  405abc:	0c 00 00 14 
  405ac0:	34 00 00 00 	sw $0,8($20)
  405ac4:	08 00 00 14 
  405ac8:	34 00 00 00 	sw $0,4($20)
  405acc:	04 00 00 14 
  405ad0:	34 00 00 00 	sw $0,16($20)
  405ad4:	10 00 00 14 
  405ad8:	34 00 00 00 	sw $0,20($20)
  405adc:	14 00 00 14 
  405ae0:	42 00 00 00 	addu $2,$0,$21
  405ae4:	00 02 15 00 
  405ae8:	28 00 00 00 	lw $31,2484($29)
  405aec:	b4 09 1f 1d 
  405af0:	28 00 00 00 	lw $30,2480($29)
  405af4:	b0 09 1e 1d 
  405af8:	28 00 00 00 	lw $23,2476($29)
  405afc:	ac 09 17 1d 
  405b00:	28 00 00 00 	lw $22,2472($29)
  405b04:	a8 09 16 1d 
  405b08:	28 00 00 00 	lw $21,2468($29)
  405b0c:	a4 09 15 1d 
  405b10:	28 00 00 00 	lw $20,2464($29)
  405b14:	a0 09 14 1d 
  405b18:	28 00 00 00 	lw $19,2460($29)
  405b1c:	9c 09 13 1d 
  405b20:	28 00 00 00 	lw $18,2456($29)
  405b24:	98 09 12 1d 
  405b28:	28 00 00 00 	lw $17,2452($29)
  405b2c:	94 09 11 1d 
  405b30:	28 00 00 00 	lw $16,2448($29)
  405b34:	90 09 10 1d 
  405b38:	43 00 00 00 	addiu $29,$29,2488
  405b3c:	b8 09 1d 1d 
  405b40:	03 00 00 00 	jr $31
  405b44:	00 00 00 1f 

00405b48 <printf_unknown>:
  405b48:	43 00 00 00 	addiu $29,$29,-1072
  405b4c:	d0 fb 1d 1d 
  405b50:	34 00 00 00 	sw $16,1040($29)
  405b54:	10 04 10 1d 
  405b58:	42 00 00 00 	addu $16,$0,$4
  405b5c:	00 10 04 00 
  405b60:	34 00 00 00 	sw $21,1060($29)
  405b64:	24 04 15 1d 
  405b68:	42 00 00 00 	addu $21,$0,$5
  405b6c:	00 15 05 00 
  405b70:	34 00 00 00 	sw $31,1068($29)
  405b74:	2c 04 1f 1d 
  405b78:	34 00 00 00 	sw $22,1064($29)
  405b7c:	28 04 16 1d 
  405b80:	34 00 00 00 	sw $20,1056($29)
  405b84:	20 04 14 1d 
  405b88:	34 00 00 00 	sw $19,1052($29)
  405b8c:	1c 04 13 1d 
  405b90:	34 00 00 00 	sw $18,1048($29)
  405b94:	18 04 12 1d 
  405b98:	34 00 00 00 	sw $17,1044($29)
  405b9c:	14 04 11 1d 
  405ba0:	28 00 00 00 	lw $20,0($21)
  405ba4:	00 00 14 15 
  405ba8:	28 00 00 00 	lw $19,4($21)
  405bac:	04 00 13 15 
  405bb0:	42 00 00 00 	addu $18,$0,$0
  405bb4:	00 12 00 00 
  405bb8:	43 00 00 00 	addiu $22,$29,1039
  405bbc:	0f 04 16 1d 
  405bc0:	28 00 00 00 	lw $3,4($16)
  405bc4:	04 00 03 10 
  405bc8:	28 00 00 00 	lw $2,12($16)
  405bcc:	0c 00 02 10 
  405bd0:	5d 00 00 00 	sltu $2,$3,$2
  405bd4:	00 02 02 03 
  405bd8:	05 00 00 00 	beq $2,$0,405c08 <printf_unknown+0xc0>
  405bdc:	0a 00 00 02 
  405be0:	43 00 00 00 	addiu $2,$3,1
  405be4:	01 00 02 03 
  405be8:	34 00 00 00 	sw $2,4($16)
  405bec:	04 00 02 10 
  405bf0:	43 00 00 00 	addiu $2,$0,37
  405bf4:	25 00 02 00 
  405bf8:	30 00 00 00 	sb $2,0($3)
  405bfc:	00 00 02 03 
  405c00:	01 00 00 00 	j 405c30 <printf_unknown+0xe8>
  405c04:	0c 17 10 00 
  405c08:	42 00 00 00 	addu $4,$0,$16
  405c0c:	00 04 10 00 
  405c10:	43 00 00 00 	addiu $5,$0,37
  405c14:	25 00 05 00 
  405c18:	02 00 00 00 	jal 408380 <__flshfp>
  405c1c:	e0 20 10 00 
  405c20:	43 00 00 00 	addiu $3,$0,-1
  405c24:	ff ff 03 00 
  405c28:	05 00 00 00 	beq $2,$3,4062d0 <printf_unknown+0x788>
  405c2c:	a8 01 03 02 
  405c30:	43 00 00 00 	addiu $18,$18,1
  405c34:	01 00 12 12 
  405c38:	28 00 00 00 	lw $2,8($21)
  405c3c:	08 00 02 15 
  405c40:	4f 00 00 00 	andi $2,$2,2048
  405c44:	00 08 02 02 
  405c48:	05 00 00 00 	beq $2,$0,405cc8 <printf_unknown+0x180>
  405c4c:	1e 00 00 02 
  405c50:	28 00 00 00 	lw $3,4($16)
  405c54:	04 00 03 10 
  405c58:	28 00 00 00 	lw $2,12($16)
  405c5c:	0c 00 02 10 
  405c60:	5d 00 00 00 	sltu $2,$3,$2
  405c64:	00 02 02 03 
  405c68:	05 00 00 00 	beq $2,$0,405c98 <printf_unknown+0x150>
  405c6c:	0a 00 00 02 
  405c70:	43 00 00 00 	addiu $2,$3,1
  405c74:	01 00 02 03 
  405c78:	34 00 00 00 	sw $2,4($16)
  405c7c:	04 00 02 10 
  405c80:	43 00 00 00 	addiu $2,$0,35
  405c84:	23 00 02 00 
  405c88:	30 00 00 00 	sb $2,0($3)
  405c8c:	00 00 02 03 
  405c90:	01 00 00 00 	j 405cc0 <printf_unknown+0x178>
  405c94:	30 17 10 00 
  405c98:	42 00 00 00 	addu $4,$0,$16
  405c9c:	00 04 10 00 
  405ca0:	43 00 00 00 	addiu $5,$0,35
  405ca4:	23 00 05 00 
  405ca8:	02 00 00 00 	jal 408380 <__flshfp>
  405cac:	e0 20 10 00 
  405cb0:	43 00 00 00 	addiu $3,$0,-1
  405cb4:	ff ff 03 00 
  405cb8:	05 00 00 00 	beq $2,$3,4062d0 <printf_unknown+0x788>
  405cbc:	84 01 03 02 
  405cc0:	43 00 00 00 	addiu $18,$18,1
  405cc4:	01 00 12 12 
  405cc8:	28 00 00 00 	lw $3,8($21)
  405ccc:	08 00 03 15 
  405cd0:	4f 00 00 00 	andi $2,$3,16384
  405cd4:	00 40 02 03 
  405cd8:	05 00 00 00 	beq $2,$0,405d58 <printf_unknown+0x210>
  405cdc:	1e 00 00 02 
  405ce0:	28 00 00 00 	lw $3,4($16)
  405ce4:	04 00 03 10 
  405ce8:	28 00 00 00 	lw $2,12($16)
  405cec:	0c 00 02 10 
  405cf0:	5d 00 00 00 	sltu $2,$3,$2
  405cf4:	00 02 02 03 
  405cf8:	05 00 00 00 	beq $2,$0,405d28 <printf_unknown+0x1e0>
  405cfc:	0a 00 00 02 
  405d00:	43 00 00 00 	addiu $2,$3,1
  405d04:	01 00 02 03 
  405d08:	34 00 00 00 	sw $2,4($16)
  405d0c:	04 00 02 10 
  405d10:	43 00 00 00 	addiu $2,$0,43
  405d14:	2b 00 02 00 
  405d18:	30 00 00 00 	sb $2,0($3)
  405d1c:	00 00 02 03 
  405d20:	01 00 00 00 	j 405dd8 <printf_unknown+0x290>
  405d24:	76 17 10 00 
  405d28:	42 00 00 00 	addu $4,$0,$16
  405d2c:	00 04 10 00 
  405d30:	43 00 00 00 	addiu $5,$0,43
  405d34:	2b 00 05 00 
  405d38:	02 00 00 00 	jal 408380 <__flshfp>
  405d3c:	e0 20 10 00 
  405d40:	43 00 00 00 	addiu $3,$0,-1
  405d44:	ff ff 03 00 
  405d48:	06 00 00 00 	bne $2,$3,405dd8 <printf_unknown+0x290>
  405d4c:	22 00 03 02 
  405d50:	01 00 00 00 	j 4062d0 <printf_unknown+0x788>
  405d54:	b4 18 10 00 
  405d58:	4f 00 00 00 	andi $2,$3,4096
  405d5c:	00 10 02 03 
  405d60:	05 00 00 00 	beq $2,$0,405de0 <printf_unknown+0x298>
  405d64:	1e 00 00 02 
  405d68:	28 00 00 00 	lw $3,4($16)
  405d6c:	04 00 03 10 
  405d70:	28 00 00 00 	lw $2,12($16)
  405d74:	0c 00 02 10 
  405d78:	5d 00 00 00 	sltu $2,$3,$2
  405d7c:	00 02 02 03 
  405d80:	05 00 00 00 	beq $2,$0,405db0 <printf_unknown+0x268>
  405d84:	0a 00 00 02 
  405d88:	43 00 00 00 	addiu $2,$3,1
  405d8c:	01 00 02 03 
  405d90:	34 00 00 00 	sw $2,4($16)
  405d94:	04 00 02 10 
  405d98:	43 00 00 00 	addiu $2,$0,32
  405d9c:	20 00 02 00 
  405da0:	30 00 00 00 	sb $2,0($3)
  405da4:	00 00 02 03 
  405da8:	01 00 00 00 	j 405dd8 <printf_unknown+0x290>
  405dac:	76 17 10 00 
  405db0:	42 00 00 00 	addu $4,$0,$16
  405db4:	00 04 10 00 
  405db8:	43 00 00 00 	addiu $5,$0,32
  405dbc:	20 00 05 00 
  405dc0:	02 00 00 00 	jal 408380 <__flshfp>
  405dc4:	e0 20 10 00 
  405dc8:	43 00 00 00 	addiu $3,$0,-1
  405dcc:	ff ff 03 00 
  405dd0:	05 00 00 00 	beq $2,$3,4062d0 <printf_unknown+0x788>
  405dd4:	3e 01 03 02 
  405dd8:	43 00 00 00 	addiu $18,$18,1
  405ddc:	01 00 12 12 
  405de0:	28 00 00 00 	lw $2,8($21)
  405de4:	08 00 02 15 
  405de8:	4f 00 00 00 	andi $2,$2,8192
  405dec:	00 20 02 02 
  405df0:	05 00 00 00 	beq $2,$0,405e70 <printf_unknown+0x328>
  405df4:	1e 00 00 02 
  405df8:	28 00 00 00 	lw $3,4($16)
  405dfc:	04 00 03 10 
  405e00:	28 00 00 00 	lw $2,12($16)
  405e04:	0c 00 02 10 
  405e08:	5d 00 00 00 	sltu $2,$3,$2
  405e0c:	00 02 02 03 
  405e10:	05 00 00 00 	beq $2,$0,405e40 <printf_unknown+0x2f8>
  405e14:	0a 00 00 02 
  405e18:	43 00 00 00 	addiu $2,$3,1
  405e1c:	01 00 02 03 
  405e20:	34 00 00 00 	sw $2,4($16)
  405e24:	04 00 02 10 
  405e28:	43 00 00 00 	addiu $2,$0,45
  405e2c:	2d 00 02 00 
  405e30:	30 00 00 00 	sb $2,0($3)
  405e34:	00 00 02 03 
  405e38:	01 00 00 00 	j 405e68 <printf_unknown+0x320>
  405e3c:	9a 17 10 00 
  405e40:	42 00 00 00 	addu $4,$0,$16
  405e44:	00 04 10 00 
  405e48:	43 00 00 00 	addiu $5,$0,45
  405e4c:	2d 00 05 00 
  405e50:	02 00 00 00 	jal 408380 <__flshfp>
  405e54:	e0 20 10 00 
  405e58:	43 00 00 00 	addiu $3,$0,-1
  405e5c:	ff ff 03 00 
  405e60:	05 00 00 00 	beq $2,$3,4062d0 <printf_unknown+0x788>
  405e64:	1a 01 03 02 
  405e68:	43 00 00 00 	addiu $18,$18,1
  405e6c:	01 00 12 12 
  405e70:	20 00 00 00 	lb $3,10($21)
  405e74:	0a 00 03 15 
  405e78:	43 00 00 00 	addiu $2,$0,48
  405e7c:	30 00 02 00 
  405e80:	06 00 00 00 	bne $3,$2,405f00 <printf_unknown+0x3b8>
  405e84:	1e 00 02 03 
  405e88:	28 00 00 00 	lw $3,4($16)
  405e8c:	04 00 03 10 
  405e90:	28 00 00 00 	lw $2,12($16)
  405e94:	0c 00 02 10 
  405e98:	5d 00 00 00 	sltu $2,$3,$2
  405e9c:	00 02 02 03 
  405ea0:	05 00 00 00 	beq $2,$0,405ed0 <printf_unknown+0x388>
  405ea4:	0a 00 00 02 
  405ea8:	43 00 00 00 	addiu $2,$3,1
  405eac:	01 00 02 03 
  405eb0:	34 00 00 00 	sw $2,4($16)
  405eb4:	04 00 02 10 
  405eb8:	43 00 00 00 	addiu $2,$0,48
  405ebc:	30 00 02 00 
  405ec0:	30 00 00 00 	sb $2,0($3)
  405ec4:	00 00 02 03 
  405ec8:	01 00 00 00 	j 405ef8 <printf_unknown+0x3b0>
  405ecc:	be 17 10 00 
  405ed0:	42 00 00 00 	addu $4,$0,$16
  405ed4:	00 04 10 00 
  405ed8:	43 00 00 00 	addiu $5,$0,48
  405edc:	30 00 05 00 
  405ee0:	02 00 00 00 	jal 408380 <__flshfp>
  405ee4:	e0 20 10 00 
  405ee8:	43 00 00 00 	addiu $3,$0,-1
  405eec:	ff ff 03 00 
  405ef0:	05 00 00 00 	beq $2,$3,4062d0 <printf_unknown+0x788>
  405ef4:	f6 00 03 02 
  405ef8:	43 00 00 00 	addiu $18,$18,1
  405efc:	01 00 12 12 
  405f00:	42 00 00 00 	addu $17,$0,$22
  405f04:	00 11 16 00 
  405f08:	07 00 00 00 	blez $19,405fa8 <printf_unknown+0x460>
  405f0c:	26 00 00 13 
  405f10:	a2 00 00 00 	lui $3,26214
  405f14:	66 66 03 00 
  405f18:	51 00 00 00 	ori $3,$3,26215
  405f1c:	67 66 03 03 
  405f20:	46 00 00 00 	mult $19,$3
  405f24:	00 00 03 13 
  405f28:	4a 00 00 00 	mfhi $5
  405f2c:	00 05 00 00 
  405f30:	4c 00 00 00 	mflo $4
  405f34:	00 04 00 00 
  405f38:	57 00 00 00 	srl $4,$5,0x0
  405f3c:	00 04 05 00 
  405f40:	42 00 00 00 	addu $5,$0,$0
  405f44:	00 05 00 00 
  405f48:	59 00 00 00 	sra $4,$4,0x2
  405f4c:	02 04 04 00 
  405f50:	59 00 00 00 	sra $2,$19,0x1f
  405f54:	1f 02 13 00 
  405f58:	45 00 00 00 	subu $4,$4,$2
  405f5c:	00 04 02 04 
  405f60:	55 00 00 00 	sll $2,$4,0x2
  405f64:	02 02 04 00 
  405f68:	42 00 00 00 	addu $2,$2,$4
  405f6c:	00 02 04 02 
  405f70:	55 00 00 00 	sll $2,$2,0x1
  405f74:	01 02 02 00 
  405f78:	45 00 00 00 	subu $2,$19,$2
  405f7c:	00 02 02 13 
  405f80:	43 00 00 00 	addiu $2,$2,48
  405f84:	30 00 02 02 
  405f88:	30 00 00 00 	sb $2,0($17)
  405f8c:	00 00 02 11 
  405f90:	43 00 00 00 	addiu $17,$17,-1
  405f94:	ff ff 11 11 
  405f98:	42 00 00 00 	addu $19,$0,$4
  405f9c:	00 13 04 00 
  405fa0:	08 00 00 00 	bgtz $19,405f20 <printf_unknown+0x3d8>
  405fa4:	de ff 00 13 
  405fa8:	43 00 00 00 	addiu $17,$17,1
  405fac:	01 00 11 11 
  405fb0:	5d 00 00 00 	sltu $2,$22,$17
  405fb4:	00 02 11 16 
  405fb8:	06 00 00 00 	bne $2,$0,406060 <printf_unknown+0x518>
  405fbc:	28 00 00 02 
  405fc0:	43 00 00 00 	addiu $19,$0,-1
  405fc4:	ff ff 13 00 
  405fc8:	28 00 00 00 	lw $3,4($16)
  405fcc:	04 00 03 10 
  405fd0:	28 00 00 00 	lw $2,12($16)
  405fd4:	0c 00 02 10 
  405fd8:	20 00 00 00 	lb $5,0($17)
  405fdc:	00 00 05 11 
  405fe0:	5d 00 00 00 	sltu $2,$3,$2
  405fe4:	00 02 02 03 
  405fe8:	05 00 00 00 	beq $2,$0,406020 <printf_unknown+0x4d8>
  405fec:	0c 00 00 02 
  405ff0:	43 00 00 00 	addiu $2,$3,1
  405ff4:	01 00 02 03 
  405ff8:	34 00 00 00 	sw $2,4($16)
  405ffc:	04 00 02 10 
  406000:	42 00 00 00 	addu $2,$0,$5
  406004:	00 02 05 00 
  406008:	30 00 00 00 	sb $2,0($3)
  40600c:	00 00 02 03 
  406010:	4f 00 00 00 	andi $2,$2,255
  406014:	ff 00 02 02 
  406018:	01 00 00 00 	j 406038 <printf_unknown+0x4f0>
  40601c:	0e 18 10 00 
  406020:	42 00 00 00 	addu $4,$0,$16
  406024:	00 04 10 00 
  406028:	4f 00 00 00 	andi $5,$5,255
  40602c:	ff 00 05 05 
  406030:	02 00 00 00 	jal 408380 <__flshfp>
  406034:	e0 20 10 00 
  406038:	05 00 00 00 	beq $2,$19,4062d0 <printf_unknown+0x788>
  40603c:	a4 00 13 02 
  406040:	43 00 00 00 	addiu $18,$18,1
  406044:	01 00 12 12 
  406048:	43 00 00 00 	addiu $17,$17,1
  40604c:	01 00 11 11 
  406050:	5d 00 00 00 	sltu $2,$22,$17
  406054:	00 02 11 16 
  406058:	05 00 00 00 	beq $2,$0,405fc8 <printf_unknown+0x480>
  40605c:	da ff 00 02 
  406060:	28 00 00 00 	lw $2,0($21)
  406064:	00 00 02 15 
  406068:	43 00 00 00 	addiu $17,$0,-1
  40606c:	ff ff 11 00 
  406070:	05 00 00 00 	beq $2,$17,406248 <printf_unknown+0x700>
  406074:	74 00 11 02 
  406078:	28 00 00 00 	lw $3,4($16)
  40607c:	04 00 03 10 
  406080:	28 00 00 00 	lw $2,12($16)
  406084:	0c 00 02 10 
  406088:	5d 00 00 00 	sltu $2,$3,$2
  40608c:	00 02 02 03 
  406090:	05 00 00 00 	beq $2,$0,4060c0 <printf_unknown+0x578>
  406094:	0a 00 00 02 
  406098:	43 00 00 00 	addiu $2,$3,1
  40609c:	01 00 02 03 
  4060a0:	34 00 00 00 	sw $2,4($16)
  4060a4:	04 00 02 10 
  4060a8:	43 00 00 00 	addiu $2,$0,46
  4060ac:	2e 00 02 00 
  4060b0:	30 00 00 00 	sb $2,0($3)
  4060b4:	00 00 02 03 
  4060b8:	01 00 00 00 	j 4060e0 <printf_unknown+0x598>
  4060bc:	38 18 10 00 
  4060c0:	42 00 00 00 	addu $4,$0,$16
  4060c4:	00 04 10 00 
  4060c8:	43 00 00 00 	addiu $5,$0,46
  4060cc:	2e 00 05 00 
  4060d0:	02 00 00 00 	jal 408380 <__flshfp>
  4060d4:	e0 20 10 00 
  4060d8:	05 00 00 00 	beq $2,$17,4062d0 <printf_unknown+0x788>
  4060dc:	7c 00 11 02 
  4060e0:	43 00 00 00 	addiu $18,$18,1
  4060e4:	01 00 12 12 
  4060e8:	42 00 00 00 	addu $17,$0,$22
  4060ec:	00 11 16 00 
  4060f0:	07 00 00 00 	blez $20,406190 <printf_unknown+0x648>
  4060f4:	26 00 00 14 
  4060f8:	a2 00 00 00 	lui $3,26214
  4060fc:	66 66 03 00 
  406100:	51 00 00 00 	ori $3,$3,26215
  406104:	67 66 03 03 
  406108:	46 00 00 00 	mult $20,$3
  40610c:	00 00 03 14 
  406110:	4a 00 00 00 	mfhi $5
  406114:	00 05 00 00 
  406118:	4c 00 00 00 	mflo $4
  40611c:	00 04 00 00 
  406120:	57 00 00 00 	srl $4,$5,0x0
  406124:	00 04 05 00 
  406128:	42 00 00 00 	addu $5,$0,$0
  40612c:	00 05 00 00 
  406130:	59 00 00 00 	sra $4,$4,0x2
  406134:	02 04 04 00 
  406138:	59 00 00 00 	sra $2,$20,0x1f
  40613c:	1f 02 14 00 
  406140:	45 00 00 00 	subu $4,$4,$2
  406144:	00 04 02 04 
  406148:	55 00 00 00 	sll $2,$4,0x2
  40614c:	02 02 04 00 
  406150:	42 00 00 00 	addu $2,$2,$4
  406154:	00 02 04 02 
  406158:	55 00 00 00 	sll $2,$2,0x1
  40615c:	01 02 02 00 
  406160:	45 00 00 00 	subu $2,$20,$2
  406164:	00 02 02 14 
  406168:	43 00 00 00 	addiu $2,$2,48
  40616c:	30 00 02 02 
  406170:	30 00 00 00 	sb $2,0($17)
  406174:	00 00 02 11 
  406178:	43 00 00 00 	addiu $17,$17,-1
  40617c:	ff ff 11 11 
  406180:	42 00 00 00 	addu $20,$0,$4
  406184:	00 14 04 00 
  406188:	08 00 00 00 	bgtz $20,406108 <printf_unknown+0x5c0>
  40618c:	de ff 00 14 
  406190:	43 00 00 00 	addiu $17,$17,1
  406194:	01 00 11 11 
  406198:	5d 00 00 00 	sltu $2,$22,$17
  40619c:	00 02 11 16 
  4061a0:	06 00 00 00 	bne $2,$0,406248 <printf_unknown+0x700>
  4061a4:	28 00 00 02 
  4061a8:	43 00 00 00 	addiu $19,$0,-1
  4061ac:	ff ff 13 00 
  4061b0:	28 00 00 00 	lw $3,4($16)
  4061b4:	04 00 03 10 
  4061b8:	28 00 00 00 	lw $2,12($16)
  4061bc:	0c 00 02 10 
  4061c0:	20 00 00 00 	lb $5,0($17)
  4061c4:	00 00 05 11 
  4061c8:	5d 00 00 00 	sltu $2,$3,$2
  4061cc:	00 02 02 03 
  4061d0:	05 00 00 00 	beq $2,$0,406208 <printf_unknown+0x6c0>
  4061d4:	0c 00 00 02 
  4061d8:	43 00 00 00 	addiu $2,$3,1
  4061dc:	01 00 02 03 
  4061e0:	34 00 00 00 	sw $2,4($16)
  4061e4:	04 00 02 10 
  4061e8:	42 00 00 00 	addu $2,$0,$5
  4061ec:	00 02 05 00 
  4061f0:	30 00 00 00 	sb $2,0($3)
  4061f4:	00 00 02 03 
  4061f8:	4f 00 00 00 	andi $2,$2,255
  4061fc:	ff 00 02 02 
  406200:	01 00 00 00 	j 406220 <printf_unknown+0x6d8>
  406204:	88 18 10 00 
  406208:	42 00 00 00 	addu $4,$0,$16
  40620c:	00 04 10 00 
  406210:	4f 00 00 00 	andi $5,$5,255
  406214:	ff 00 05 05 
  406218:	02 00 00 00 	jal 408380 <__flshfp>
  40621c:	e0 20 10 00 
  406220:	05 00 00 00 	beq $2,$19,4062d0 <printf_unknown+0x788>
  406224:	2a 00 13 02 
  406228:	43 00 00 00 	addiu $18,$18,1
  40622c:	01 00 12 12 
  406230:	43 00 00 00 	addiu $17,$17,1
  406234:	01 00 11 11 
  406238:	5d 00 00 00 	sltu $2,$22,$17
  40623c:	00 02 11 16 
  406240:	05 00 00 00 	beq $2,$0,4061b0 <printf_unknown+0x668>
  406244:	da ff 00 02 
  406248:	28 00 00 00 	lw $4,4($16)
  40624c:	04 00 04 10 
  406250:	28 00 00 00 	lw $2,12($16)
  406254:	0c 00 02 10 
  406258:	22 00 00 00 	lbu $5,8($21)
  40625c:	08 00 05 15 
  406260:	5d 00 00 00 	sltu $2,$4,$2
  406264:	00 02 02 04 
  406268:	05 00 00 00 	beq $2,$0,4062b0 <printf_unknown+0x768>
  40626c:	10 00 00 02 
  406270:	43 00 00 00 	addiu $2,$4,1
  406274:	01 00 02 04 
  406278:	42 00 00 00 	addu $3,$0,$5
  40627c:	00 03 05 00 
  406280:	34 00 00 00 	sw $2,4($16)
  406284:	04 00 02 10 
  406288:	30 00 00 00 	sb $3,0($4)
  40628c:	00 00 03 04 
  406290:	4f 00 00 00 	andi $3,$3,255
  406294:	ff 00 03 03 
  406298:	43 00 00 00 	addiu $2,$0,-1
  40629c:	ff ff 02 00 
  4062a0:	05 00 00 00 	beq $3,$2,4062d0 <printf_unknown+0x788>
  4062a4:	0a 00 02 03 
  4062a8:	01 00 00 00 	j 4062e0 <printf_unknown+0x798>
  4062ac:	b8 18 10 00 
  4062b0:	42 00 00 00 	addu $4,$0,$16
  4062b4:	00 04 10 00 
  4062b8:	02 00 00 00 	jal 408380 <__flshfp>
  4062bc:	e0 20 10 00 
  4062c0:	43 00 00 00 	addiu $3,$0,-1
  4062c4:	ff ff 03 00 
  4062c8:	06 00 00 00 	bne $2,$3,4062e0 <printf_unknown+0x798>
  4062cc:	04 00 03 02 
  4062d0:	43 00 00 00 	addiu $2,$0,-1
  4062d4:	ff ff 02 00 
  4062d8:	01 00 00 00 	j 4062e8 <printf_unknown+0x7a0>
  4062dc:	ba 18 10 00 
  4062e0:	43 00 00 00 	addiu $2,$18,1
  4062e4:	01 00 02 12 
  4062e8:	28 00 00 00 	lw $31,1068($29)
  4062ec:	2c 04 1f 1d 
  4062f0:	28 00 00 00 	lw $22,1064($29)
  4062f4:	28 04 16 1d 
  4062f8:	28 00 00 00 	lw $21,1060($29)
  4062fc:	24 04 15 1d 
  406300:	28 00 00 00 	lw $20,1056($29)
  406304:	20 04 14 1d 
  406308:	28 00 00 00 	lw $19,1052($29)
  40630c:	1c 04 13 1d 
  406310:	28 00 00 00 	lw $18,1048($29)
  406314:	18 04 12 1d 
  406318:	28 00 00 00 	lw $17,1044($29)
  40631c:	14 04 11 1d 
  406320:	28 00 00 00 	lw $16,1040($29)
  406324:	10 04 10 1d 
  406328:	43 00 00 00 	addiu $29,$29,1072
  40632c:	30 04 1d 1d 
  406330:	03 00 00 00 	jr $31
  406334:	00 00 00 1f 
	...

00406340 <initialize>:
  406340:	43 00 00 00 	addiu $29,$29,-24
  406344:	e8 ff 1d 1d 
  406348:	28 00 00 00 	lw $3,-32640($28)
  40634c:	80 80 03 1c 
  406350:	43 00 00 00 	addiu $4,$0,12288
  406354:	00 30 04 00 
  406358:	43 00 00 00 	addiu $2,$0,1024
  40635c:	00 04 02 00 
  406360:	34 00 00 00 	sw $31,20($29)
  406364:	14 00 1f 1d 
  406368:	34 00 00 00 	sw $16,16($29)
  40636c:	10 00 10 1d 
  406370:	34 00 00 00 	sw $2,-32432($28)
  406374:	50 81 02 1c 
  406378:	04 00 00 00 	jalr $31,$3
  40637c:	00 1f 00 03 
  406380:	42 00 00 00 	addu $16,$0,$2
  406384:	00 10 02 00 
  406388:	4f 00 00 00 	andi $2,$16,4095
  40638c:	ff 0f 02 10 
  406390:	05 00 00 00 	beq $2,$0,4063c0 <initialize+0x80>
  406394:	0a 00 00 02 
  406398:	43 00 00 00 	addiu $4,$0,4096
  40639c:	00 10 04 00 
  4063a0:	45 00 00 00 	subu $4,$4,$2
  4063a4:	00 04 02 04 
  4063a8:	28 00 00 00 	lw $2,-32640($28)
  4063ac:	80 80 02 1c 
  4063b0:	42 00 00 00 	addu $16,$16,$4
  4063b4:	00 10 04 10 
  4063b8:	04 00 00 00 	jalr $31,$2
  4063bc:	00 1f 00 02 
  4063c0:	28 00 00 00 	lw $2,-32364($28)
  4063c4:	94 81 02 1c 
  4063c8:	05 00 00 00 	beq $2,$0,4063d8 <initialize+0x98>
  4063cc:	02 00 00 02 
  4063d0:	04 00 00 00 	jalr $31,$2
  4063d4:	00 1f 00 02 
  4063d8:	34 00 00 00 	sw $16,-32360($28)
  4063dc:	98 81 10 1c 
  4063e0:	05 00 00 00 	beq $16,$0,4064a0 <initialize+0x160>
  4063e4:	2e 00 00 10 
  4063e8:	28 00 00 00 	lw $2,-32432($28)
  4063ec:	50 81 02 1c 
  4063f0:	42 00 00 00 	addu $4,$0,$16
  4063f4:	00 04 10 00 
  4063f8:	42 00 00 00 	addu $5,$0,$0
  4063fc:	00 05 00 00 
  406400:	55 00 00 00 	sll $6,$2,0x1
  406404:	01 06 02 00 
  406408:	42 00 00 00 	addu $6,$6,$2
  40640c:	00 06 02 06 
  406410:	55 00 00 00 	sll $6,$6,0x2
  406414:	02 06 06 00 
  406418:	02 00 00 00 	jal 40f990 <memset>
  40641c:	64 3e 10 00 
  406420:	28 00 00 00 	lw $4,-32360($28)
  406424:	98 81 04 1c 
  406428:	28 00 00 00 	lw $5,-32432($28)
  40642c:	50 81 05 1c 
  406430:	43 00 00 00 	addiu $2,$0,1
  406434:	01 00 02 00 
  406438:	43 00 00 00 	addiu $3,$0,1
  40643c:	01 00 03 00 
  406440:	34 00 00 00 	sw $0,-32372($28)
  406444:	8c 81 00 1c 
  406448:	34 00 00 00 	sw $3,-32344($28)
  40644c:	a8 81 03 1c 
  406450:	34 00 00 00 	sw $3,-32356($28)
  406454:	9c 81 03 1c 
  406458:	55 00 00 00 	sll $3,$5,0x1
  40645c:	01 03 05 00 
  406460:	42 00 00 00 	addu $3,$3,$5
  406464:	00 03 05 03 
  406468:	55 00 00 00 	sll $3,$3,0x2
  40646c:	02 03 03 00 
  406470:	34 00 00 00 	sw $0,0($4)
  406474:	00 00 00 04 
  406478:	34 00 00 00 	sw $0,8($4)
  40647c:	08 00 00 04 
  406480:	34 00 00 00 	sw $0,4($4)
  406484:	04 00 00 04 
  406488:	34 00 00 00 	sw $4,-32348($28)
  40648c:	a4 81 04 1c 
  406490:	34 00 00 00 	sw $3,-32384($28)
  406494:	80 81 03 1c 
  406498:	01 00 00 00 	j 4064a8 <initialize+0x168>
  40649c:	2a 19 10 00 
  4064a0:	42 00 00 00 	addu $2,$0,$0
  4064a4:	00 02 00 00 
  4064a8:	28 00 00 00 	lw $31,20($29)
  4064ac:	14 00 1f 1d 
  4064b0:	28 00 00 00 	lw $16,16($29)
  4064b4:	10 00 10 1d 
  4064b8:	43 00 00 00 	addiu $29,$29,24
  4064bc:	18 00 1d 1d 
  4064c0:	03 00 00 00 	jr $31
  4064c4:	00 00 00 1f 

004064c8 <morecore>:
  4064c8:	28 00 00 00 	lw $2,-32640($28)
  4064cc:	80 80 02 1c 
  4064d0:	43 00 00 00 	addiu $29,$29,-40
  4064d4:	d8 ff 1d 1d 
  4064d8:	34 00 00 00 	sw $19,28($29)
  4064dc:	1c 00 13 1d 
  4064e0:	42 00 00 00 	addu $19,$0,$4
  4064e4:	00 13 04 00 
  4064e8:	34 00 00 00 	sw $31,36($29)
  4064ec:	24 00 1f 1d 
  4064f0:	34 00 00 00 	sw $20,32($29)
  4064f4:	20 00 14 1d 
  4064f8:	34 00 00 00 	sw $18,24($29)
  4064fc:	18 00 12 1d 
  406500:	34 00 00 00 	sw $17,20($29)
  406504:	14 00 11 1d 
  406508:	34 00 00 00 	sw $16,16($29)
  40650c:	10 00 10 1d 
  406510:	04 00 00 00 	jalr $31,$2
  406514:	00 1f 00 02 
  406518:	42 00 00 00 	addu $16,$0,$2
  40651c:	00 10 02 00 
  406520:	4f 00 00 00 	andi $2,$16,4095
  406524:	ff 0f 02 10 
  406528:	05 00 00 00 	beq $2,$0,406558 <morecore+0x90>
  40652c:	0a 00 00 02 
  406530:	43 00 00 00 	addiu $4,$0,4096
  406534:	00 10 04 00 
  406538:	45 00 00 00 	subu $4,$4,$2
  40653c:	00 04 02 04 
  406540:	28 00 00 00 	lw $2,-32640($28)
  406544:	80 80 02 1c 
  406548:	42 00 00 00 	addu $16,$16,$4
  40654c:	00 10 04 10 
  406550:	04 00 00 00 	jalr $31,$2
  406554:	00 1f 00 02 
  406558:	28 00 00 00 	lw $2,-32364($28)
  40655c:	94 81 02 1c 
  406560:	05 00 00 00 	beq $2,$0,406570 <morecore+0xa8>
  406564:	02 00 00 02 
  406568:	04 00 00 00 	jalr $31,$2
  40656c:	00 1f 00 02 
  406570:	42 00 00 00 	addu $18,$0,$16
  406574:	00 12 10 00 
  406578:	06 00 00 00 	bne $18,$0,406590 <morecore+0xc8>
  40657c:	04 00 00 12 
  406580:	42 00 00 00 	addu $2,$0,$0
  406584:	00 02 00 00 
  406588:	01 00 00 00 	j 4068a8 <morecore+0x3e0>
  40658c:	2a 1a 10 00 
  406590:	28 00 00 00 	lw $5,-32348($28)
  406594:	a4 81 05 1c 
  406598:	42 00 00 00 	addu $4,$18,$19
  40659c:	00 04 13 12 
  4065a0:	45 00 00 00 	subu $2,$4,$5
  4065a4:	00 02 05 04 
  4065a8:	0a 00 00 00 	bgez $2,4065b8 <morecore+0xf0>
  4065ac:	02 00 00 02 
  4065b0:	43 00 00 00 	addiu $2,$2,4095
  4065b4:	ff 0f 02 02 
  4065b8:	28 00 00 00 	lw $3,-32432($28)
  4065bc:	50 81 03 1c 
  4065c0:	59 00 00 00 	sra $2,$2,0xc
  4065c4:	0c 02 02 00 
  4065c8:	43 00 00 00 	addiu $2,$2,1
  4065cc:	01 00 02 02 
  4065d0:	5d 00 00 00 	sltu $2,$3,$2
  4065d4:	00 02 02 03 
  4065d8:	05 00 00 00 	beq $2,$0,406860 <morecore+0x398>
  4065dc:	a0 00 00 02 
  4065e0:	42 00 00 00 	addu $17,$0,$3
  4065e4:	00 11 03 00 
  4065e8:	42 00 00 00 	addu $3,$0,$5
  4065ec:	00 03 05 00 
  4065f0:	45 00 00 00 	subu $2,$4,$3
  4065f4:	00 02 03 04 
  4065f8:	0a 00 00 00 	bgez $2,406608 <morecore+0x140>
  4065fc:	02 00 00 02 
  406600:	43 00 00 00 	addiu $2,$2,4095
  406604:	ff 0f 02 02 
  406608:	59 00 00 00 	sra $2,$2,0xc
  40660c:	0c 02 02 00 
  406610:	43 00 00 00 	addiu $2,$2,1
  406614:	01 00 02 02 
  406618:	5d 00 00 00 	sltu $2,$17,$2
  40661c:	00 02 02 11 
  406620:	05 00 00 00 	beq $2,$0,406638 <morecore+0x170>
  406624:	04 00 00 02 
  406628:	55 00 00 00 	sll $17,$17,0x1
  40662c:	01 11 11 00 
  406630:	01 00 00 00 	j 4065f0 <morecore+0x128>
  406634:	7c 19 10 00 
  406638:	55 00 00 00 	sll $2,$17,0x1
  40663c:	01 02 11 00 
  406640:	42 00 00 00 	addu $2,$2,$17
  406644:	00 02 11 02 
  406648:	28 00 00 00 	lw $3,-32640($28)
  40664c:	80 80 03 1c 
  406650:	55 00 00 00 	sll $20,$2,0x2
  406654:	02 14 02 00 
  406658:	42 00 00 00 	addu $4,$0,$20
  40665c:	00 04 14 00 
  406660:	04 00 00 00 	jalr $31,$3
  406664:	00 1f 00 03 
  406668:	42 00 00 00 	addu $16,$0,$2
  40666c:	00 10 02 00 
  406670:	4f 00 00 00 	andi $2,$16,4095
  406674:	ff 0f 02 10 
  406678:	05 00 00 00 	beq $2,$0,4066a8 <morecore+0x1e0>
  40667c:	0a 00 00 02 
  406680:	43 00 00 00 	addiu $4,$0,4096
  406684:	00 10 04 00 
  406688:	45 00 00 00 	subu $4,$4,$2
  40668c:	00 04 02 04 
  406690:	28 00 00 00 	lw $2,-32640($28)
  406694:	80 80 02 1c 
  406698:	42 00 00 00 	addu $16,$16,$4
  40669c:	00 10 04 10 
  4066a0:	04 00 00 00 	jalr $31,$2
  4066a4:	00 1f 00 02 
  4066a8:	28 00 00 00 	lw $2,-32364($28)
  4066ac:	94 81 02 1c 
  4066b0:	05 00 00 00 	beq $2,$0,4066c0 <morecore+0x1f8>
  4066b4:	02 00 00 02 
  4066b8:	04 00 00 00 	jalr $31,$2
  4066bc:	00 1f 00 02 
  4066c0:	06 00 00 00 	bne $16,$0,4066f0 <morecore+0x228>
  4066c4:	0a 00 00 10 
  4066c8:	28 00 00 00 	lw $2,-32640($28)
  4066cc:	80 80 02 1c 
  4066d0:	45 00 00 00 	subu $4,$0,$19
  4066d4:	00 04 13 00 
  4066d8:	04 00 00 00 	jalr $31,$2
  4066dc:	00 1f 00 02 
  4066e0:	42 00 00 00 	addu $2,$0,$0
  4066e4:	00 02 00 00 
  4066e8:	01 00 00 00 	j 4068a8 <morecore+0x3e0>
  4066ec:	2a 1a 10 00 
  4066f0:	28 00 00 00 	lw $2,-32432($28)
  4066f4:	50 81 02 1c 
  4066f8:	42 00 00 00 	addu $4,$0,$16
  4066fc:	00 04 10 00 
  406700:	28 00 00 00 	lw $5,-32360($28)
  406704:	98 81 05 1c 
  406708:	55 00 00 00 	sll $6,$2,0x1
  40670c:	01 06 02 00 
  406710:	42 00 00 00 	addu $6,$6,$2
  406714:	00 06 02 06 
  406718:	55 00 00 00 	sll $6,$6,0x2
  40671c:	02 06 06 00 
  406720:	02 00 00 00 	jal 40fb00 <memcpy>
  406724:	c0 3e 10 00 
  406728:	28 00 00 00 	lw $2,-32432($28)
  40672c:	50 81 02 1c 
  406730:	42 00 00 00 	addu $5,$0,$0
  406734:	00 05 00 00 
  406738:	55 00 00 00 	sll $4,$2,0x1
  40673c:	01 04 02 00 
  406740:	42 00 00 00 	addu $4,$4,$2
  406744:	00 04 02 04 
  406748:	55 00 00 00 	sll $4,$4,0x2
  40674c:	02 04 04 00 
  406750:	42 00 00 00 	addu $4,$16,$4
  406754:	00 04 04 10 
  406758:	45 00 00 00 	subu $2,$17,$2
  40675c:	00 02 02 11 
  406760:	55 00 00 00 	sll $6,$2,0x1
  406764:	01 06 02 00 
  406768:	42 00 00 00 	addu $6,$6,$2
  40676c:	00 06 02 06 
  406770:	55 00 00 00 	sll $6,$6,0x2
  406774:	02 06 06 00 
  406778:	02 00 00 00 	jal 40f990 <memset>
  40677c:	64 3e 10 00 
  406780:	28 00 00 00 	lw $4,-32360($28)
  406784:	98 81 04 1c 
  406788:	28 00 00 00 	lw $2,-32348($28)
  40678c:	a4 81 02 1c 
  406790:	45 00 00 00 	subu $5,$4,$2
  406794:	00 05 02 04 
  406798:	42 00 00 00 	addu $3,$0,$5
  40679c:	00 03 05 00 
  4067a0:	0a 00 00 00 	bgez $5,4067b0 <morecore+0x2e8>
  4067a4:	02 00 00 05 
  4067a8:	43 00 00 00 	addiu $3,$5,4095
  4067ac:	ff 0f 03 05 
  4067b0:	59 00 00 00 	sra $3,$3,0xc
  4067b4:	0c 03 03 00 
  4067b8:	55 00 00 00 	sll $2,$3,0x1
  4067bc:	01 02 03 00 
  4067c0:	42 00 00 00 	addu $2,$2,$3
  4067c4:	00 02 03 02 
  4067c8:	55 00 00 00 	sll $2,$2,0x2
  4067cc:	02 02 02 00 
  4067d0:	42 00 00 00 	addu $6,$2,$16
  4067d4:	00 06 10 02 
  4067d8:	34 00 00 00 	sw $0,12($6)
  4067dc:	0c 00 00 06 
  4067e0:	28 00 00 00 	lw $3,-32432($28)
  4067e4:	50 81 03 1c 
  4067e8:	28 00 00 00 	lw $5,-32344($28)
  4067ec:	a8 81 05 1c 
  4067f0:	34 00 00 00 	sw $16,-32360($28)
  4067f4:	98 81 10 1c 
  4067f8:	55 00 00 00 	sll $2,$3,0x1
  4067fc:	01 02 03 00 
  406800:	42 00 00 00 	addu $2,$2,$3
  406804:	00 02 03 02 
  406808:	55 00 00 00 	sll $2,$2,0x2
  40680c:	02 02 02 00 
  406810:	28 00 00 00 	lw $3,-32384($28)
  406814:	80 81 03 1c 
  406818:	43 00 00 00 	addiu $2,$2,4095
  40681c:	ff 0f 02 02 
  406820:	57 00 00 00 	srl $2,$2,0xc
  406824:	0c 02 02 00 
  406828:	43 00 00 00 	addiu $5,$5,1
  40682c:	01 00 05 05 
  406830:	34 00 00 00 	sw $2,16($6)
  406834:	10 00 02 06 
  406838:	34 00 00 00 	sw $5,-32344($28)
  40683c:	a8 81 05 1c 
  406840:	42 00 00 00 	addu $3,$20,$3
  406844:	00 03 03 14 
  406848:	34 00 00 00 	sw $3,-32384($28)
  40684c:	80 81 03 1c 
  406850:	02 00 00 00 	jal 408ec0 <_free_internal>
  406854:	b0 23 10 00 
  406858:	34 00 00 00 	sw $17,-32432($28)
  40685c:	50 81 11 1c 
  406860:	28 00 00 00 	lw $3,-32348($28)
  406864:	a4 81 03 1c 
  406868:	42 00 00 00 	addu $2,$18,$19
  40686c:	00 02 13 12 
  406870:	45 00 00 00 	subu $2,$2,$3
  406874:	00 02 03 02 
  406878:	0a 00 00 00 	bgez $2,406888 <morecore+0x3c0>
  40687c:	02 00 00 02 
  406880:	43 00 00 00 	addiu $2,$2,4095
  406884:	ff 0f 02 02 
  406888:	59 00 00 00 	sra $2,$2,0xc
  40688c:	0c 02 02 00 
  406890:	43 00 00 00 	addiu $2,$2,1
  406894:	01 00 02 02 
  406898:	34 00 00 00 	sw $2,-32368($28)
  40689c:	90 81 02 1c 
  4068a0:	42 00 00 00 	addu $2,$0,$18
  4068a4:	00 02 12 00 
  4068a8:	28 00 00 00 	lw $31,36($29)
  4068ac:	24 00 1f 1d 
  4068b0:	28 00 00 00 	lw $20,32($29)
  4068b4:	20 00 14 1d 
  4068b8:	28 00 00 00 	lw $19,28($29)
  4068bc:	1c 00 13 1d 
  4068c0:	28 00 00 00 	lw $18,24($29)
  4068c4:	18 00 12 1d 
  4068c8:	28 00 00 00 	lw $17,20($29)
  4068cc:	14 00 11 1d 
  4068d0:	28 00 00 00 	lw $16,16($29)
  4068d4:	10 00 10 1d 
  4068d8:	43 00 00 00 	addiu $29,$29,40
  4068dc:	28 00 1d 1d 
  4068e0:	03 00 00 00 	jr $31
  4068e4:	00 00 00 1f 

004068e8 <malloc>:
  4068e8:	28 00 00 00 	lw $2,-32380($28)
  4068ec:	84 81 02 1c 
  4068f0:	43 00 00 00 	addiu $29,$29,-40
  4068f4:	d8 ff 1d 1d 
  4068f8:	34 00 00 00 	sw $16,16($29)
  4068fc:	10 00 10 1d 
  406900:	42 00 00 00 	addu $16,$0,$4
  406904:	00 10 04 00 
  406908:	34 00 00 00 	sw $31,36($29)
  40690c:	24 00 1f 1d 
  406910:	34 00 00 00 	sw $20,32($29)
  406914:	20 00 14 1d 
  406918:	34 00 00 00 	sw $19,28($29)
  40691c:	1c 00 13 1d 
  406920:	34 00 00 00 	sw $18,24($29)
  406924:	18 00 12 1d 
  406928:	34 00 00 00 	sw $17,20($29)
  40692c:	14 00 11 1d 
  406930:	05 00 00 00 	beq $2,$0,406948 <malloc+0x60>
  406934:	04 00 00 02 
  406938:	04 00 00 00 	jalr $31,$2
  40693c:	00 1f 00 02 
  406940:	01 00 00 00 	j 407228 <malloc+0x940>
  406944:	8a 1c 10 00 
  406948:	28 00 00 00 	lw $2,-32356($28)
  40694c:	9c 81 02 1c 
  406950:	06 00 00 00 	bne $2,$0,406968 <malloc+0x80>
  406954:	04 00 00 02 
  406958:	02 00 00 00 	jal 406340 <initialize>
  40695c:	d0 18 10 00 
  406960:	05 00 00 00 	beq $2,$0,4070f8 <malloc+0x810>
  406964:	e4 01 00 02 
  406968:	5e 00 00 00 	sltiu $2,$16,8
  40696c:	08 00 02 10 
  406970:	05 00 00 00 	beq $2,$0,406980 <malloc+0x98>
  406974:	02 00 00 02 
  406978:	43 00 00 00 	addiu $16,$0,8
  40697c:	08 00 10 00 
  406980:	5e 00 00 00 	sltiu $2,$16,2049
  406984:	01 08 02 10 
  406988:	05 00 00 00 	beq $2,$0,406d20 <malloc+0x438>
  40698c:	e4 00 00 02 
  406990:	43 00 00 00 	addiu $17,$0,1
  406994:	01 00 11 00 
  406998:	43 00 00 00 	addiu $16,$16,-1
  40699c:	ff ff 10 10 
  4069a0:	57 00 00 00 	srl $16,$16,0x1
  4069a4:	01 10 10 00 
  4069a8:	05 00 00 00 	beq $16,$0,4069c8 <malloc+0xe0>
  4069ac:	06 00 00 10 
  4069b0:	43 00 00 00 	addiu $17,$17,1
  4069b4:	01 00 11 11 
  4069b8:	57 00 00 00 	srl $16,$16,0x1
  4069bc:	01 10 10 00 
  4069c0:	06 00 00 00 	bne $16,$0,4069b0 <malloc+0xc8>
  4069c4:	fa ff 00 10 
  4069c8:	55 00 00 00 	sll $16,$17,0x3
  4069cc:	03 10 11 00 
  4069d0:	a2 00 00 00 	lui $2,4096
  4069d4:	00 10 02 00 
  4069d8:	42 00 00 00 	addu $2,$2,$16
  4069dc:	00 02 10 02 
  4069e0:	28 00 00 00 	lw $2,9296($2)
  4069e4:	50 24 02 02 
  4069e8:	05 00 00 00 	beq $2,$0,406b40 <malloc+0x258>
  4069ec:	54 00 00 02 
  4069f0:	42 00 00 00 	addu $6,$0,$2
  4069f4:	00 06 02 00 
  4069f8:	28 00 00 00 	lw $3,4($6)
  4069fc:	04 00 03 06 
  406a00:	28 00 00 00 	lw $2,0($6)
  406a04:	00 00 02 06 
  406a08:	34 00 00 00 	sw $2,0($3)
  406a0c:	00 00 02 03 
  406a10:	28 00 00 00 	lw $3,0($6)
  406a14:	00 00 03 06 
  406a18:	05 00 00 00 	beq $3,$0,406a30 <malloc+0x148>
  406a1c:	04 00 00 03 
  406a20:	28 00 00 00 	lw $2,4($6)
  406a24:	04 00 02 06 
  406a28:	34 00 00 00 	sw $2,4($3)
  406a2c:	04 00 02 03 
  406a30:	28 00 00 00 	lw $2,-32348($28)
  406a34:	a4 81 02 1c 
  406a38:	45 00 00 00 	subu $2,$6,$2
  406a3c:	00 02 02 06 
  406a40:	0a 00 00 00 	bgez $2,406a50 <malloc+0x168>
  406a44:	02 00 00 02 
  406a48:	43 00 00 00 	addiu $2,$2,4095
  406a4c:	ff 0f 02 02 
  406a50:	59 00 00 00 	sra $2,$2,0xc
  406a54:	0c 02 02 00 
  406a58:	43 00 00 00 	addiu $7,$2,1
  406a5c:	01 00 07 02 
  406a60:	28 00 00 00 	lw $3,-32360($28)
  406a64:	98 81 03 1c 
  406a68:	55 00 00 00 	sll $2,$7,0x1
  406a6c:	01 02 07 00 
  406a70:	42 00 00 00 	addu $2,$2,$7
  406a74:	00 02 07 02 
  406a78:	55 00 00 00 	sll $2,$2,0x2
  406a7c:	02 02 02 00 
  406a80:	42 00 00 00 	addu $3,$2,$3
  406a84:	00 03 03 02 
  406a88:	28 00 00 00 	lw $2,4($3)
  406a8c:	04 00 02 03 
  406a90:	43 00 00 00 	addiu $2,$2,-1
  406a94:	ff ff 02 02 
  406a98:	34 00 00 00 	sw $2,4($3)
  406a9c:	04 00 02 03 
  406aa0:	05 00 00 00 	beq $2,$0,406ac8 <malloc+0x1e0>
  406aa4:	08 00 00 02 
  406aa8:	28 00 00 00 	lw $2,0($6)
  406aac:	00 00 02 06 
  406ab0:	4f 00 00 00 	andi $2,$2,4095
  406ab4:	ff 0f 02 02 
  406ab8:	58 00 00 00 	srlv $2,$2,$17
  406abc:	00 02 02 11 
  406ac0:	34 00 00 00 	sw $2,8($3)
  406ac4:	08 00 02 03 
  406ac8:	28 00 00 00 	lw $2,-32344($28)
  406acc:	a8 81 02 1c 
  406ad0:	43 00 00 00 	addiu $5,$0,1
  406ad4:	01 00 05 00 
  406ad8:	28 00 00 00 	lw $3,-32376($28)
  406adc:	88 81 03 1c 
  406ae0:	28 00 00 00 	lw $4,-32352($28)
  406ae4:	a0 81 04 1c 
  406ae8:	56 00 00 00 	sllv $5,$5,$17
  406aec:	00 05 05 11 
  406af0:	43 00 00 00 	addiu $2,$2,1
  406af4:	01 00 02 02 
  406af8:	34 00 00 00 	sw $2,-32344($28)
  406afc:	a8 81 02 1c 
  406b00:	28 00 00 00 	lw $2,-32384($28)
  406b04:	80 81 02 1c 
  406b08:	43 00 00 00 	addiu $3,$3,-1
  406b0c:	ff ff 03 03 
  406b10:	45 00 00 00 	subu $4,$4,$5
  406b14:	00 04 05 04 
  406b18:	34 00 00 00 	sw $3,-32376($28)
  406b1c:	88 81 03 1c 
  406b20:	34 00 00 00 	sw $4,-32352($28)
  406b24:	a0 81 04 1c 
  406b28:	42 00 00 00 	addu $2,$5,$2
  406b2c:	00 02 02 05 
  406b30:	34 00 00 00 	sw $2,-32384($28)
  406b34:	80 81 02 1c 
  406b38:	01 00 00 00 	j 407220 <malloc+0x938>
  406b3c:	88 1c 10 00 
  406b40:	43 00 00 00 	addiu $4,$0,4096
  406b44:	00 10 04 00 
  406b48:	02 00 00 00 	jal 4068e8 <malloc>
  406b4c:	3a 1a 10 00 
  406b50:	42 00 00 00 	addu $6,$0,$2
  406b54:	00 06 02 00 
  406b58:	05 00 00 00 	beq $6,$0,4070f8 <malloc+0x810>
  406b5c:	66 01 00 06 
  406b60:	43 00 00 00 	addiu $4,$0,1
  406b64:	01 00 04 00 
  406b68:	43 00 00 00 	addiu $2,$0,4096
  406b6c:	00 10 02 00 
  406b70:	5a 00 00 00 	srav $3,$2,$17
  406b74:	00 03 02 11 
  406b78:	5d 00 00 00 	sltu $2,$4,$3
  406b7c:	00 02 03 04 
  406b80:	05 00 00 00 	beq $2,$0,406c20 <malloc+0x338>
  406b84:	26 00 00 02 
  406b88:	42 00 00 00 	addu $7,$0,$16
  406b8c:	00 07 10 00 
  406b90:	a2 00 00 00 	lui $2,4096
  406b94:	00 10 02 00 
  406b98:	43 00 00 00 	addiu $2,$2,9296
  406b9c:	50 24 02 02 
  406ba0:	42 00 00 00 	addu $5,$7,$2
  406ba4:	00 05 02 07 
  406ba8:	42 00 00 00 	addu $8,$0,$3
  406bac:	00 08 03 00 
  406bb0:	a2 00 00 00 	lui $3,4096
  406bb4:	00 10 03 00 
  406bb8:	42 00 00 00 	addu $3,$3,$7
  406bbc:	00 03 07 03 
  406bc0:	28 00 00 00 	lw $3,9296($3)
  406bc4:	50 24 03 03 
  406bc8:	56 00 00 00 	sllv $2,$4,$17
  406bcc:	00 02 04 11 
  406bd0:	42 00 00 00 	addu $2,$6,$2
  406bd4:	00 02 02 06 
  406bd8:	34 00 00 00 	sw $3,0($2)
  406bdc:	00 00 03 02 
  406be0:	34 00 00 00 	sw $5,4($2)
  406be4:	04 00 05 02 
  406be8:	34 00 00 00 	sw $2,0($5)
  406bec:	00 00 02 05 
  406bf0:	28 00 00 00 	lw $3,0($2)
  406bf4:	00 00 03 02 
  406bf8:	05 00 00 00 	beq $3,$0,406c08 <malloc+0x320>
  406bfc:	02 00 00 03 
  406c00:	34 00 00 00 	sw $2,4($3)
  406c04:	04 00 02 03 
  406c08:	43 00 00 00 	addiu $4,$4,1
  406c0c:	01 00 04 04 
  406c10:	5d 00 00 00 	sltu $2,$4,$8
  406c14:	00 02 08 04 
  406c18:	06 00 00 00 	bne $2,$0,406bb0 <malloc+0x2c8>
  406c1c:	e4 ff 00 02 
  406c20:	28 00 00 00 	lw $2,-32348($28)
  406c24:	a4 81 02 1c 
  406c28:	45 00 00 00 	subu $2,$6,$2
  406c2c:	00 02 02 06 
  406c30:	0a 00 00 00 	bgez $2,406c40 <malloc+0x358>
  406c34:	02 00 00 02 
  406c38:	43 00 00 00 	addiu $2,$2,4095
  406c3c:	ff 0f 02 02 
  406c40:	59 00 00 00 	sra $2,$2,0xc
  406c44:	0c 02 02 00 
  406c48:	43 00 00 00 	addiu $7,$2,1
  406c4c:	01 00 07 02 
  406c50:	28 00 00 00 	lw $3,-32360($28)
  406c54:	98 81 03 1c 
  406c58:	55 00 00 00 	sll $2,$7,0x1
  406c5c:	01 02 07 00 
  406c60:	42 00 00 00 	addu $2,$2,$7
  406c64:	00 02 07 02 
  406c68:	28 00 00 00 	lw $5,-32376($28)
  406c6c:	88 81 05 1c 
  406c70:	55 00 00 00 	sll $2,$2,0x2
  406c74:	02 02 02 00 
  406c78:	42 00 00 00 	addu $2,$2,$3
  406c7c:	00 02 03 02 
  406c80:	43 00 00 00 	addiu $3,$4,-1
  406c84:	ff ff 03 04 
  406c88:	43 00 00 00 	addiu $5,$5,-1
  406c8c:	ff ff 05 05 
  406c90:	34 00 00 00 	sw $17,0($2)
  406c94:	00 00 11 02 
  406c98:	34 00 00 00 	sw $3,4($2)
  406c9c:	04 00 03 02 
  406ca0:	34 00 00 00 	sw $3,8($2)
  406ca4:	08 00 03 02 
  406ca8:	43 00 00 00 	addiu $2,$0,4096
  406cac:	00 10 02 00 
  406cb0:	28 00 00 00 	lw $4,-32352($28)
  406cb4:	a0 81 04 1c 
  406cb8:	5a 00 00 00 	srav $2,$2,$17
  406cbc:	00 02 02 11 
  406cc0:	42 00 00 00 	addu $5,$5,$2
  406cc4:	00 05 02 05 
  406cc8:	28 00 00 00 	lw $2,-32384($28)
  406ccc:	80 81 02 1c 
  406cd0:	43 00 00 00 	addiu $3,$0,1
  406cd4:	01 00 03 00 
  406cd8:	56 00 00 00 	sllv $3,$3,$17
  406cdc:	00 03 03 11 
  406ce0:	34 00 00 00 	sw $5,-32376($28)
  406ce4:	88 81 05 1c 
  406ce8:	43 00 00 00 	addiu $4,$4,4096
  406cec:	00 10 04 04 
  406cf0:	45 00 00 00 	subu $4,$4,$3
  406cf4:	00 04 03 04 
  406cf8:	43 00 00 00 	addiu $2,$2,-4096
  406cfc:	00 f0 02 02 
  406d00:	42 00 00 00 	addu $2,$2,$3
  406d04:	00 02 03 02 
  406d08:	34 00 00 00 	sw $4,-32352($28)
  406d0c:	a0 81 04 1c 
  406d10:	34 00 00 00 	sw $2,-32384($28)
  406d14:	80 81 02 1c 
  406d18:	01 00 00 00 	j 407220 <malloc+0x938>
  406d1c:	88 1c 10 00 
  406d20:	28 00 00 00 	lw $7,-32372($28)
  406d24:	8c 81 07 1c 
  406d28:	28 00 00 00 	lw $5,-32360($28)
  406d2c:	98 81 05 1c 
  406d30:	43 00 00 00 	addiu $2,$16,4095
  406d34:	ff 0f 02 10 
  406d38:	55 00 00 00 	sll $4,$7,0x1
  406d3c:	01 04 07 00 
  406d40:	42 00 00 00 	addu $3,$4,$7
  406d44:	00 03 07 04 
  406d48:	55 00 00 00 	sll $3,$3,0x2
  406d4c:	02 03 03 00 
  406d50:	42 00 00 00 	addu $3,$3,$5
  406d54:	00 03 05 03 
  406d58:	28 00 00 00 	lw $3,0($3)
  406d5c:	00 00 03 03 
  406d60:	57 00 00 00 	srl $18,$2,0xc
  406d64:	0c 12 02 00 
  406d68:	42 00 00 00 	addu $20,$0,$7
  406d6c:	00 14 07 00 
  406d70:	5d 00 00 00 	sltu $3,$3,$18
  406d74:	00 03 12 03 
  406d78:	05 00 00 00 	beq $3,$0,406fd8 <malloc+0x6f0>
  406d7c:	96 00 00 03 
  406d80:	55 00 00 00 	sll $19,$18,0xc
  406d84:	0c 13 12 00 
  406d88:	42 00 00 00 	addu $2,$4,$7
  406d8c:	00 02 07 04 
  406d90:	55 00 00 00 	sll $2,$2,0x2
  406d94:	02 02 02 00 
  406d98:	42 00 00 00 	addu $2,$2,$5
  406d9c:	00 02 05 02 
  406da0:	28 00 00 00 	lw $7,4($2)
  406da4:	04 00 07 02 
  406da8:	06 00 00 00 	bne $7,$20,406f98 <malloc+0x6b0>
  406dac:	7a 00 14 07 
  406db0:	28 00 00 00 	lw $7,8($5)
  406db4:	08 00 07 05 
  406db8:	28 00 00 00 	lw $3,-32368($28)
  406dbc:	90 81 03 1c 
  406dc0:	55 00 00 00 	sll $2,$7,0x1
  406dc4:	01 02 07 00 
  406dc8:	42 00 00 00 	addu $2,$2,$7
  406dcc:	00 02 07 02 
  406dd0:	55 00 00 00 	sll $2,$2,0x2
  406dd4:	02 02 02 00 
  406dd8:	42 00 00 00 	addu $2,$2,$5
  406ddc:	00 02 05 02 
  406de0:	28 00 00 00 	lw $17,0($2)
  406de4:	00 00 11 02 
  406de8:	05 00 00 00 	beq $3,$0,406ed0 <malloc+0x5e8>
  406dec:	38 00 00 03 
  406df0:	42 00 00 00 	addu $16,$7,$17
  406df4:	00 10 11 07 
  406df8:	06 00 00 00 	bne $16,$3,406ed0 <malloc+0x5e8>
  406dfc:	34 00 03 10 
  406e00:	28 00 00 00 	lw $2,-32640($28)
  406e04:	80 80 02 1c 
  406e08:	42 00 00 00 	addu $4,$0,$0
  406e0c:	00 04 00 00 
  406e10:	04 00 00 00 	jalr $31,$2
  406e14:	00 1f 00 02 
  406e18:	28 00 00 00 	lw $4,-32348($28)
  406e1c:	a4 81 04 1c 
  406e20:	43 00 00 00 	addiu $3,$16,-1
  406e24:	ff ff 03 10 
  406e28:	55 00 00 00 	sll $3,$3,0xc
  406e2c:	0c 03 03 00 
  406e30:	42 00 00 00 	addu $3,$3,$4
  406e34:	00 03 04 03 
  406e38:	06 00 00 00 	bne $2,$3,406ed0 <malloc+0x5e8>
  406e3c:	24 00 03 02 
  406e40:	45 00 00 00 	subu $17,$18,$17
  406e44:	00 11 11 12 
  406e48:	55 00 00 00 	sll $16,$17,0xc
  406e4c:	0c 10 11 00 
  406e50:	42 00 00 00 	addu $4,$0,$16
  406e54:	00 04 10 00 
  406e58:	02 00 00 00 	jal 4064c8 <morecore>
  406e5c:	32 19 10 00 
  406e60:	05 00 00 00 	beq $2,$0,406ed0 <malloc+0x5e8>
  406e64:	1a 00 00 02 
  406e68:	28 00 00 00 	lw $3,-32360($28)
  406e6c:	98 81 03 1c 
  406e70:	28 00 00 00 	lw $7,8($3)
  406e74:	08 00 07 03 
  406e78:	55 00 00 00 	sll $2,$7,0x1
  406e7c:	01 02 07 00 
  406e80:	42 00 00 00 	addu $2,$2,$7
  406e84:	00 02 07 02 
  406e88:	55 00 00 00 	sll $2,$2,0x2
  406e8c:	02 02 02 00 
  406e90:	42 00 00 00 	addu $2,$2,$3
  406e94:	00 02 03 02 
  406e98:	28 00 00 00 	lw $3,-32352($28)
  406e9c:	a0 81 03 1c 
  406ea0:	28 00 00 00 	lw $4,0($2)
  406ea4:	00 00 04 02 
  406ea8:	42 00 00 00 	addu $3,$16,$3
  406eac:	00 03 03 10 
  406eb0:	42 00 00 00 	addu $4,$17,$4
  406eb4:	00 04 04 11 
  406eb8:	34 00 00 00 	sw $3,-32352($28)
  406ebc:	a0 81 03 1c 
  406ec0:	34 00 00 00 	sw $4,0($2)
  406ec4:	00 00 04 02 
  406ec8:	01 00 00 00 	j 406f98 <malloc+0x6b0>
  406ecc:	e6 1b 10 00 
  406ed0:	42 00 00 00 	addu $4,$0,$19
  406ed4:	00 04 13 00 
  406ed8:	02 00 00 00 	jal 4064c8 <morecore>
  406edc:	32 19 10 00 
  406ee0:	42 00 00 00 	addu $6,$0,$2
  406ee4:	00 06 02 00 
  406ee8:	05 00 00 00 	beq $6,$0,4070f8 <malloc+0x810>
  406eec:	82 00 00 06 
  406ef0:	28 00 00 00 	lw $2,-32348($28)
  406ef4:	a4 81 02 1c 
  406ef8:	45 00 00 00 	subu $2,$6,$2
  406efc:	00 02 02 06 
  406f00:	0a 00 00 00 	bgez $2,406f10 <malloc+0x628>
  406f04:	02 00 00 02 
  406f08:	43 00 00 00 	addiu $2,$2,4095
  406f0c:	ff 0f 02 02 
  406f10:	59 00 00 00 	sra $2,$2,0xc
  406f14:	0c 02 02 00 
  406f18:	43 00 00 00 	addiu $7,$2,1
  406f1c:	01 00 07 02 
  406f20:	42 00 00 00 	addu $2,$0,$6
  406f24:	00 02 06 00 
  406f28:	28 00 00 00 	lw $6,-32360($28)
  406f2c:	98 81 06 1c 
  406f30:	55 00 00 00 	sll $3,$7,0x1
  406f34:	01 03 07 00 
  406f38:	42 00 00 00 	addu $3,$3,$7
  406f3c:	00 03 07 03 
  406f40:	28 00 00 00 	lw $4,-32344($28)
  406f44:	a8 81 04 1c 
  406f48:	28 00 00 00 	lw $5,-32384($28)
  406f4c:	80 81 05 1c 
  406f50:	55 00 00 00 	sll $3,$3,0x2
  406f54:	02 03 03 00 
  406f58:	42 00 00 00 	addu $3,$3,$6
  406f5c:	00 03 06 03 
  406f60:	43 00 00 00 	addiu $4,$4,1
  406f64:	01 00 04 04 
  406f68:	42 00 00 00 	addu $5,$19,$5
  406f6c:	00 05 05 13 
  406f70:	34 00 00 00 	sw $0,0($3)
  406f74:	00 00 00 03 
  406f78:	34 00 00 00 	sw $18,4($3)
  406f7c:	04 00 12 03 
  406f80:	34 00 00 00 	sw $4,-32344($28)
  406f84:	a8 81 04 1c 
  406f88:	34 00 00 00 	sw $5,-32384($28)
  406f8c:	80 81 05 1c 
  406f90:	01 00 00 00 	j 407228 <malloc+0x940>
  406f94:	8a 1c 10 00 
  406f98:	28 00 00 00 	lw $5,-32360($28)
  406f9c:	98 81 05 1c 
  406fa0:	55 00 00 00 	sll $4,$7,0x1
  406fa4:	01 04 07 00 
  406fa8:	42 00 00 00 	addu $2,$4,$7
  406fac:	00 02 07 04 
  406fb0:	55 00 00 00 	sll $2,$2,0x2
  406fb4:	02 02 02 00 
  406fb8:	42 00 00 00 	addu $2,$2,$5
  406fbc:	00 02 05 02 
  406fc0:	28 00 00 00 	lw $2,0($2)
  406fc4:	00 00 02 02 
  406fc8:	5d 00 00 00 	sltu $2,$2,$18
  406fcc:	00 02 12 02 
  406fd0:	06 00 00 00 	bne $2,$0,406d88 <malloc+0x4a0>
  406fd4:	6c ff 00 02 
  406fd8:	43 00 00 00 	addiu $3,$7,-1
  406fdc:	ff ff 03 07 
  406fe0:	28 00 00 00 	lw $4,-32348($28)
  406fe4:	a4 81 04 1c 
  406fe8:	28 00 00 00 	lw $8,-32360($28)
  406fec:	98 81 08 1c 
  406ff0:	55 00 00 00 	sll $2,$7,0x1
  406ff4:	01 02 07 00 
  406ff8:	42 00 00 00 	addu $2,$2,$7
  406ffc:	00 02 07 02 
  407000:	55 00 00 00 	sll $2,$2,0x2
  407004:	02 02 02 00 
  407008:	42 00 00 00 	addu $5,$2,$8
  40700c:	00 05 08 02 
  407010:	28 00 00 00 	lw $9,0($5)
  407014:	00 00 09 05 
  407018:	55 00 00 00 	sll $3,$3,0xc
  40701c:	0c 03 03 00 
  407020:	42 00 00 00 	addu $6,$3,$4
  407024:	00 06 04 03 
  407028:	5d 00 00 00 	sltu $2,$18,$9
  40702c:	00 02 09 12 
  407030:	05 00 00 00 	beq $2,$0,407108 <malloc+0x820>
  407034:	34 00 00 02 
  407038:	42 00 00 00 	addu $4,$7,$18
  40703c:	00 04 12 07 
  407040:	55 00 00 00 	sll $2,$4,0x1
  407044:	01 02 04 00 
  407048:	42 00 00 00 	addu $2,$2,$4
  40704c:	00 02 04 02 
  407050:	55 00 00 00 	sll $2,$2,0x2
  407054:	02 02 02 00 
  407058:	42 00 00 00 	addu $2,$2,$8
  40705c:	00 02 08 02 
  407060:	45 00 00 00 	subu $3,$9,$18
  407064:	00 03 12 09 
  407068:	34 00 00 00 	sw $3,0($2)
  40706c:	00 00 03 02 
  407070:	28 00 00 00 	lw $3,4($5)
  407074:	04 00 03 05 
  407078:	34 00 00 00 	sw $3,4($2)
  40707c:	04 00 03 02 
  407080:	28 00 00 00 	lw $3,8($5)
  407084:	08 00 03 05 
  407088:	34 00 00 00 	sw $3,8($2)
  40708c:	08 00 03 02 
  407090:	28 00 00 00 	lw $3,4($5)
  407094:	04 00 03 05 
  407098:	34 00 00 00 	sw $4,-32372($28)
  40709c:	8c 81 04 1c 
  4070a0:	28 00 00 00 	lw $5,8($5)
  4070a4:	08 00 05 05 
  4070a8:	55 00 00 00 	sll $2,$3,0x1
  4070ac:	01 02 03 00 
  4070b0:	42 00 00 00 	addu $2,$2,$3
  4070b4:	00 02 03 02 
  4070b8:	55 00 00 00 	sll $2,$2,0x2
  4070bc:	02 02 02 00 
  4070c0:	42 00 00 00 	addu $2,$2,$8
  4070c4:	00 02 08 02 
  4070c8:	34 00 00 00 	sw $4,8($2)
  4070cc:	08 00 04 02 
  4070d0:	55 00 00 00 	sll $2,$5,0x1
  4070d4:	01 02 05 00 
  4070d8:	42 00 00 00 	addu $2,$2,$5
  4070dc:	00 02 05 02 
  4070e0:	55 00 00 00 	sll $2,$2,0x2
  4070e4:	02 02 02 00 
  4070e8:	42 00 00 00 	addu $2,$2,$8
  4070ec:	00 02 08 02 
  4070f0:	01 00 00 00 	j 407190 <malloc+0x8a8>
  4070f4:	64 1c 10 00 
  4070f8:	42 00 00 00 	addu $2,$0,$0
  4070fc:	00 02 00 00 
  407100:	01 00 00 00 	j 407228 <malloc+0x940>
  407104:	8a 1c 10 00 
  407108:	28 00 00 00 	lw $3,4($5)
  40710c:	04 00 03 05 
  407110:	55 00 00 00 	sll $2,$3,0x1
  407114:	01 02 03 00 
  407118:	42 00 00 00 	addu $2,$2,$3
  40711c:	00 02 03 02 
  407120:	28 00 00 00 	lw $3,8($5)
  407124:	08 00 03 05 
  407128:	55 00 00 00 	sll $2,$2,0x2
  40712c:	02 02 02 00 
  407130:	42 00 00 00 	addu $2,$2,$8
  407134:	00 02 08 02 
  407138:	34 00 00 00 	sw $3,8($2)
  40713c:	08 00 03 02 
  407140:	28 00 00 00 	lw $3,8($5)
  407144:	08 00 03 05 
  407148:	28 00 00 00 	lw $2,-32376($28)
  40714c:	88 81 02 1c 
  407150:	28 00 00 00 	lw $4,4($5)
  407154:	04 00 04 05 
  407158:	43 00 00 00 	addiu $2,$2,-1
  40715c:	ff ff 02 02 
  407160:	34 00 00 00 	sw $2,-32376($28)
  407164:	88 81 02 1c 
  407168:	55 00 00 00 	sll $2,$3,0x1
  40716c:	01 02 03 00 
  407170:	42 00 00 00 	addu $2,$2,$3
  407174:	00 02 03 02 
  407178:	55 00 00 00 	sll $2,$2,0x2
  40717c:	02 02 02 00 
  407180:	42 00 00 00 	addu $2,$2,$8
  407184:	00 02 08 02 
  407188:	34 00 00 00 	sw $4,-32372($28)
  40718c:	8c 81 04 1c 
  407190:	34 00 00 00 	sw $4,4($2)
  407194:	04 00 04 02 
  407198:	28 00 00 00 	lw $4,-32360($28)
  40719c:	98 81 04 1c 
  4071a0:	55 00 00 00 	sll $2,$7,0x1
  4071a4:	01 02 07 00 
  4071a8:	42 00 00 00 	addu $2,$2,$7
  4071ac:	00 02 07 02 
  4071b0:	28 00 00 00 	lw $3,-32344($28)
  4071b4:	a8 81 03 1c 
  4071b8:	55 00 00 00 	sll $2,$2,0x2
  4071bc:	02 02 02 00 
  4071c0:	42 00 00 00 	addu $2,$2,$4
  4071c4:	00 02 04 02 
  4071c8:	34 00 00 00 	sw $0,0($2)
  4071cc:	00 00 00 02 
  4071d0:	34 00 00 00 	sw $18,4($2)
  4071d4:	04 00 12 02 
  4071d8:	28 00 00 00 	lw $2,-32384($28)
  4071dc:	80 81 02 1c 
  4071e0:	43 00 00 00 	addiu $3,$3,1
  4071e4:	01 00 03 03 
  4071e8:	34 00 00 00 	sw $3,-32344($28)
  4071ec:	a8 81 03 1c 
  4071f0:	28 00 00 00 	lw $3,-32352($28)
  4071f4:	a0 81 03 1c 
  4071f8:	55 00 00 00 	sll $4,$18,0xc
  4071fc:	0c 04 12 00 
  407200:	42 00 00 00 	addu $2,$4,$2
  407204:	00 02 02 04 
  407208:	45 00 00 00 	subu $3,$3,$4
  40720c:	00 03 04 03 
  407210:	34 00 00 00 	sw $2,-32384($28)
  407214:	80 81 02 1c 
  407218:	34 00 00 00 	sw $3,-32352($28)
  40721c:	a0 81 03 1c 
  407220:	42 00 00 00 	addu $2,$0,$6
  407224:	00 02 06 00 
  407228:	28 00 00 00 	lw $31,36($29)
  40722c:	24 00 1f 1d 
  407230:	28 00 00 00 	lw $20,32($29)
  407234:	20 00 14 1d 
  407238:	28 00 00 00 	lw $19,28($29)
  40723c:	1c 00 13 1d 
  407240:	28 00 00 00 	lw $18,24($29)
  407244:	18 00 12 1d 
  407248:	28 00 00 00 	lw $17,20($29)
  40724c:	14 00 11 1d 
  407250:	28 00 00 00 	lw $16,16($29)
  407254:	10 00 10 1d 
  407258:	43 00 00 00 	addiu $29,$29,40
  40725c:	28 00 1d 1d 
  407260:	03 00 00 00 	jr $31
  407264:	00 00 00 1f 
	...

00407270 <strrchr>:
  407270:	43 00 00 00 	addiu $29,$29,-32
  407274:	e0 ff 1d 1d 
  407278:	34 00 00 00 	sw $17,20($29)
  40727c:	14 00 11 1d 
  407280:	4f 00 00 00 	andi $17,$5,255
  407284:	ff 00 11 05 
  407288:	34 00 00 00 	sw $31,24($29)
  40728c:	18 00 1f 1d 
  407290:	34 00 00 00 	sw $16,16($29)
  407294:	10 00 10 1d 
  407298:	06 00 00 00 	bne $17,$0,4072b8 <strrchr+0x48>
  40729c:	06 00 00 11 
  4072a0:	42 00 00 00 	addu $5,$0,$0
  4072a4:	00 05 00 00 
  4072a8:	02 00 00 00 	jal 40a260 <strchr>
  4072ac:	98 28 10 00 
  4072b0:	01 00 00 00 	j 4072f8 <strrchr+0x88>
  4072b4:	be 1c 10 00 
  4072b8:	42 00 00 00 	addu $16,$0,$0
  4072bc:	00 10 00 00 
  4072c0:	42 00 00 00 	addu $5,$0,$17
  4072c4:	00 05 11 00 
  4072c8:	02 00 00 00 	jal 40a260 <strchr>
  4072cc:	98 28 10 00 
  4072d0:	05 00 00 00 	beq $2,$0,4072f0 <strrchr+0x80>
  4072d4:	06 00 00 02 
  4072d8:	42 00 00 00 	addu $16,$0,$2
  4072dc:	00 10 02 00 
  4072e0:	43 00 00 00 	addiu $4,$16,1
  4072e4:	01 00 04 10 
  4072e8:	01 00 00 00 	j 4072c0 <strrchr+0x50>
  4072ec:	b0 1c 10 00 
  4072f0:	42 00 00 00 	addu $2,$0,$16
  4072f4:	00 02 10 00 
  4072f8:	28 00 00 00 	lw $31,24($29)
  4072fc:	18 00 1f 1d 
  407300:	28 00 00 00 	lw $17,20($29)
  407304:	14 00 11 1d 
  407308:	28 00 00 00 	lw $16,16($29)
  40730c:	10 00 10 1d 
  407310:	43 00 00 00 	addiu $29,$29,32
  407314:	20 00 1d 1d 
  407318:	03 00 00 00 	jr $31
  40731c:	00 00 00 1f 

00407320 <syscall_error>:
  407320:	a2 00 00 00 	lui $1,4096
  407324:	00 10 01 00 
  407328:	34 00 00 00 	sw $2,8160($1)
  40732c:	e0 1f 02 01 
  407330:	43 00 00 00 	addiu $2,$0,-1
  407334:	ff ff 02 00 
  407338:	03 00 00 00 	jr $31
  40733c:	00 00 00 1f 

00407340 <__stdio_check_funcs>:
  407340:	43 00 00 00 	addiu $29,$29,-24
  407344:	e8 ff 1d 1d 
  407348:	34 00 00 00 	sw $16,16($29)
  40734c:	10 00 10 1d 
  407350:	42 00 00 00 	addu $16,$0,$4
  407354:	00 10 04 00 
  407358:	34 00 00 00 	sw $31,20($29)
  40735c:	14 00 1f 1d 
  407360:	28 00 00 00 	lw $2,76($16)
  407364:	4c 00 02 10 
  407368:	4f 00 00 00 	andi $2,$2,16384
  40736c:	00 40 02 02 
  407370:	06 00 00 00 	bne $2,$0,407428 <__stdio_check_funcs+0xe8>
  407374:	2c 00 00 02 
  407378:	28 00 00 00 	lw $2,-32624($28)
  40737c:	90 80 02 1c 
  407380:	a2 00 00 00 	lui $3,4096
  407384:	00 10 03 00 
  407388:	28 00 00 00 	lw $3,7956($3)
  40738c:	14 1f 03 03 
  407390:	34 00 00 00 	sw $2,52($16)
  407394:	34 00 02 10 
  407398:	34 00 00 00 	sw $3,56($16)
  40739c:	38 00 03 10 
  4073a0:	a2 00 00 00 	lui $5,4096
  4073a4:	00 10 05 00 
  4073a8:	43 00 00 00 	addiu $5,$5,1040
  4073ac:	10 04 05 05 
  4073b0:	28 00 00 00 	lw $2,0($5)
  4073b4:	00 00 02 05 
  4073b8:	28 00 00 00 	lw $3,4($5)
  4073bc:	04 00 03 05 
  4073c0:	28 00 00 00 	lw $4,8($5)
  4073c4:	08 00 04 05 
  4073c8:	34 00 00 00 	sw $2,32($16)
  4073cc:	20 00 02 10 
  4073d0:	34 00 00 00 	sw $3,36($16)
  4073d4:	24 00 03 10 
  4073d8:	34 00 00 00 	sw $4,40($16)
  4073dc:	28 00 04 10 
  4073e0:	28 00 00 00 	lw $2,12($5)
  4073e4:	0c 00 02 05 
  4073e8:	28 00 00 00 	lw $3,16($5)
  4073ec:	10 00 03 05 
  4073f0:	34 00 00 00 	sw $2,44($16)
  4073f4:	2c 00 02 10 
  4073f8:	34 00 00 00 	sw $3,48($16)
  4073fc:	30 00 03 10 
  407400:	42 00 00 00 	addu $4,$0,$16
  407404:	00 04 10 00 
  407408:	02 00 00 00 	jal 40fcc0 <__stdio_init_stream>
  40740c:	30 3f 10 00 
  407410:	28 00 00 00 	lw $2,76($16)
  407414:	4c 00 02 10 
  407418:	51 00 00 00 	ori $2,$2,16384
  40741c:	00 40 02 02 
  407420:	34 00 00 00 	sw $2,76($16)
  407424:	4c 00 02 10 
  407428:	28 00 00 00 	lw $31,20($29)
  40742c:	14 00 1f 1d 
  407430:	28 00 00 00 	lw $16,16($29)
  407434:	10 00 10 1d 
  407438:	43 00 00 00 	addiu $29,$29,24
  40743c:	18 00 1d 1d 
  407440:	03 00 00 00 	jr $31
  407444:	00 00 00 1f 

00407448 <__stdio_check_offset>:
  407448:	43 00 00 00 	addiu $29,$29,-40
  40744c:	d8 ff 1d 1d 
  407450:	34 00 00 00 	sw $16,24($29)
  407454:	18 00 10 1d 
  407458:	42 00 00 00 	addu $16,$0,$4
  40745c:	00 10 04 00 
  407460:	34 00 00 00 	sw $31,32($29)
  407464:	20 00 1f 1d 
  407468:	34 00 00 00 	sw $17,28($29)
  40746c:	1c 00 11 1d 
  407470:	28 00 00 00 	lw $2,76($16)
  407474:	4c 00 02 10 
  407478:	4f 00 00 00 	andi $2,$2,16384
  40747c:	00 40 02 02 
  407480:	06 00 00 00 	bne $2,$0,407538 <__stdio_check_offset+0xf0>
  407484:	2c 00 00 02 
  407488:	28 00 00 00 	lw $2,-32624($28)
  40748c:	90 80 02 1c 
  407490:	a2 00 00 00 	lui $3,4096
  407494:	00 10 03 00 
  407498:	28 00 00 00 	lw $3,7956($3)
  40749c:	14 1f 03 03 
  4074a0:	34 00 00 00 	sw $2,52($16)
  4074a4:	34 00 02 10 
  4074a8:	34 00 00 00 	sw $3,56($16)
  4074ac:	38 00 03 10 
  4074b0:	a2 00 00 00 	lui $5,4096
  4074b4:	00 10 05 00 
  4074b8:	43 00 00 00 	addiu $5,$5,1040
  4074bc:	10 04 05 05 
  4074c0:	28 00 00 00 	lw $2,0($5)
  4074c4:	00 00 02 05 
  4074c8:	28 00 00 00 	lw $3,4($5)
  4074cc:	04 00 03 05 
  4074d0:	28 00 00 00 	lw $4,8($5)
  4074d4:	08 00 04 05 
  4074d8:	34 00 00 00 	sw $2,32($16)
  4074dc:	20 00 02 10 
  4074e0:	34 00 00 00 	sw $3,36($16)
  4074e4:	24 00 03 10 
  4074e8:	34 00 00 00 	sw $4,40($16)
  4074ec:	28 00 04 10 
  4074f0:	28 00 00 00 	lw $2,12($5)
  4074f4:	0c 00 02 05 
  4074f8:	28 00 00 00 	lw $3,16($5)
  4074fc:	10 00 03 05 
  407500:	34 00 00 00 	sw $2,44($16)
  407504:	2c 00 02 10 
  407508:	34 00 00 00 	sw $3,48($16)
  40750c:	30 00 03 10 
  407510:	42 00 00 00 	addu $4,$0,$16
  407514:	00 04 10 00 
  407518:	02 00 00 00 	jal 40fcc0 <__stdio_init_stream>
  40751c:	30 3f 10 00 
  407520:	28 00 00 00 	lw $2,76($16)
  407524:	4c 00 02 10 
  407528:	51 00 00 00 	ori $2,$2,16384
  40752c:	00 40 02 02 
  407530:	34 00 00 00 	sw $2,76($16)
  407534:	4c 00 02 10 
  407538:	28 00 00 00 	lw $2,16($16)
  40753c:	10 00 02 10 
  407540:	06 00 00 00 	bne $2,$0,407620 <__stdio_check_offset+0x1d8>
  407544:	36 00 00 02 
  407548:	28 00 00 00 	lw $2,76($16)
  40754c:	4c 00 02 10 
  407550:	4f 00 00 00 	andi $2,$2,2048
  407554:	00 08 02 02 
  407558:	06 00 00 00 	bne $2,$0,407620 <__stdio_check_offset+0x1d8>
  40755c:	30 00 00 02 
  407560:	28 00 00 00 	lw $2,20($16)
  407564:	14 00 02 10 
  407568:	06 00 00 00 	bne $2,$0,407580 <__stdio_check_offset+0x138>
  40756c:	04 00 00 02 
  407570:	43 00 00 00 	addiu $2,$0,1024
  407574:	00 04 02 00 
  407578:	34 00 00 00 	sw $2,20($16)
  40757c:	14 00 02 10 
  407580:	28 00 00 00 	lw $4,20($16)
  407584:	14 00 04 10 
  407588:	28 00 00 00 	lw $17,-32416($28)
  40758c:	60 81 11 1c 
  407590:	5e 00 00 00 	sltiu $2,$4,128
  407594:	80 00 02 04 
  407598:	06 00 00 00 	bne $2,$0,4075e8 <__stdio_check_offset+0x1a0>
  40759c:	12 00 00 02 
  4075a0:	02 00 00 00 	jal 4068e8 <malloc>
  4075a4:	3a 1a 10 00 
  4075a8:	34 00 00 00 	sw $2,16($16)
  4075ac:	10 00 02 10 
  4075b0:	06 00 00 00 	bne $2,$0,4075e8 <__stdio_check_offset+0x1a0>
  4075b4:	0c 00 00 02 
  4075b8:	28 00 00 00 	lw $2,20($16)
  4075bc:	14 00 02 10 
  4075c0:	57 00 00 00 	srl $2,$2,0x1
  4075c4:	01 02 02 00 
  4075c8:	42 00 00 00 	addu $4,$0,$2
  4075cc:	00 04 02 00 
  4075d0:	5e 00 00 00 	sltiu $2,$4,128
  4075d4:	80 00 02 04 
  4075d8:	34 00 00 00 	sw $4,20($16)
  4075dc:	14 00 04 10 
  4075e0:	05 00 00 00 	beq $2,$0,4075a0 <__stdio_check_offset+0x158>
  4075e4:	ee ff 00 02 
  4075e8:	28 00 00 00 	lw $2,16($16)
  4075ec:	10 00 02 10 
  4075f0:	34 00 00 00 	sw $17,-32416($28)
  4075f4:	60 81 11 1c 
  4075f8:	06 00 00 00 	bne $2,$0,407620 <__stdio_check_offset+0x1d8>
  4075fc:	08 00 00 02 
  407600:	28 00 00 00 	lw $2,76($16)
  407604:	4c 00 02 10 
  407608:	34 00 00 00 	sw $0,20($16)
  40760c:	14 00 00 10 
  407610:	51 00 00 00 	ori $2,$2,2048
  407614:	00 08 02 02 
  407618:	34 00 00 00 	sw $2,76($16)
  40761c:	4c 00 02 10 
  407620:	28 00 00 00 	lw $2,4($16)
  407624:	04 00 02 10 
  407628:	06 00 00 00 	bne $2,$0,407658 <__stdio_check_offset+0x210>
  40762c:	0a 00 00 02 
  407630:	28 00 00 00 	lw $2,16($16)
  407634:	10 00 02 10 
  407638:	28 00 00 00 	lw $3,16($16)
  40763c:	10 00 03 10 
  407640:	34 00 00 00 	sw $2,4($16)
  407644:	04 00 02 10 
  407648:	34 00 00 00 	sw $3,8($16)
  40764c:	08 00 03 10 
  407650:	34 00 00 00 	sw $3,12($16)
  407654:	0c 00 03 10 
  407658:	28 00 00 00 	lw $3,60($16)
  40765c:	3c 00 03 10 
  407660:	43 00 00 00 	addiu $2,$0,-1
  407664:	ff ff 02 00 
  407668:	06 00 00 00 	bne $3,$2,407710 <__stdio_check_offset+0x2c8>
  40766c:	28 00 02 03 
  407670:	28 00 00 00 	lw $2,40($16)
  407674:	28 00 02 10 
  407678:	06 00 00 00 	bne $2,$0,4076a0 <__stdio_check_offset+0x258>
  40767c:	08 00 00 02 
  407680:	43 00 00 00 	addiu $2,$0,29
  407684:	1d 00 02 00 
  407688:	34 00 00 00 	sw $2,-32416($28)
  40768c:	60 81 02 1c 
  407690:	43 00 00 00 	addiu $2,$0,-1
  407694:	ff ff 02 00 
  407698:	01 00 00 00 	j 407740 <__stdio_check_offset+0x2f8>
  40769c:	d0 1d 10 00 
  4076a0:	28 00 00 00 	lw $4,24($16)
  4076a4:	18 00 04 10 
  4076a8:	34 00 00 00 	sw $0,16($29)
  4076ac:	10 00 00 1d 
  4076b0:	28 00 00 00 	lw $2,40($16)
  4076b4:	28 00 02 10 
  4076b8:	43 00 00 00 	addiu $5,$29,16
  4076bc:	10 00 05 1d 
  4076c0:	43 00 00 00 	addiu $6,$0,1
  4076c4:	01 00 06 00 
  4076c8:	04 00 00 00 	jalr $31,$2
  4076cc:	00 1f 00 02 
  4076d0:	0a 00 00 00 	bgez $2,407700 <__stdio_check_offset+0x2b8>
  4076d4:	0a 00 00 02 
  4076d8:	28 00 00 00 	lw $3,-32416($28)
  4076dc:	60 81 03 1c 
  4076e0:	43 00 00 00 	addiu $2,$0,29
  4076e4:	1d 00 02 00 
  4076e8:	06 00 00 00 	bne $3,$2,407690 <__stdio_check_offset+0x248>
  4076ec:	e8 ff 02 03 
  4076f0:	34 00 00 00 	sw $0,40($16)
  4076f4:	28 00 00 10 
  4076f8:	01 00 00 00 	j 407690 <__stdio_check_offset+0x248>
  4076fc:	a4 1d 10 00 
  407700:	28 00 00 00 	lw $2,16($29)
  407704:	10 00 02 1d 
  407708:	34 00 00 00 	sw $2,60($16)
  40770c:	3c 00 02 10 
  407710:	28 00 00 00 	lw $3,64($16)
  407714:	40 00 03 10 
  407718:	43 00 00 00 	addiu $2,$0,-1
  40771c:	ff ff 02 00 
  407720:	06 00 00 00 	bne $3,$2,407738 <__stdio_check_offset+0x2f0>
  407724:	04 00 02 03 
  407728:	28 00 00 00 	lw $2,60($16)
  40772c:	3c 00 02 10 
  407730:	34 00 00 00 	sw $2,64($16)
  407734:	40 00 02 10 
  407738:	42 00 00 00 	addu $2,$0,$0
  40773c:	00 02 00 00 
  407740:	28 00 00 00 	lw $31,32($29)
  407744:	20 00 1f 1d 
  407748:	28 00 00 00 	lw $17,28($29)
  40774c:	1c 00 11 1d 
  407750:	28 00 00 00 	lw $16,24($29)
  407754:	18 00 10 1d 
  407758:	43 00 00 00 	addiu $29,$29,40
  40775c:	28 00 1d 1d 
  407760:	03 00 00 00 	jr $31
  407764:	00 00 00 1f 

00407768 <flushbuf>:
  407768:	43 00 00 00 	addiu $29,$29,-72
  40776c:	b8 ff 1d 1d 
  407770:	34 00 00 00 	sw $16,32($29)
  407774:	20 00 10 1d 
  407778:	42 00 00 00 	addu $16,$0,$4
  40777c:	00 10 04 00 
  407780:	34 00 00 00 	sw $20,48($29)
  407784:	30 00 14 1d 
  407788:	42 00 00 00 	addu $20,$0,$5
  40778c:	00 14 05 00 
  407790:	54 00 00 00 	nor $2,$0,$20
  407794:	00 02 14 00 
  407798:	34 00 00 00 	sw $21,52($29)
  40779c:	34 00 15 1d 
  4077a0:	5e 00 00 00 	sltiu $21,$2,1
  4077a4:	01 00 15 02 
  4077a8:	34 00 00 00 	sw $31,64($29)
  4077ac:	40 00 1f 1d 
  4077b0:	34 00 00 00 	sw $23,60($29)
  4077b4:	3c 00 17 1d 
  4077b8:	34 00 00 00 	sw $22,56($29)
  4077bc:	38 00 16 1d 
  4077c0:	34 00 00 00 	sw $19,44($29)
  4077c4:	2c 00 13 1d 
  4077c8:	34 00 00 00 	sw $18,40($29)
  4077cc:	28 00 12 1d 
  4077d0:	34 00 00 00 	sw $17,36($29)
  4077d4:	24 00 11 1d 
  4077d8:	28 00 00 00 	lw $5,12($16)
  4077dc:	0c 00 05 10 
  4077e0:	28 00 00 00 	lw $2,16($16)
  4077e4:	10 00 02 10 
  4077e8:	42 00 00 00 	addu $23,$0,$0
  4077ec:	00 17 00 00 
  4077f0:	43 00 00 00 	addiu $22,$0,-1
  4077f4:	ff ff 16 00 
  4077f8:	06 00 00 00 	bne $5,$2,407aa0 <flushbuf+0x338>
  4077fc:	a8 00 02 05 
  407800:	42 00 00 00 	addu $19,$0,$0
  407804:	00 13 00 00 
  407808:	28 00 00 00 	lw $2,4($16)
  40780c:	04 00 02 10 
  407810:	28 00 00 00 	lw $3,64($16)
  407814:	40 00 03 10 
  407818:	28 00 00 00 	lw $4,28($16)
  40781c:	1c 00 04 10 
  407820:	45 00 00 00 	subu $2,$2,$5
  407824:	00 02 05 02 
  407828:	42 00 00 00 	addu $2,$2,$3
  40782c:	00 02 03 02 
  407830:	34 00 00 00 	sw $2,64($16)
  407834:	40 00 02 10 
  407838:	4f 00 00 00 	andi $2,$4,1
  40783c:	01 00 02 04 
  407840:	05 00 00 00 	beq $2,$0,4079f8 <flushbuf+0x290>
  407844:	6c 00 00 02 
  407848:	28 00 00 00 	lw $2,52($16)
  40784c:	34 00 02 10 
  407850:	05 00 00 00 	beq $2,$0,4079f8 <flushbuf+0x290>
  407854:	68 00 00 02 
  407858:	4f 00 00 00 	andi $2,$4,4
  40785c:	04 00 02 04 
  407860:	06 00 00 00 	bne $2,$0,4079f8 <flushbuf+0x290>
  407864:	64 00 00 02 
  407868:	28 00 00 00 	lw $18,-32416($28)
  40786c:	60 81 12 1c 
  407870:	28 00 00 00 	lw $2,16($16)
  407874:	10 00 02 10 
  407878:	42 00 00 00 	addu $17,$0,$0
  40787c:	00 11 00 00 
  407880:	05 00 00 00 	beq $2,$0,4078d8 <flushbuf+0x170>
  407884:	14 00 00 02 
  407888:	42 00 00 00 	addu $4,$0,$16
  40788c:	00 04 10 00 
  407890:	02 00 00 00 	jal 407448 <__stdio_check_offset>
  407894:	12 1d 10 00 
  407898:	05 00 00 00 	beq $2,$22,4078d8 <flushbuf+0x170>
  40789c:	0e 00 16 02 
  4078a0:	28 00 00 00 	lw $2,64($16)
  4078a4:	40 00 02 10 
  4078a8:	28 00 00 00 	lw $3,20($16)
  4078ac:	14 00 03 10 
  4078b0:	49 00 00 00 	divu $0,$2,$3
  4078b4:	00 00 03 02 
  4078b8:	06 00 00 00 	bne $3,$0,4078c8 <flushbuf+0x160>
  4078bc:	02 00 00 03 
  4078c0:	a1 00 00 00 	break 
  4078c4:	07 00 00 00 
  4078c8:	4a 00 00 00 	mfhi $3
  4078cc:	00 03 00 00 
  4078d0:	06 00 00 00 	bne $3,$0,4078e0 <flushbuf+0x178>
  4078d4:	02 00 00 03 
  4078d8:	43 00 00 00 	addiu $17,$0,1
  4078dc:	01 00 11 00 
  4078e0:	34 00 00 00 	sw $18,-32416($28)
  4078e4:	60 81 12 1c 
  4078e8:	06 00 00 00 	bne $17,$0,4079f0 <flushbuf+0x288>
  4078ec:	40 00 00 11 
  4078f0:	28 00 00 00 	lw $3,64($16)
  4078f4:	40 00 03 10 
  4078f8:	28 00 00 00 	lw $2,20($16)
  4078fc:	14 00 02 10 
  407900:	49 00 00 00 	divu $0,$3,$2
  407904:	00 00 02 03 
  407908:	06 00 00 00 	bne $2,$0,407918 <flushbuf+0x1b0>
  40790c:	02 00 00 02 
  407910:	a1 00 00 00 	break 
  407914:	07 00 00 00 
  407918:	4a 00 00 00 	mfhi $17
  40791c:	00 11 00 00 
  407920:	28 00 00 00 	lw $2,52($16)
  407924:	34 00 02 10 
  407928:	42 00 00 00 	addu $4,$0,$16
  40792c:	00 04 10 00 
  407930:	45 00 00 00 	subu $3,$3,$17
  407934:	00 03 11 03 
  407938:	34 00 00 00 	sw $3,64($16)
  40793c:	40 00 03 10 
  407940:	04 00 00 00 	jalr $31,$2
  407944:	00 1f 00 02 
  407948:	43 00 00 00 	addiu $3,$0,-1
  40794c:	ff ff 03 00 
  407950:	06 00 00 00 	bne $2,$3,407970 <flushbuf+0x208>
  407954:	06 00 03 02 
  407958:	28 00 00 00 	lw $2,76($16)
  40795c:	4c 00 02 10 
  407960:	4f 00 00 00 	andi $2,$2,1024
  407964:	00 04 02 02 
  407968:	06 00 00 00 	bne $2,$0,407e98 <flushbuf+0x730>
  40796c:	4a 01 00 02 
  407970:	28 00 00 00 	lw $3,76($16)
  407974:	4c 00 03 10 
  407978:	43 00 00 00 	addiu $2,$0,-513
  40797c:	ff fd 02 00 
  407980:	28 00 00 00 	lw $4,8($16)
  407984:	08 00 04 10 
  407988:	28 00 00 00 	lw $5,16($16)
  40798c:	10 00 05 10 
  407990:	4e 00 00 00 	and $3,$3,$2
  407994:	00 03 02 03 
  407998:	43 00 00 00 	addiu $2,$0,-1025
  40799c:	ff fb 02 00 
  4079a0:	4e 00 00 00 	and $3,$3,$2
  4079a4:	00 03 02 03 
  4079a8:	45 00 00 00 	subu $4,$4,$5
  4079ac:	00 04 05 04 
  4079b0:	5d 00 00 00 	sltu $4,$4,$17
  4079b4:	00 04 11 04 
  4079b8:	34 00 00 00 	sw $3,76($16)
  4079bc:	4c 00 03 10 
  4079c0:	05 00 00 00 	beq $4,$0,4079e8 <flushbuf+0x280>
  4079c4:	08 00 00 04 
  4079c8:	28 00 00 00 	lw $2,64($16)
  4079cc:	40 00 02 10 
  4079d0:	42 00 00 00 	addu $2,$17,$2
  4079d4:	00 02 02 11 
  4079d8:	34 00 00 00 	sw $2,64($16)
  4079dc:	40 00 02 10 
  4079e0:	01 00 00 00 	j 4079f0 <flushbuf+0x288>
  4079e4:	7c 1e 10 00 
  4079e8:	42 00 00 00 	addu $19,$0,$17
  4079ec:	00 13 11 00 
  4079f0:	43 00 00 00 	addiu $23,$0,1
  4079f4:	01 00 17 00 
  4079f8:	28 00 00 00 	lw $4,16($16)
  4079fc:	10 00 04 10 
  407a00:	05 00 00 00 	beq $4,$0,407aa0 <flushbuf+0x338>
  407a04:	26 00 00 04 
  407a08:	28 00 00 00 	lw $2,20($16)
  407a0c:	14 00 02 10 
  407a10:	28 00 00 00 	lw $3,16($16)
  407a14:	10 00 03 10 
  407a18:	42 00 00 00 	addu $2,$4,$2
  407a1c:	00 02 02 04 
  407a20:	42 00 00 00 	addu $3,$19,$3
  407a24:	00 03 03 13 
  407a28:	34 00 00 00 	sw $2,12($16)
  407a2c:	0c 00 02 10 
  407a30:	34 00 00 00 	sw $3,4($16)
  407a34:	04 00 03 10 
  407a38:	06 00 00 00 	bne $21,$0,407aa0 <flushbuf+0x338>
  407a3c:	18 00 00 15 
  407a40:	43 00 00 00 	addiu $2,$3,1
  407a44:	01 00 02 03 
  407a48:	34 00 00 00 	sw $2,4($16)
  407a4c:	04 00 02 10 
  407a50:	30 00 00 00 	sb $20,0($3)
  407a54:	00 00 14 03 
  407a58:	28 00 00 00 	lw $2,76($16)
  407a5c:	4c 00 02 10 
  407a60:	4f 00 00 00 	andi $2,$2,4096
  407a64:	00 10 02 02 
  407a68:	05 00 00 00 	beq $2,$0,407a88 <flushbuf+0x320>
  407a6c:	06 00 00 02 
  407a70:	4f 00 00 00 	andi $3,$20,255
  407a74:	ff 00 03 14 
  407a78:	43 00 00 00 	addiu $2,$0,10
  407a7c:	0a 00 02 00 
  407a80:	05 00 00 00 	beq $3,$2,407a98 <flushbuf+0x330>
  407a84:	04 00 02 03 
  407a88:	42 00 00 00 	addu $19,$0,$0
  407a8c:	00 13 00 00 
  407a90:	01 00 00 00 	j 407e40 <flushbuf+0x6d8>
  407a94:	90 1f 10 00 
  407a98:	43 00 00 00 	addiu $21,$0,1
  407a9c:	01 00 15 00 
  407aa0:	28 00 00 00 	lw $2,4($16)
  407aa4:	04 00 02 10 
  407aa8:	28 00 00 00 	lw $4,16($16)
  407aac:	10 00 04 10 
  407ab0:	45 00 00 00 	subu $19,$2,$4
  407ab4:	00 13 04 02 
  407ab8:	05 00 00 00 	beq $19,$0,407af0 <flushbuf+0x388>
  407abc:	0c 00 00 13 
  407ac0:	28 00 00 00 	lw $3,8($16)
  407ac4:	08 00 03 10 
  407ac8:	42 00 00 00 	addu $18,$0,$19
  407acc:	00 12 13 00 
  407ad0:	5d 00 00 00 	sltu $2,$2,$3
  407ad4:	00 02 03 02 
  407ad8:	05 00 00 00 	beq $2,$0,407af8 <flushbuf+0x390>
  407adc:	06 00 00 02 
  407ae0:	45 00 00 00 	subu $18,$3,$4
  407ae4:	00 12 04 03 
  407ae8:	01 00 00 00 	j 407af8 <flushbuf+0x390>
  407aec:	be 1e 10 00 
  407af0:	42 00 00 00 	addu $18,$0,$0
  407af4:	00 12 00 00 
  407af8:	28 00 00 00 	lw $2,36($16)
  407afc:	24 00 02 10 
  407b00:	05 00 00 00 	beq $2,$0,407b18 <flushbuf+0x3b0>
  407b04:	04 00 00 02 
  407b08:	06 00 00 00 	bne $18,$0,407b48 <flushbuf+0x3e0>
  407b0c:	0e 00 00 12 
  407b10:	05 00 00 00 	beq $21,$0,407d28 <flushbuf+0x5c0>
  407b14:	84 00 00 15 
  407b18:	28 00 00 00 	lw $2,60($16)
  407b1c:	3c 00 02 10 
  407b20:	28 00 00 00 	lw $3,16($16)
  407b24:	10 00 03 10 
  407b28:	42 00 00 00 	addu $2,$18,$2
  407b2c:	00 02 02 12 
  407b30:	34 00 00 00 	sw $3,4($16)
  407b34:	04 00 03 10 
  407b38:	34 00 00 00 	sw $2,60($16)
  407b3c:	3c 00 02 10 
  407b40:	01 00 00 00 	j 407e40 <flushbuf+0x6d8>
  407b44:	90 1f 10 00 
  407b48:	28 00 00 00 	lw $2,28($16)
  407b4c:	1c 00 02 10 
  407b50:	4f 00 00 00 	andi $2,$2,4
  407b54:	04 00 02 02 
  407b58:	06 00 00 00 	bne $2,$0,407c68 <flushbuf+0x500>
  407b5c:	42 00 00 02 
  407b60:	28 00 00 00 	lw $17,-32416($28)
  407b64:	60 81 11 1c 
  407b68:	42 00 00 00 	addu $4,$0,$16
  407b6c:	00 04 10 00 
  407b70:	02 00 00 00 	jal 407448 <__stdio_check_offset>
  407b74:	12 1d 10 00 
  407b78:	43 00 00 00 	addiu $3,$0,-1
  407b7c:	ff ff 03 00 
  407b80:	06 00 00 00 	bne $2,$3,407bb0 <flushbuf+0x448>
  407b84:	0a 00 03 02 
  407b88:	28 00 00 00 	lw $3,-32416($28)
  407b8c:	60 81 03 1c 
  407b90:	43 00 00 00 	addiu $2,$0,29
  407b94:	1d 00 02 00 
  407b98:	06 00 00 00 	bne $3,$2,407c50 <flushbuf+0x4e8>
  407b9c:	2c 00 02 03 
  407ba0:	34 00 00 00 	sw $17,-32416($28)
  407ba4:	60 81 11 1c 
  407ba8:	01 00 00 00 	j 407c68 <flushbuf+0x500>
  407bac:	1a 1f 10 00 
  407bb0:	28 00 00 00 	lw $3,64($16)
  407bb4:	40 00 03 10 
  407bb8:	28 00 00 00 	lw $2,60($16)
  407bbc:	3c 00 02 10 
  407bc0:	05 00 00 00 	beq $3,$2,407c68 <flushbuf+0x500>
  407bc4:	28 00 02 03 
  407bc8:	28 00 00 00 	lw $2,40($16)
  407bcc:	28 00 02 10 
  407bd0:	06 00 00 00 	bne $2,$0,407bf8 <flushbuf+0x490>
  407bd4:	08 00 00 02 
  407bd8:	28 00 00 00 	lw $2,76($16)
  407bdc:	4c 00 02 10 
  407be0:	43 00 00 00 	addiu $3,$0,29
  407be4:	1d 00 03 00 
  407be8:	34 00 00 00 	sw $3,-32416($28)
  407bec:	60 81 03 1c 
  407bf0:	01 00 00 00 	j 407c58 <flushbuf+0x4f0>
  407bf4:	16 1f 10 00 
  407bf8:	28 00 00 00 	lw $4,24($16)
  407bfc:	18 00 04 10 
  407c00:	28 00 00 00 	lw $2,40($16)
  407c04:	28 00 02 10 
  407c08:	43 00 00 00 	addiu $5,$29,16
  407c0c:	10 00 05 1d 
  407c10:	42 00 00 00 	addu $6,$0,$0
  407c14:	00 06 00 00 
  407c18:	34 00 00 00 	sw $3,16($29)
  407c1c:	10 00 03 1d 
  407c20:	04 00 00 00 	jalr $31,$2
  407c24:	00 1f 00 02 
  407c28:	09 00 00 00 	bltz $2,407c50 <flushbuf+0x4e8>
  407c2c:	08 00 00 02 
  407c30:	28 00 00 00 	lw $2,16($29)
  407c34:	10 00 02 1d 
  407c38:	28 00 00 00 	lw $3,64($16)
  407c3c:	40 00 03 10 
  407c40:	34 00 00 00 	sw $2,60($16)
  407c44:	3c 00 02 10 
  407c48:	05 00 00 00 	beq $2,$3,407c68 <flushbuf+0x500>
  407c4c:	06 00 03 02 
  407c50:	28 00 00 00 	lw $2,76($16)
  407c54:	4c 00 02 10 
  407c58:	51 00 00 00 	ori $2,$2,1024
  407c5c:	00 04 02 02 
  407c60:	34 00 00 00 	sw $2,76($16)
  407c64:	4c 00 02 10 
  407c68:	28 00 00 00 	lw $2,76($16)
  407c6c:	4c 00 02 10 
  407c70:	4f 00 00 00 	andi $2,$2,1024
  407c74:	00 04 02 02 
  407c78:	06 00 00 00 	bne $2,$0,407d28 <flushbuf+0x5c0>
  407c7c:	2a 00 00 02 
  407c80:	28 00 00 00 	lw $4,24($16)
  407c84:	18 00 04 10 
  407c88:	28 00 00 00 	lw $5,16($16)
  407c8c:	10 00 05 10 
  407c90:	28 00 00 00 	lw $2,36($16)
  407c94:	24 00 02 10 
  407c98:	42 00 00 00 	addu $6,$0,$18
  407c9c:	00 06 12 00 
  407ca0:	04 00 00 00 	jalr $31,$2
  407ca4:	00 1f 00 02 
  407ca8:	42 00 00 00 	addu $3,$0,$2
  407cac:	00 03 02 00 
  407cb0:	07 00 00 00 	blez $3,407d00 <flushbuf+0x598>
  407cb4:	12 00 00 03 
  407cb8:	28 00 00 00 	lw $2,28($16)
  407cbc:	1c 00 02 10 
  407cc0:	4f 00 00 00 	andi $2,$2,4
  407cc4:	04 00 02 02 
  407cc8:	05 00 00 00 	beq $2,$0,407ce8 <flushbuf+0x580>
  407ccc:	06 00 00 02 
  407cd0:	43 00 00 00 	addiu $2,$0,-1
  407cd4:	ff ff 02 00 
  407cd8:	34 00 00 00 	sw $2,64($16)
  407cdc:	40 00 02 10 
  407ce0:	01 00 00 00 	j 407cf8 <flushbuf+0x590>
  407ce4:	3e 1f 10 00 
  407ce8:	28 00 00 00 	lw $2,60($16)
  407cec:	3c 00 02 10 
  407cf0:	42 00 00 00 	addu $2,$3,$2
  407cf4:	00 02 02 03 
  407cf8:	34 00 00 00 	sw $2,60($16)
  407cfc:	3c 00 02 10 
  407d00:	5b 00 00 00 	slt $2,$3,$18
  407d04:	00 02 12 03 
  407d08:	05 00 00 00 	beq $2,$0,407d28 <flushbuf+0x5c0>
  407d0c:	06 00 00 02 
  407d10:	28 00 00 00 	lw $2,76($16)
  407d14:	4c 00 02 10 
  407d18:	51 00 00 00 	ori $2,$2,1024
  407d1c:	00 04 02 02 
  407d20:	34 00 00 00 	sw $2,76($16)
  407d24:	4c 00 02 10 
  407d28:	28 00 00 00 	lw $2,16($16)
  407d2c:	10 00 02 10 
  407d30:	34 00 00 00 	sw $2,4($16)
  407d34:	04 00 02 10 
  407d38:	06 00 00 00 	bne $21,$0,407e40 <flushbuf+0x6d8>
  407d3c:	40 00 00 15 
  407d40:	28 00 00 00 	lw $3,76($16)
  407d44:	4c 00 03 10 
  407d48:	4f 00 00 00 	andi $2,$3,1024
  407d4c:	00 04 02 03 
  407d50:	06 00 00 00 	bne $2,$0,407e40 <flushbuf+0x6d8>
  407d54:	3a 00 00 02 
  407d58:	28 00 00 00 	lw $2,16($16)
  407d5c:	10 00 02 10 
  407d60:	05 00 00 00 	beq $2,$0,407d90 <flushbuf+0x628>
  407d64:	0a 00 00 02 
  407d68:	4f 00 00 00 	andi $2,$3,4096
  407d6c:	00 10 02 03 
  407d70:	05 00 00 00 	beq $2,$0,407e20 <flushbuf+0x6b8>
  407d74:	2a 00 00 02 
  407d78:	4f 00 00 00 	andi $3,$20,255
  407d7c:	ff 00 03 14 
  407d80:	43 00 00 00 	addiu $2,$0,10
  407d84:	0a 00 02 00 
  407d88:	06 00 00 00 	bne $3,$2,407e20 <flushbuf+0x6b8>
  407d8c:	24 00 02 03 
  407d90:	28 00 00 00 	lw $4,24($16)
  407d94:	18 00 04 10 
  407d98:	28 00 00 00 	lw $2,36($16)
  407d9c:	24 00 02 10 
  407da0:	43 00 00 00 	addiu $5,$29,24
  407da4:	18 00 05 1d 
  407da8:	43 00 00 00 	addiu $6,$0,1
  407dac:	01 00 06 00 
  407db0:	30 00 00 00 	sb $20,24($29)
  407db4:	18 00 14 1d 
  407db8:	04 00 00 00 	jalr $31,$2
  407dbc:	00 1f 00 02 
  407dc0:	08 00 00 00 	bgtz $2,407de8 <flushbuf+0x680>
  407dc4:	08 00 00 02 
  407dc8:	28 00 00 00 	lw $2,76($16)
  407dcc:	4c 00 02 10 
  407dd0:	51 00 00 00 	ori $2,$2,1024
  407dd4:	00 04 02 02 
  407dd8:	34 00 00 00 	sw $2,76($16)
  407ddc:	4c 00 02 10 
  407de0:	01 00 00 00 	j 407e40 <flushbuf+0x6d8>
  407de4:	90 1f 10 00 
  407de8:	28 00 00 00 	lw $2,60($16)
  407dec:	3c 00 02 10 
  407df0:	28 00 00 00 	lw $3,64($16)
  407df4:	40 00 03 10 
  407df8:	43 00 00 00 	addiu $2,$2,1
  407dfc:	01 00 02 02 
  407e00:	43 00 00 00 	addiu $3,$3,1
  407e04:	01 00 03 03 
  407e08:	34 00 00 00 	sw $2,60($16)
  407e0c:	3c 00 02 10 
  407e10:	34 00 00 00 	sw $3,64($16)
  407e14:	40 00 03 10 
  407e18:	01 00 00 00 	j 407e40 <flushbuf+0x6d8>
  407e1c:	90 1f 10 00 
  407e20:	28 00 00 00 	lw $3,4($16)
  407e24:	04 00 03 10 
  407e28:	43 00 00 00 	addiu $2,$3,1
  407e2c:	01 00 02 03 
  407e30:	34 00 00 00 	sw $2,4($16)
  407e34:	04 00 02 10 
  407e38:	30 00 00 00 	sb $20,0($3)
  407e3c:	00 00 14 03 
  407e40:	06 00 00 00 	bne $23,$0,407e70 <flushbuf+0x708>
  407e44:	0a 00 00 17 
  407e48:	28 00 00 00 	lw $2,64($16)
  407e4c:	40 00 02 10 
  407e50:	28 00 00 00 	lw $3,16($16)
  407e54:	10 00 03 10 
  407e58:	42 00 00 00 	addu $2,$19,$2
  407e5c:	00 02 02 13 
  407e60:	34 00 00 00 	sw $2,64($16)
  407e64:	40 00 02 10 
  407e68:	34 00 00 00 	sw $3,8($16)
  407e6c:	08 00 03 10 
  407e70:	28 00 00 00 	lw $2,76($16)
  407e74:	4c 00 02 10 
  407e78:	4f 00 00 00 	andi $2,$2,1536
  407e7c:	00 06 02 02 
  407e80:	05 00 00 00 	beq $2,$0,407e98 <flushbuf+0x730>
  407e84:	04 00 00 02 
  407e88:	28 00 00 00 	lw $2,12($16)
  407e8c:	0c 00 02 10 
  407e90:	34 00 00 00 	sw $2,4($16)
  407e94:	04 00 02 10 
  407e98:	28 00 00 00 	lw $31,64($29)
  407e9c:	40 00 1f 1d 
  407ea0:	28 00 00 00 	lw $23,60($29)
  407ea4:	3c 00 17 1d 
  407ea8:	28 00 00 00 	lw $22,56($29)
  407eac:	38 00 16 1d 
  407eb0:	28 00 00 00 	lw $21,52($29)
  407eb4:	34 00 15 1d 
  407eb8:	28 00 00 00 	lw $20,48($29)
  407ebc:	30 00 14 1d 
  407ec0:	28 00 00 00 	lw $19,44($29)
  407ec4:	2c 00 13 1d 
  407ec8:	28 00 00 00 	lw $18,40($29)
  407ecc:	28 00 12 1d 
  407ed0:	28 00 00 00 	lw $17,36($29)
  407ed4:	24 00 11 1d 
  407ed8:	28 00 00 00 	lw $16,32($29)
  407edc:	20 00 10 1d 
  407ee0:	43 00 00 00 	addiu $29,$29,72
  407ee4:	48 00 1d 1d 
  407ee8:	03 00 00 00 	jr $31
  407eec:	00 00 00 1f 

00407ef0 <fillbuf>:
  407ef0:	43 00 00 00 	addiu $29,$29,-64
  407ef4:	c0 ff 1d 1d 
  407ef8:	34 00 00 00 	sw $16,32($29)
  407efc:	20 00 10 1d 
  407f00:	42 00 00 00 	addu $16,$0,$4
  407f04:	00 10 04 00 
  407f08:	34 00 00 00 	sw $31,60($29)
  407f0c:	3c 00 1f 1d 
  407f10:	34 00 00 00 	sw $22,56($29)
  407f14:	38 00 16 1d 
  407f18:	34 00 00 00 	sw $21,52($29)
  407f1c:	34 00 15 1d 
  407f20:	34 00 00 00 	sw $20,48($29)
  407f24:	30 00 14 1d 
  407f28:	34 00 00 00 	sw $19,44($29)
  407f2c:	2c 00 13 1d 
  407f30:	34 00 00 00 	sw $18,40($29)
  407f34:	28 00 12 1d 
  407f38:	34 00 00 00 	sw $17,36($29)
  407f3c:	24 00 11 1d 
  407f40:	28 00 00 00 	lw $2,32($16)
  407f44:	20 00 02 10 
  407f48:	42 00 00 00 	addu $21,$0,$0
  407f4c:	00 15 00 00 
  407f50:	42 00 00 00 	addu $20,$0,$0
  407f54:	00 14 00 00 
  407f58:	06 00 00 00 	bne $2,$0,407f80 <fillbuf+0x90>
  407f5c:	08 00 00 02 
  407f60:	28 00 00 00 	lw $2,76($16)
  407f64:	4c 00 02 10 
  407f68:	51 00 00 00 	ori $2,$2,512
  407f6c:	00 02 02 02 
  407f70:	34 00 00 00 	sw $2,76($16)
  407f74:	4c 00 02 10 
  407f78:	01 00 00 00 	j 4082a8 <fillbuf+0x3b8>
  407f7c:	aa 20 10 00 
  407f80:	28 00 00 00 	lw $5,16($16)
  407f84:	10 00 05 10 
  407f88:	06 00 00 00 	bne $5,$0,407fa8 <fillbuf+0xb8>
  407f8c:	06 00 00 05 
  407f90:	43 00 00 00 	addiu $18,$29,16
  407f94:	10 00 12 1d 
  407f98:	43 00 00 00 	addiu $17,$0,1
  407f9c:	01 00 11 00 
  407fa0:	01 00 00 00 	j 407fb8 <fillbuf+0xc8>
  407fa4:	ee 1f 10 00 
  407fa8:	42 00 00 00 	addu $18,$0,$5
  407fac:	00 12 05 00 
  407fb0:	28 00 00 00 	lw $17,20($16)
  407fb4:	14 00 11 10 
  407fb8:	42 00 00 00 	addu $4,$0,$16
  407fbc:	00 04 10 00 
  407fc0:	28 00 00 00 	lw $2,76($16)
  407fc4:	4c 00 02 10 
  407fc8:	28 00 00 00 	lw $22,-32416($28)
  407fcc:	60 81 16 1c 
  407fd0:	43 00 00 00 	addiu $3,$0,-513
  407fd4:	ff fd 03 00 
  407fd8:	4e 00 00 00 	and $2,$2,$3
  407fdc:	00 02 03 02 
  407fe0:	34 00 00 00 	sw $2,76($16)
  407fe4:	4c 00 02 10 
  407fe8:	02 00 00 00 	jal 407448 <__stdio_check_offset>
  407fec:	12 1d 10 00 
  407ff0:	06 00 00 00 	bne $2,$0,408158 <fillbuf+0x268>
  407ff4:	58 00 00 02 
  407ff8:	28 00 00 00 	lw $3,64($16)
  407ffc:	40 00 03 10 
  408000:	28 00 00 00 	lw $2,60($16)
  408004:	3c 00 02 10 
  408008:	05 00 00 00 	beq $3,$2,408158 <fillbuf+0x268>
  40800c:	52 00 02 03 
  408010:	28 00 00 00 	lw $2,20($16)
  408014:	14 00 02 10 
  408018:	05 00 00 00 	beq $2,$0,408050 <fillbuf+0x160>
  40801c:	0c 00 00 02 
  408020:	49 00 00 00 	divu $0,$3,$2
  408024:	00 00 02 03 
  408028:	06 00 00 00 	bne $2,$0,408038 <fillbuf+0x148>
  40802c:	02 00 00 02 
  408030:	a1 00 00 00 	break 
  408034:	07 00 00 00 
  408038:	4a 00 00 00 	mfhi $21
  40803c:	00 15 00 00 
  408040:	45 00 00 00 	subu $2,$3,$21
  408044:	00 02 15 03 
  408048:	34 00 00 00 	sw $2,64($16)
  40804c:	40 00 02 10 
  408050:	28 00 00 00 	lw $19,-32416($28)
  408054:	60 81 13 1c 
  408058:	42 00 00 00 	addu $4,$0,$16
  40805c:	00 04 10 00 
  408060:	02 00 00 00 	jal 407448 <__stdio_check_offset>
  408064:	12 1d 10 00 
  408068:	43 00 00 00 	addiu $3,$0,-1
  40806c:	ff ff 03 00 
  408070:	06 00 00 00 	bne $2,$3,4080a0 <fillbuf+0x1b0>
  408074:	0a 00 03 02 
  408078:	28 00 00 00 	lw $3,-32416($28)
  40807c:	60 81 03 1c 
  408080:	43 00 00 00 	addiu $2,$0,29
  408084:	1d 00 02 00 
  408088:	06 00 00 00 	bne $3,$2,408140 <fillbuf+0x250>
  40808c:	2c 00 02 03 
  408090:	34 00 00 00 	sw $19,-32416($28)
  408094:	60 81 13 1c 
  408098:	01 00 00 00 	j 408158 <fillbuf+0x268>
  40809c:	56 20 10 00 
  4080a0:	28 00 00 00 	lw $3,64($16)
  4080a4:	40 00 03 10 
  4080a8:	28 00 00 00 	lw $2,60($16)
  4080ac:	3c 00 02 10 
  4080b0:	05 00 00 00 	beq $3,$2,408158 <fillbuf+0x268>
  4080b4:	28 00 02 03 
  4080b8:	28 00 00 00 	lw $2,40($16)
  4080bc:	28 00 02 10 
  4080c0:	06 00 00 00 	bne $2,$0,4080e8 <fillbuf+0x1f8>
  4080c4:	08 00 00 02 
  4080c8:	28 00 00 00 	lw $2,76($16)
  4080cc:	4c 00 02 10 
  4080d0:	43 00 00 00 	addiu $3,$0,29
  4080d4:	1d 00 03 00 
  4080d8:	34 00 00 00 	sw $3,-32416($28)
  4080dc:	60 81 03 1c 
  4080e0:	01 00 00 00 	j 408148 <fillbuf+0x258>
  4080e4:	52 20 10 00 
  4080e8:	28 00 00 00 	lw $4,24($16)
  4080ec:	18 00 04 10 
  4080f0:	28 00 00 00 	lw $2,40($16)
  4080f4:	28 00 02 10 
  4080f8:	43 00 00 00 	addiu $5,$29,24
  4080fc:	18 00 05 1d 
  408100:	42 00 00 00 	addu $6,$0,$0
  408104:	00 06 00 00 
  408108:	34 00 00 00 	sw $3,24($29)
  40810c:	18 00 03 1d 
  408110:	04 00 00 00 	jalr $31,$2
  408114:	00 1f 00 02 
  408118:	09 00 00 00 	bltz $2,408140 <fillbuf+0x250>
  40811c:	08 00 00 02 
  408120:	28 00 00 00 	lw $2,24($29)
  408124:	18 00 02 1d 
  408128:	28 00 00 00 	lw $3,64($16)
  40812c:	40 00 03 10 
  408130:	34 00 00 00 	sw $2,60($16)
  408134:	3c 00 02 10 
  408138:	05 00 00 00 	beq $2,$3,408158 <fillbuf+0x268>
  40813c:	06 00 03 02 
  408140:	28 00 00 00 	lw $2,76($16)
  408144:	4c 00 02 10 
  408148:	51 00 00 00 	ori $2,$2,1024
  40814c:	00 04 02 02 
  408150:	34 00 00 00 	sw $2,76($16)
  408154:	4c 00 02 10 
  408158:	28 00 00 00 	lw $2,76($16)
  40815c:	4c 00 02 10 
  408160:	34 00 00 00 	sw $22,-32416($28)
  408164:	60 81 16 1c 
  408168:	4f 00 00 00 	andi $2,$2,1536
  40816c:	00 06 02 02 
  408170:	06 00 00 00 	bne $2,$0,408250 <fillbuf+0x360>
  408174:	36 00 00 02 
  408178:	5d 00 00 00 	sltu $2,$21,$20
  40817c:	00 02 14 15 
  408180:	06 00 00 00 	bne $2,$0,408250 <fillbuf+0x360>
  408184:	32 00 00 02 
  408188:	28 00 00 00 	lw $4,24($16)
  40818c:	18 00 04 10 
  408190:	28 00 00 00 	lw $2,32($16)
  408194:	20 00 02 10 
  408198:	42 00 00 00 	addu $5,$0,$18
  40819c:	00 05 12 00 
  4081a0:	42 00 00 00 	addu $6,$0,$17
  4081a4:	00 06 11 00 
  4081a8:	04 00 00 00 	jalr $31,$2
  4081ac:	00 1f 00 02 
  4081b0:	42 00 00 00 	addu $3,$0,$2
  4081b4:	00 03 02 00 
  4081b8:	06 00 00 00 	bne $3,$0,4081e0 <fillbuf+0x2f0>
  4081bc:	08 00 00 03 
  4081c0:	28 00 00 00 	lw $2,76($16)
  4081c4:	4c 00 02 10 
  4081c8:	51 00 00 00 	ori $2,$2,512
  4081cc:	00 02 02 02 
  4081d0:	34 00 00 00 	sw $2,76($16)
  4081d4:	4c 00 02 10 
  4081d8:	01 00 00 00 	j 408238 <fillbuf+0x348>
  4081dc:	8e 20 10 00 
  4081e0:	0a 00 00 00 	bgez $3,408208 <fillbuf+0x318>
  4081e4:	08 00 00 03 
  4081e8:	28 00 00 00 	lw $2,76($16)
  4081ec:	4c 00 02 10 
  4081f0:	51 00 00 00 	ori $2,$2,1024
  4081f4:	00 04 02 02 
  4081f8:	34 00 00 00 	sw $2,76($16)
  4081fc:	4c 00 02 10 
  408200:	01 00 00 00 	j 408238 <fillbuf+0x348>
  408204:	8e 20 10 00 
  408208:	42 00 00 00 	addu $18,$18,$3
  40820c:	00 12 03 12 
  408210:	28 00 00 00 	lw $2,60($16)
  408214:	3c 00 02 10 
  408218:	42 00 00 00 	addu $20,$20,$3
  40821c:	00 14 03 14 
  408220:	45 00 00 00 	subu $17,$17,$3
  408224:	00 11 03 11 
  408228:	42 00 00 00 	addu $2,$3,$2
  40822c:	00 02 02 03 
  408230:	34 00 00 00 	sw $2,60($16)
  408234:	3c 00 02 10 
  408238:	28 00 00 00 	lw $2,76($16)
  40823c:	4c 00 02 10 
  408240:	4f 00 00 00 	andi $2,$2,1536
  408244:	00 06 02 02 
  408248:	05 00 00 00 	beq $2,$0,408178 <fillbuf+0x288>
  40824c:	ca ff 00 02 
  408250:	28 00 00 00 	lw $2,16($16)
  408254:	10 00 02 10 
  408258:	06 00 00 00 	bne $2,$0,408298 <fillbuf+0x3a8>
  40825c:	0e 00 00 02 
  408260:	28 00 00 00 	lw $2,76($16)
  408264:	4c 00 02 10 
  408268:	43 00 00 00 	addiu $3,$0,-1
  40826c:	ff ff 03 00 
  408270:	4f 00 00 00 	andi $2,$2,1536
  408274:	00 06 02 02 
  408278:	06 00 00 00 	bne $2,$0,408288 <fillbuf+0x398>
  40827c:	02 00 00 02 
  408280:	22 00 00 00 	lbu $3,16($29)
  408284:	10 00 03 1d 
  408288:	42 00 00 00 	addu $2,$0,$3
  40828c:	00 02 03 00 
  408290:	01 00 00 00 	j 408330 <fillbuf+0x440>
  408294:	cc 20 10 00 
  408298:	42 00 00 00 	addu $2,$21,$2
  40829c:	00 02 02 15 
  4082a0:	34 00 00 00 	sw $2,4($16)
  4082a4:	04 00 02 10 
  4082a8:	28 00 00 00 	lw $2,76($16)
  4082ac:	4c 00 02 10 
  4082b0:	4f 00 00 00 	andi $2,$2,1536
  4082b4:	00 06 02 02 
  4082b8:	06 00 00 00 	bne $2,$0,408310 <fillbuf+0x420>
  4082bc:	14 00 00 02 
  4082c0:	28 00 00 00 	lw $2,16($16)
  4082c4:	10 00 02 10 
  4082c8:	28 00 00 00 	lw $3,16($16)
  4082cc:	10 00 03 10 
  4082d0:	28 00 00 00 	lw $4,4($16)
  4082d4:	04 00 04 10 
  4082d8:	42 00 00 00 	addu $2,$20,$2
  4082dc:	00 02 02 14 
  4082e0:	34 00 00 00 	sw $2,8($16)
  4082e4:	08 00 02 10 
  4082e8:	43 00 00 00 	addiu $2,$4,1
  4082ec:	01 00 02 04 
  4082f0:	34 00 00 00 	sw $3,12($16)
  4082f4:	0c 00 03 10 
  4082f8:	34 00 00 00 	sw $2,4($16)
  4082fc:	04 00 02 10 
  408300:	22 00 00 00 	lbu $2,0($4)
  408304:	00 00 02 04 
  408308:	01 00 00 00 	j 408330 <fillbuf+0x440>
  40830c:	cc 20 10 00 
  408310:	28 00 00 00 	lw $3,16($16)
  408314:	10 00 03 10 
  408318:	43 00 00 00 	addiu $2,$0,-1
  40831c:	ff ff 02 00 
  408320:	34 00 00 00 	sw $3,8($16)
  408324:	08 00 03 10 
  408328:	34 00 00 00 	sw $3,12($16)
  40832c:	0c 00 03 10 
  408330:	28 00 00 00 	lw $31,60($29)
  408334:	3c 00 1f 1d 
  408338:	28 00 00 00 	lw $22,56($29)
  40833c:	38 00 16 1d 
  408340:	28 00 00 00 	lw $21,52($29)
  408344:	34 00 15 1d 
  408348:	28 00 00 00 	lw $20,48($29)
  40834c:	30 00 14 1d 
  408350:	28 00 00 00 	lw $19,44($29)
  408354:	2c 00 13 1d 
  408358:	28 00 00 00 	lw $18,40($29)
  40835c:	28 00 12 1d 
  408360:	28 00 00 00 	lw $17,36($29)
  408364:	24 00 11 1d 
  408368:	28 00 00 00 	lw $16,32($29)
  40836c:	20 00 10 1d 
  408370:	43 00 00 00 	addiu $29,$29,64
  408374:	40 00 1d 1d 
  408378:	03 00 00 00 	jr $31
  40837c:	00 00 00 1f 

00408380 <__flshfp>:
  408380:	43 00 00 00 	addiu $29,$29,-40
  408384:	d8 ff 1d 1d 
  408388:	34 00 00 00 	sw $16,16($29)
  40838c:	10 00 10 1d 
  408390:	42 00 00 00 	addu $16,$0,$4
  408394:	00 10 04 00 
  408398:	34 00 00 00 	sw $18,24($29)
  40839c:	18 00 12 1d 
  4083a0:	42 00 00 00 	addu $18,$0,$5
  4083a4:	00 12 05 00 
  4083a8:	54 00 00 00 	nor $2,$0,$18
  4083ac:	00 02 12 00 
  4083b0:	34 00 00 00 	sw $19,28($29)
  4083b4:	1c 00 13 1d 
  4083b8:	5e 00 00 00 	sltiu $19,$2,1
  4083bc:	01 00 13 02 
  4083c0:	34 00 00 00 	sw $31,32($29)
  4083c4:	20 00 1f 1d 
  4083c8:	34 00 00 00 	sw $17,20($29)
  4083cc:	14 00 11 1d 
  4083d0:	05 00 00 00 	beq $16,$0,408440 <__flshfp+0xc0>
  4083d4:	1a 00 00 10 
  4083d8:	28 00 00 00 	lw $3,0($16)
  4083dc:	00 00 03 10 
  4083e0:	a2 00 00 00 	lui $2,65261
  4083e4:	ed fe 02 00 
  4083e8:	51 00 00 00 	ori $2,$2,47806
  4083ec:	be ba 02 02 
  4083f0:	06 00 00 00 	bne $3,$2,408408 <__flshfp+0x88>
  4083f4:	04 00 02 03 
  4083f8:	28 00 00 00 	lw $2,4($16)
  4083fc:	04 00 02 10 
  408400:	28 00 00 00 	lw $16,0($2)
  408404:	00 00 10 02 
  408408:	28 00 00 00 	lw $3,0($16)
  40840c:	00 00 03 10 
  408410:	a2 00 00 00 	lui $2,65242
  408414:	da fe 02 00 
  408418:	51 00 00 00 	ori $2,$2,48875
  40841c:	eb be 02 02 
  408420:	06 00 00 00 	bne $3,$2,408440 <__flshfp+0xc0>
  408424:	06 00 02 03 
  408428:	28 00 00 00 	lw $2,28($16)
  40842c:	1c 00 02 10 
  408430:	4f 00 00 00 	andi $2,$2,2
  408434:	02 00 02 02 
  408438:	06 00 00 00 	bne $2,$0,408460 <__flshfp+0xe0>
  40843c:	08 00 00 02 
  408440:	43 00 00 00 	addiu $2,$0,22
  408444:	16 00 02 00 
  408448:	34 00 00 00 	sw $2,-32416($28)
  40844c:	60 81 02 1c 
  408450:	43 00 00 00 	addiu $2,$0,-1
  408454:	ff ff 02 00 
  408458:	01 00 00 00 	j 408880 <__flshfp+0x500>
  40845c:	20 22 10 00 
  408460:	28 00 00 00 	lw $3,76($16)
  408464:	4c 00 03 10 
  408468:	4f 00 00 00 	andi $2,$3,1024
  40846c:	00 04 02 03 
  408470:	06 00 00 00 	bne $2,$0,408450 <__flshfp+0xd0>
  408474:	f6 ff 00 02 
  408478:	4f 00 00 00 	andi $2,$3,256
  40847c:	00 01 02 03 
  408480:	05 00 00 00 	beq $2,$0,4084b8 <__flshfp+0x138>
  408484:	0c 00 00 02 
  408488:	28 00 00 00 	lw $2,72($16)
  40848c:	48 00 02 10 
  408490:	28 00 00 00 	lw $3,76($16)
  408494:	4c 00 03 10 
  408498:	34 00 00 00 	sw $2,4($16)
  40849c:	04 00 02 10 
  4084a0:	43 00 00 00 	addiu $2,$0,-257
  4084a4:	ff fe 02 00 
  4084a8:	4e 00 00 00 	and $3,$3,$2
  4084ac:	00 03 02 03 
  4084b0:	34 00 00 00 	sw $3,76($16)
  4084b4:	4c 00 03 10 
  4084b8:	28 00 00 00 	lw $2,76($16)
  4084bc:	4c 00 02 10 
  4084c0:	4f 00 00 00 	andi $2,$2,16384
  4084c4:	00 40 02 02 
  4084c8:	06 00 00 00 	bne $2,$0,408580 <__flshfp+0x200>
  4084cc:	2c 00 00 02 
  4084d0:	28 00 00 00 	lw $2,-32624($28)
  4084d4:	90 80 02 1c 
  4084d8:	a2 00 00 00 	lui $3,4096
  4084dc:	00 10 03 00 
  4084e0:	28 00 00 00 	lw $3,7956($3)
  4084e4:	14 1f 03 03 
  4084e8:	34 00 00 00 	sw $2,52($16)
  4084ec:	34 00 02 10 
  4084f0:	34 00 00 00 	sw $3,56($16)
  4084f4:	38 00 03 10 
  4084f8:	a2 00 00 00 	lui $5,4096
  4084fc:	00 10 05 00 
  408500:	43 00 00 00 	addiu $5,$5,1040
  408504:	10 04 05 05 
  408508:	28 00 00 00 	lw $2,0($5)
  40850c:	00 00 02 05 
  408510:	28 00 00 00 	lw $3,4($5)
  408514:	04 00 03 05 
  408518:	28 00 00 00 	lw $4,8($5)
  40851c:	08 00 04 05 
  408520:	34 00 00 00 	sw $2,32($16)
  408524:	20 00 02 10 
  408528:	34 00 00 00 	sw $3,36($16)
  40852c:	24 00 03 10 
  408530:	34 00 00 00 	sw $4,40($16)
  408534:	28 00 04 10 
  408538:	28 00 00 00 	lw $2,12($5)
  40853c:	0c 00 02 05 
  408540:	28 00 00 00 	lw $3,16($5)
  408544:	10 00 03 05 
  408548:	34 00 00 00 	sw $2,44($16)
  40854c:	2c 00 02 10 
  408550:	34 00 00 00 	sw $3,48($16)
  408554:	30 00 03 10 
  408558:	42 00 00 00 	addu $4,$0,$16
  40855c:	00 04 10 00 
  408560:	02 00 00 00 	jal 40fcc0 <__stdio_init_stream>
  408564:	30 3f 10 00 
  408568:	28 00 00 00 	lw $2,76($16)
  40856c:	4c 00 02 10 
  408570:	51 00 00 00 	ori $2,$2,16384
  408574:	00 40 02 02 
  408578:	34 00 00 00 	sw $2,76($16)
  40857c:	4c 00 02 10 
  408580:	28 00 00 00 	lw $2,16($16)
  408584:	10 00 02 10 
  408588:	06 00 00 00 	bne $2,$0,408668 <__flshfp+0x2e8>
  40858c:	36 00 00 02 
  408590:	28 00 00 00 	lw $2,76($16)
  408594:	4c 00 02 10 
  408598:	4f 00 00 00 	andi $2,$2,2048
  40859c:	00 08 02 02 
  4085a0:	06 00 00 00 	bne $2,$0,408668 <__flshfp+0x2e8>
  4085a4:	30 00 00 02 
  4085a8:	28 00 00 00 	lw $2,20($16)
  4085ac:	14 00 02 10 
  4085b0:	06 00 00 00 	bne $2,$0,4085c8 <__flshfp+0x248>
  4085b4:	04 00 00 02 
  4085b8:	43 00 00 00 	addiu $2,$0,1024
  4085bc:	00 04 02 00 
  4085c0:	34 00 00 00 	sw $2,20($16)
  4085c4:	14 00 02 10 
  4085c8:	28 00 00 00 	lw $4,20($16)
  4085cc:	14 00 04 10 
  4085d0:	28 00 00 00 	lw $17,-32416($28)
  4085d4:	60 81 11 1c 
  4085d8:	5e 00 00 00 	sltiu $2,$4,128
  4085dc:	80 00 02 04 
  4085e0:	06 00 00 00 	bne $2,$0,408630 <__flshfp+0x2b0>
  4085e4:	12 00 00 02 
  4085e8:	02 00 00 00 	jal 4068e8 <malloc>
  4085ec:	3a 1a 10 00 
  4085f0:	34 00 00 00 	sw $2,16($16)
  4085f4:	10 00 02 10 
  4085f8:	06 00 00 00 	bne $2,$0,408630 <__flshfp+0x2b0>
  4085fc:	0c 00 00 02 
  408600:	28 00 00 00 	lw $2,20($16)
  408604:	14 00 02 10 
  408608:	57 00 00 00 	srl $2,$2,0x1
  40860c:	01 02 02 00 
  408610:	42 00 00 00 	addu $4,$0,$2
  408614:	00 04 02 00 
  408618:	5e 00 00 00 	sltiu $2,$4,128
  40861c:	80 00 02 04 
  408620:	34 00 00 00 	sw $4,20($16)
  408624:	14 00 04 10 
  408628:	05 00 00 00 	beq $2,$0,4085e8 <__flshfp+0x268>
  40862c:	ee ff 00 02 
  408630:	28 00 00 00 	lw $2,16($16)
  408634:	10 00 02 10 
  408638:	34 00 00 00 	sw $17,-32416($28)
  40863c:	60 81 11 1c 
  408640:	06 00 00 00 	bne $2,$0,408668 <__flshfp+0x2e8>
  408644:	08 00 00 02 
  408648:	28 00 00 00 	lw $2,76($16)
  40864c:	4c 00 02 10 
  408650:	34 00 00 00 	sw $0,20($16)
  408654:	14 00 00 10 
  408658:	51 00 00 00 	ori $2,$2,2048
  40865c:	00 08 02 02 
  408660:	34 00 00 00 	sw $2,76($16)
  408664:	4c 00 02 10 
  408668:	28 00 00 00 	lw $2,4($16)
  40866c:	04 00 02 10 
  408670:	06 00 00 00 	bne $2,$0,4086a0 <__flshfp+0x320>
  408674:	0a 00 00 02 
  408678:	28 00 00 00 	lw $2,16($16)
  40867c:	10 00 02 10 
  408680:	28 00 00 00 	lw $3,16($16)
  408684:	10 00 03 10 
  408688:	34 00 00 00 	sw $2,4($16)
  40868c:	04 00 02 10 
  408690:	34 00 00 00 	sw $3,8($16)
  408694:	08 00 03 10 
  408698:	34 00 00 00 	sw $3,12($16)
  40869c:	0c 00 03 10 
  4086a0:	28 00 00 00 	lw $2,56($16)
  4086a4:	38 00 02 10 
  4086a8:	06 00 00 00 	bne $2,$0,4086d8 <__flshfp+0x358>
  4086ac:	0a 00 00 02 
  4086b0:	28 00 00 00 	lw $3,76($16)
  4086b4:	4c 00 03 10 
  4086b8:	43 00 00 00 	addiu $2,$0,-1
  4086bc:	ff ff 02 00 
  4086c0:	51 00 00 00 	ori $3,$3,1024
  4086c4:	00 04 03 03 
  4086c8:	34 00 00 00 	sw $3,76($16)
  4086cc:	4c 00 03 10 
  4086d0:	01 00 00 00 	j 408880 <__flshfp+0x500>
  4086d4:	20 22 10 00 
  4086d8:	06 00 00 00 	bne $19,$0,4087a0 <__flshfp+0x420>
  4086dc:	30 00 00 13 
  4086e0:	28 00 00 00 	lw $2,76($16)
  4086e4:	4c 00 02 10 
  4086e8:	28 00 00 00 	lw $4,4($16)
  4086ec:	04 00 04 10 
  4086f0:	4f 00 00 00 	andi $2,$2,8192
  4086f4:	00 20 02 02 
  4086f8:	05 00 00 00 	beq $2,$0,408730 <__flshfp+0x3b0>
  4086fc:	0c 00 00 02 
  408700:	28 00 00 00 	lw $2,16($16)
  408704:	10 00 02 10 
  408708:	28 00 00 00 	lw $3,20($16)
  40870c:	14 00 03 10 
  408710:	42 00 00 00 	addu $2,$2,$3
  408714:	00 02 03 02 
  408718:	5d 00 00 00 	sltu $2,$4,$2
  40871c:	00 02 02 04 
  408720:	06 00 00 00 	bne $2,$0,408748 <__flshfp+0x3c8>
  408724:	08 00 00 02 
  408728:	01 00 00 00 	j 4087a0 <__flshfp+0x420>
  40872c:	e8 21 10 00 
  408730:	28 00 00 00 	lw $2,12($16)
  408734:	0c 00 02 10 
  408738:	5d 00 00 00 	sltu $2,$4,$2
  40873c:	00 02 02 04 
  408740:	05 00 00 00 	beq $2,$0,4087a0 <__flshfp+0x420>
  408744:	16 00 00 02 
  408748:	28 00 00 00 	lw $3,4($16)
  40874c:	04 00 03 10 
  408750:	43 00 00 00 	addiu $2,$3,1
  408754:	01 00 02 03 
  408758:	34 00 00 00 	sw $2,4($16)
  40875c:	04 00 02 10 
  408760:	30 00 00 00 	sb $18,0($3)
  408764:	00 00 12 03 
  408768:	28 00 00 00 	lw $2,76($16)
  40876c:	4c 00 02 10 
  408770:	4f 00 00 00 	andi $2,$2,4096
  408774:	00 10 02 02 
  408778:	05 00 00 00 	beq $2,$0,408868 <__flshfp+0x4e8>
  40877c:	3a 00 00 02 
  408780:	4f 00 00 00 	andi $3,$18,255
  408784:	ff 00 03 12 
  408788:	43 00 00 00 	addiu $2,$0,10
  40878c:	0a 00 02 00 
  408790:	06 00 00 00 	bne $3,$2,408868 <__flshfp+0x4e8>
  408794:	34 00 02 03 
  408798:	43 00 00 00 	addiu $19,$0,1
  40879c:	01 00 13 00 
  4087a0:	28 00 00 00 	lw $2,76($16)
  4087a4:	4c 00 02 10 
  4087a8:	4f 00 00 00 	andi $2,$2,8192
  4087ac:	00 20 02 02 
  4087b0:	05 00 00 00 	beq $2,$0,4087d8 <__flshfp+0x458>
  4087b4:	08 00 00 02 
  4087b8:	28 00 00 00 	lw $2,16($16)
  4087bc:	10 00 02 10 
  4087c0:	28 00 00 00 	lw $3,20($16)
  4087c4:	14 00 03 10 
  4087c8:	42 00 00 00 	addu $2,$2,$3
  4087cc:	00 02 03 02 
  4087d0:	34 00 00 00 	sw $2,12($16)
  4087d4:	0c 00 02 10 
  4087d8:	43 00 00 00 	addiu $5,$0,-1
  4087dc:	ff ff 05 00 
  4087e0:	06 00 00 00 	bne $19,$0,4087f0 <__flshfp+0x470>
  4087e4:	02 00 00 13 
  4087e8:	4f 00 00 00 	andi $5,$18,255
  4087ec:	ff 00 05 12 
  4087f0:	28 00 00 00 	lw $2,56($16)
  4087f4:	38 00 02 10 
  4087f8:	42 00 00 00 	addu $4,$0,$16
  4087fc:	00 04 10 00 
  408800:	04 00 00 00 	jalr $31,$2
  408804:	00 1f 00 02 
  408808:	28 00 00 00 	lw $2,76($16)
  40880c:	4c 00 02 10 
  408810:	4f 00 00 00 	andi $2,$2,4096
  408814:	00 10 02 02 
  408818:	05 00 00 00 	beq $2,$0,408848 <__flshfp+0x4c8>
  40881c:	0a 00 00 02 
  408820:	28 00 00 00 	lw $2,76($16)
  408824:	4c 00 02 10 
  408828:	28 00 00 00 	lw $3,16($16)
  40882c:	10 00 03 10 
  408830:	51 00 00 00 	ori $2,$2,8192
  408834:	00 20 02 02 
  408838:	34 00 00 00 	sw $3,12($16)
  40883c:	0c 00 03 10 
  408840:	34 00 00 00 	sw $2,76($16)
  408844:	4c 00 02 10 
  408848:	28 00 00 00 	lw $2,76($16)
  40884c:	4c 00 02 10 
  408850:	4f 00 00 00 	andi $2,$2,1024
  408854:	00 04 02 02 
  408858:	06 00 00 00 	bne $2,$0,408450 <__flshfp+0xd0>
  40885c:	fc fe 00 02 
  408860:	06 00 00 00 	bne $19,$0,408878 <__flshfp+0x4f8>
  408864:	04 00 00 13 
  408868:	4f 00 00 00 	andi $2,$18,255
  40886c:	ff 00 02 12 
  408870:	01 00 00 00 	j 408880 <__flshfp+0x500>
  408874:	20 22 10 00 
  408878:	42 00 00 00 	addu $2,$0,$0
  40887c:	00 02 00 00 
  408880:	28 00 00 00 	lw $31,32($29)
  408884:	20 00 1f 1d 
  408888:	28 00 00 00 	lw $19,28($29)
  40888c:	1c 00 13 1d 
  408890:	28 00 00 00 	lw $18,24($29)
  408894:	18 00 12 1d 
  408898:	28 00 00 00 	lw $17,20($29)
  40889c:	14 00 11 1d 
  4088a0:	28 00 00 00 	lw $16,16($29)
  4088a4:	10 00 10 1d 
  4088a8:	43 00 00 00 	addiu $29,$29,40
  4088ac:	28 00 1d 1d 
  4088b0:	03 00 00 00 	jr $31
  4088b4:	00 00 00 1f 

004088b8 <__fillbf>:
  4088b8:	43 00 00 00 	addiu $29,$29,-40
  4088bc:	d8 ff 1d 1d 
  4088c0:	34 00 00 00 	sw $17,20($29)
  4088c4:	14 00 11 1d 
  4088c8:	42 00 00 00 	addu $17,$0,$4
  4088cc:	00 11 04 00 
  4088d0:	34 00 00 00 	sw $31,32($29)
  4088d4:	20 00 1f 1d 
  4088d8:	34 00 00 00 	sw $19,28($29)
  4088dc:	1c 00 13 1d 
  4088e0:	34 00 00 00 	sw $18,24($29)
  4088e4:	18 00 12 1d 
  4088e8:	34 00 00 00 	sw $16,16($29)
  4088ec:	10 00 10 1d 
  4088f0:	05 00 00 00 	beq $17,$0,408960 <__fillbf+0xa8>
  4088f4:	1a 00 00 11 
  4088f8:	28 00 00 00 	lw $3,0($17)
  4088fc:	00 00 03 11 
  408900:	a2 00 00 00 	lui $2,65261
  408904:	ed fe 02 00 
  408908:	51 00 00 00 	ori $2,$2,47806
  40890c:	be ba 02 02 
  408910:	06 00 00 00 	bne $3,$2,408928 <__fillbf+0x70>
  408914:	04 00 02 03 
  408918:	28 00 00 00 	lw $2,4($17)
  40891c:	04 00 02 11 
  408920:	28 00 00 00 	lw $17,0($2)
  408924:	00 00 11 02 
  408928:	28 00 00 00 	lw $3,0($17)
  40892c:	00 00 03 11 
  408930:	a2 00 00 00 	lui $2,65242
  408934:	da fe 02 00 
  408938:	51 00 00 00 	ori $2,$2,48875
  40893c:	eb be 02 02 
  408940:	06 00 00 00 	bne $3,$2,408960 <__fillbf+0xa8>
  408944:	06 00 02 03 
  408948:	28 00 00 00 	lw $2,28($17)
  40894c:	1c 00 02 11 
  408950:	4f 00 00 00 	andi $2,$2,1
  408954:	01 00 02 02 
  408958:	06 00 00 00 	bne $2,$0,408980 <__fillbf+0xc8>
  40895c:	08 00 00 02 
  408960:	43 00 00 00 	addiu $2,$0,22
  408964:	16 00 02 00 
  408968:	34 00 00 00 	sw $2,-32416($28)
  40896c:	60 81 02 1c 
  408970:	43 00 00 00 	addiu $2,$0,-1
  408974:	ff ff 02 00 
  408978:	01 00 00 00 	j 408e10 <__fillbf+0x558>
  40897c:	84 23 10 00 
  408980:	28 00 00 00 	lw $3,76($17)
  408984:	4c 00 03 11 
  408988:	4f 00 00 00 	andi $2,$3,256
  40898c:	00 01 02 03 
  408990:	05 00 00 00 	beq $2,$0,4089d8 <__fillbf+0x120>
  408994:	10 00 00 02 
  408998:	28 00 00 00 	lw $2,76($17)
  40899c:	4c 00 02 11 
  4089a0:	43 00 00 00 	addiu $3,$0,-257
  4089a4:	ff fe 03 00 
  4089a8:	4e 00 00 00 	and $2,$2,$3
  4089ac:	00 02 03 02 
  4089b0:	28 00 00 00 	lw $3,72($17)
  4089b4:	48 00 03 11 
  4089b8:	34 00 00 00 	sw $2,76($17)
  4089bc:	4c 00 02 11 
  4089c0:	22 00 00 00 	lbu $2,76($17)
  4089c4:	4c 00 02 11 
  4089c8:	34 00 00 00 	sw $3,4($17)
  4089cc:	04 00 03 11 
  4089d0:	01 00 00 00 	j 408e10 <__fillbf+0x558>
  4089d4:	84 23 10 00 
  4089d8:	4f 00 00 00 	andi $2,$3,16384
  4089dc:	00 40 02 03 
  4089e0:	06 00 00 00 	bne $2,$0,408a98 <__fillbf+0x1e0>
  4089e4:	2c 00 00 02 
  4089e8:	28 00 00 00 	lw $2,-32624($28)
  4089ec:	90 80 02 1c 
  4089f0:	a2 00 00 00 	lui $3,4096
  4089f4:	00 10 03 00 
  4089f8:	28 00 00 00 	lw $3,7956($3)
  4089fc:	14 1f 03 03 
  408a00:	34 00 00 00 	sw $2,52($17)
  408a04:	34 00 02 11 
  408a08:	34 00 00 00 	sw $3,56($17)
  408a0c:	38 00 03 11 
  408a10:	a2 00 00 00 	lui $5,4096
  408a14:	00 10 05 00 
  408a18:	43 00 00 00 	addiu $5,$5,1040
  408a1c:	10 04 05 05 
  408a20:	28 00 00 00 	lw $2,0($5)
  408a24:	00 00 02 05 
  408a28:	28 00 00 00 	lw $3,4($5)
  408a2c:	04 00 03 05 
  408a30:	28 00 00 00 	lw $4,8($5)
  408a34:	08 00 04 05 
  408a38:	34 00 00 00 	sw $2,32($17)
  408a3c:	20 00 02 11 
  408a40:	34 00 00 00 	sw $3,36($17)
  408a44:	24 00 03 11 
  408a48:	34 00 00 00 	sw $4,40($17)
  408a4c:	28 00 04 11 
  408a50:	28 00 00 00 	lw $2,12($5)
  408a54:	0c 00 02 05 
  408a58:	28 00 00 00 	lw $3,16($5)
  408a5c:	10 00 03 05 
  408a60:	34 00 00 00 	sw $2,44($17)
  408a64:	2c 00 02 11 
  408a68:	34 00 00 00 	sw $3,48($17)
  408a6c:	30 00 03 11 
  408a70:	42 00 00 00 	addu $4,$0,$17
  408a74:	00 04 11 00 
  408a78:	02 00 00 00 	jal 40fcc0 <__stdio_init_stream>
  408a7c:	30 3f 10 00 
  408a80:	28 00 00 00 	lw $2,76($17)
  408a84:	4c 00 02 11 
  408a88:	51 00 00 00 	ori $2,$2,16384
  408a8c:	00 40 02 02 
  408a90:	34 00 00 00 	sw $2,76($17)
  408a94:	4c 00 02 11 
  408a98:	28 00 00 00 	lw $2,16($17)
  408a9c:	10 00 02 11 
  408aa0:	06 00 00 00 	bne $2,$0,408b80 <__fillbf+0x2c8>
  408aa4:	36 00 00 02 
  408aa8:	28 00 00 00 	lw $2,76($17)
  408aac:	4c 00 02 11 
  408ab0:	4f 00 00 00 	andi $2,$2,2048
  408ab4:	00 08 02 02 
  408ab8:	06 00 00 00 	bne $2,$0,408b80 <__fillbf+0x2c8>
  408abc:	30 00 00 02 
  408ac0:	28 00 00 00 	lw $2,20($17)
  408ac4:	14 00 02 11 
  408ac8:	06 00 00 00 	bne $2,$0,408ae0 <__fillbf+0x228>
  408acc:	04 00 00 02 
  408ad0:	43 00 00 00 	addiu $2,$0,1024
  408ad4:	00 04 02 00 
  408ad8:	34 00 00 00 	sw $2,20($17)
  408adc:	14 00 02 11 
  408ae0:	28 00 00 00 	lw $4,20($17)
  408ae4:	14 00 04 11 
  408ae8:	28 00 00 00 	lw $16,-32416($28)
  408aec:	60 81 10 1c 
  408af0:	5e 00 00 00 	sltiu $2,$4,128
  408af4:	80 00 02 04 
  408af8:	06 00 00 00 	bne $2,$0,408b48 <__fillbf+0x290>
  408afc:	12 00 00 02 
  408b00:	02 00 00 00 	jal 4068e8 <malloc>
  408b04:	3a 1a 10 00 
  408b08:	34 00 00 00 	sw $2,16($17)
  408b0c:	10 00 02 11 
  408b10:	06 00 00 00 	bne $2,$0,408b48 <__fillbf+0x290>
  408b14:	0c 00 00 02 
  408b18:	28 00 00 00 	lw $2,20($17)
  408b1c:	14 00 02 11 
  408b20:	57 00 00 00 	srl $2,$2,0x1
  408b24:	01 02 02 00 
  408b28:	42 00 00 00 	addu $4,$0,$2
  408b2c:	00 04 02 00 
  408b30:	5e 00 00 00 	sltiu $2,$4,128
  408b34:	80 00 02 04 
  408b38:	34 00 00 00 	sw $4,20($17)
  408b3c:	14 00 04 11 
  408b40:	05 00 00 00 	beq $2,$0,408b00 <__fillbf+0x248>
  408b44:	ee ff 00 02 
  408b48:	28 00 00 00 	lw $2,16($17)
  408b4c:	10 00 02 11 
  408b50:	34 00 00 00 	sw $16,-32416($28)
  408b54:	60 81 10 1c 
  408b58:	06 00 00 00 	bne $2,$0,408b80 <__fillbf+0x2c8>
  408b5c:	08 00 00 02 
  408b60:	28 00 00 00 	lw $2,76($17)
  408b64:	4c 00 02 11 
  408b68:	34 00 00 00 	sw $0,20($17)
  408b6c:	14 00 00 11 
  408b70:	51 00 00 00 	ori $2,$2,2048
  408b74:	00 08 02 02 
  408b78:	34 00 00 00 	sw $2,76($17)
  408b7c:	4c 00 02 11 
  408b80:	28 00 00 00 	lw $2,4($17)
  408b84:	04 00 02 11 
  408b88:	06 00 00 00 	bne $2,$0,408bb8 <__fillbf+0x300>
  408b8c:	0a 00 00 02 
  408b90:	28 00 00 00 	lw $2,16($17)
  408b94:	10 00 02 11 
  408b98:	28 00 00 00 	lw $3,16($17)
  408b9c:	10 00 03 11 
  408ba0:	34 00 00 00 	sw $2,4($17)
  408ba4:	04 00 02 11 
  408ba8:	34 00 00 00 	sw $3,8($17)
  408bac:	08 00 03 11 
  408bb0:	34 00 00 00 	sw $3,12($17)
  408bb4:	0c 00 03 11 
  408bb8:	28 00 00 00 	lw $2,16($17)
  408bbc:	10 00 02 11 
  408bc0:	05 00 00 00 	beq $2,$0,408be0 <__fillbf+0x328>
  408bc4:	06 00 00 02 
  408bc8:	28 00 00 00 	lw $2,76($17)
  408bcc:	4c 00 02 11 
  408bd0:	4f 00 00 00 	andi $2,$2,4096
  408bd4:	00 10 02 02 
  408bd8:	05 00 00 00 	beq $2,$0,408c98 <__fillbf+0x3e0>
  408bdc:	2e 00 00 02 
  408be0:	28 00 00 00 	lw $16,-32708($28)
  408be4:	3c 80 10 1c 
  408be8:	05 00 00 00 	beq $16,$0,408c98 <__fillbf+0x3e0>
  408bec:	2a 00 00 10 
  408bf0:	a2 00 00 00 	lui $19,65261
  408bf4:	ed fe 13 00 
  408bf8:	51 00 00 00 	ori $19,$19,47806
  408bfc:	be ba 13 13 
  408c00:	a2 00 00 00 	lui $18,65242
  408c04:	da fe 12 00 
  408c08:	51 00 00 00 	ori $18,$18,48875
  408c0c:	eb be 12 12 
  408c10:	28 00 00 00 	lw $2,0($16)
  408c14:	00 00 02 10 
  408c18:	06 00 00 00 	bne $2,$19,408c30 <__fillbf+0x378>
  408c1c:	04 00 13 02 
  408c20:	28 00 00 00 	lw $2,4($16)
  408c24:	04 00 02 10 
  408c28:	28 00 00 00 	lw $16,0($2)
  408c2c:	00 00 10 02 
  408c30:	28 00 00 00 	lw $2,0($16)
  408c34:	00 00 02 10 
  408c38:	06 00 00 00 	bne $2,$18,408c88 <__fillbf+0x3d0>
  408c3c:	12 00 12 02 
  408c40:	28 00 00 00 	lw $2,76($16)
  408c44:	4c 00 02 10 
  408c48:	4f 00 00 00 	andi $2,$2,4096
  408c4c:	00 10 02 02 
  408c50:	05 00 00 00 	beq $2,$0,408c88 <__fillbf+0x3d0>
  408c54:	0c 00 00 02 
  408c58:	28 00 00 00 	lw $2,28($16)
  408c5c:	1c 00 02 10 
  408c60:	4f 00 00 00 	andi $2,$2,2
  408c64:	02 00 02 02 
  408c68:	05 00 00 00 	beq $2,$0,408c88 <__fillbf+0x3d0>
  408c6c:	06 00 00 02 
  408c70:	42 00 00 00 	addu $4,$0,$16
  408c74:	00 04 10 00 
  408c78:	43 00 00 00 	addiu $5,$0,-1
  408c7c:	ff ff 05 00 
  408c80:	02 00 00 00 	jal 408380 <__flshfp>
  408c84:	e0 20 10 00 
  408c88:	28 00 00 00 	lw $16,68($16)
  408c8c:	44 00 10 10 
  408c90:	06 00 00 00 	bne $16,$0,408c10 <__fillbf+0x358>
  408c94:	de ff 00 10 
  408c98:	28 00 00 00 	lw $2,76($17)
  408c9c:	4c 00 02 11 
  408ca0:	4f 00 00 00 	andi $2,$2,8192
  408ca4:	00 20 02 02 
  408ca8:	05 00 00 00 	beq $2,$0,408cf0 <__fillbf+0x438>
  408cac:	10 00 00 02 
  408cb0:	28 00 00 00 	lw $2,16($17)
  408cb4:	10 00 02 11 
  408cb8:	28 00 00 00 	lw $4,20($17)
  408cbc:	14 00 04 11 
  408cc0:	28 00 00 00 	lw $3,76($17)
  408cc4:	4c 00 03 11 
  408cc8:	42 00 00 00 	addu $2,$2,$4
  408ccc:	00 02 04 02 
  408cd0:	34 00 00 00 	sw $2,12($17)
  408cd4:	0c 00 02 11 
  408cd8:	43 00 00 00 	addiu $2,$0,-8193
  408cdc:	ff df 02 00 
  408ce0:	4e 00 00 00 	and $3,$3,$2
  408ce4:	00 03 02 03 
  408ce8:	34 00 00 00 	sw $3,76($17)
  408cec:	4c 00 03 11 
  408cf0:	28 00 00 00 	lw $3,8($17)
  408cf4:	08 00 03 11 
  408cf8:	28 00 00 00 	lw $2,16($17)
  408cfc:	10 00 02 11 
  408d00:	28 00 00 00 	lw $4,64($17)
  408d04:	40 00 04 11 
  408d08:	28 00 00 00 	lw $5,12($17)
  408d0c:	0c 00 05 11 
  408d10:	45 00 00 00 	subu $3,$3,$2
  408d14:	00 03 02 03 
  408d18:	42 00 00 00 	addu $16,$3,$4
  408d1c:	00 10 04 03 
  408d20:	5d 00 00 00 	sltu $2,$2,$5
  408d24:	00 02 05 02 
  408d28:	05 00 00 00 	beq $2,$0,408d78 <__fillbf+0x4c0>
  408d2c:	12 00 00 02 
  408d30:	28 00 00 00 	lw $2,56($17)
  408d34:	38 00 02 11 
  408d38:	06 00 00 00 	bne $2,$0,408d60 <__fillbf+0x4a8>
  408d3c:	08 00 00 02 
  408d40:	28 00 00 00 	lw $2,76($17)
  408d44:	4c 00 02 11 
  408d48:	51 00 00 00 	ori $2,$2,1024
  408d4c:	00 04 02 02 
  408d50:	34 00 00 00 	sw $2,76($17)
  408d54:	4c 00 02 11 
  408d58:	01 00 00 00 	j 408d78 <__fillbf+0x4c0>
  408d5c:	5e 23 10 00 
  408d60:	42 00 00 00 	addu $4,$0,$17
  408d64:	00 04 11 00 
  408d68:	43 00 00 00 	addiu $5,$0,-1
  408d6c:	ff ff 05 00 
  408d70:	04 00 00 00 	jalr $31,$2
  408d74:	00 1f 00 02 
  408d78:	28 00 00 00 	lw $3,76($17)
  408d7c:	4c 00 03 11 
  408d80:	34 00 00 00 	sw $16,64($17)
  408d84:	40 00 10 11 
  408d88:	4f 00 00 00 	andi $2,$3,1024
  408d8c:	00 04 02 03 
  408d90:	06 00 00 00 	bne $2,$0,408e00 <__fillbf+0x548>
  408d94:	1a 00 00 02 
  408d98:	28 00 00 00 	lw $2,52($17)
  408d9c:	34 00 02 11 
  408da0:	05 00 00 00 	beq $2,$0,408df0 <__fillbf+0x538>
  408da4:	12 00 00 02 
  408da8:	42 00 00 00 	addu $4,$0,$17
  408dac:	00 04 11 00 
  408db0:	04 00 00 00 	jalr $31,$2
  408db4:	00 1f 00 02 
  408db8:	28 00 00 00 	lw $3,16($17)
  408dbc:	10 00 03 11 
  408dc0:	42 00 00 00 	addu $4,$0,$2
  408dc4:	00 04 02 00 
  408dc8:	06 00 00 00 	bne $3,$0,408e08 <__fillbf+0x550>
  408dcc:	0e 00 00 03 
  408dd0:	28 00 00 00 	lw $2,64($17)
  408dd4:	40 00 02 11 
  408dd8:	43 00 00 00 	addiu $2,$2,1
  408ddc:	01 00 02 02 
  408de0:	34 00 00 00 	sw $2,64($17)
  408de4:	40 00 02 11 
  408de8:	01 00 00 00 	j 408e08 <__fillbf+0x550>
  408dec:	82 23 10 00 
  408df0:	51 00 00 00 	ori $2,$3,512
  408df4:	00 02 02 03 
  408df8:	34 00 00 00 	sw $2,76($17)
  408dfc:	4c 00 02 11 
  408e00:	43 00 00 00 	addiu $4,$0,-1
  408e04:	ff ff 04 00 
  408e08:	42 00 00 00 	addu $2,$0,$4
  408e0c:	00 02 04 00 
  408e10:	28 00 00 00 	lw $31,32($29)
  408e14:	20 00 1f 1d 
  408e18:	28 00 00 00 	lw $19,28($29)
  408e1c:	1c 00 13 1d 
  408e20:	28 00 00 00 	lw $18,24($29)
  408e24:	18 00 12 1d 
  408e28:	28 00 00 00 	lw $17,20($29)
  408e2c:	14 00 11 1d 
  408e30:	28 00 00 00 	lw $16,16($29)
  408e34:	10 00 10 1d 
  408e38:	43 00 00 00 	addiu $29,$29,40
  408e3c:	28 00 1d 1d 
  408e40:	03 00 00 00 	jr $31
  408e44:	00 00 00 1f 

00408e48 <__invalidate>:
  408e48:	43 00 00 00 	addiu $29,$29,-32
  408e4c:	e0 ff 1d 1d 
  408e50:	34 00 00 00 	sw $16,16($29)
  408e54:	10 00 10 1d 
  408e58:	42 00 00 00 	addu $16,$0,$4
  408e5c:	00 10 04 00 
  408e60:	34 00 00 00 	sw $31,24($29)
  408e64:	18 00 1f 1d 
  408e68:	34 00 00 00 	sw $17,20($29)
  408e6c:	14 00 11 1d 
  408e70:	28 00 00 00 	lw $17,68($16)
  408e74:	44 00 11 10 
  408e78:	42 00 00 00 	addu $5,$0,$0
  408e7c:	00 05 00 00 
  408e80:	43 00 00 00 	addiu $6,$0,80
  408e84:	50 00 06 00 
  408e88:	02 00 00 00 	jal 40f990 <memset>
  408e8c:	64 3e 10 00 
  408e90:	34 00 00 00 	sw $17,68($16)
  408e94:	44 00 11 10 
  408e98:	28 00 00 00 	lw $31,24($29)
  408e9c:	18 00 1f 1d 
  408ea0:	28 00 00 00 	lw $17,20($29)
  408ea4:	14 00 11 1d 
  408ea8:	28 00 00 00 	lw $16,16($29)
  408eac:	10 00 10 1d 
  408eb0:	43 00 00 00 	addiu $29,$29,32
  408eb4:	20 00 1d 1d 
  408eb8:	03 00 00 00 	jr $31
  408ebc:	00 00 00 1f 

00408ec0 <_free_internal>:
  408ec0:	28 00 00 00 	lw $10,-32348($28)
  408ec4:	a4 81 0a 1c 
  408ec8:	43 00 00 00 	addiu $29,$29,-40
  408ecc:	d8 ff 1d 1d 
  408ed0:	42 00 00 00 	addu $6,$0,$4
  408ed4:	00 06 04 00 
  408ed8:	34 00 00 00 	sw $31,32($29)
  408edc:	20 00 1f 1d 
  408ee0:	34 00 00 00 	sw $19,28($29)
  408ee4:	1c 00 13 1d 
  408ee8:	34 00 00 00 	sw $18,24($29)
  408eec:	18 00 12 1d 
  408ef0:	34 00 00 00 	sw $17,20($29)
  408ef4:	14 00 11 1d 
  408ef8:	34 00 00 00 	sw $16,16($29)
  408efc:	10 00 10 1d 
  408f00:	45 00 00 00 	subu $2,$6,$10
  408f04:	00 02 0a 06 
  408f08:	0a 00 00 00 	bgez $2,408f18 <_free_internal+0x58>
  408f0c:	02 00 00 02 
  408f10:	43 00 00 00 	addiu $2,$2,4095
  408f14:	ff 0f 02 02 
  408f18:	59 00 00 00 	sra $5,$2,0xc
  408f1c:	0c 05 02 00 
  408f20:	43 00 00 00 	addiu $16,$5,1
  408f24:	01 00 10 05 
  408f28:	28 00 00 00 	lw $7,-32360($28)
  408f2c:	98 81 07 1c 
  408f30:	55 00 00 00 	sll $2,$16,0x1
  408f34:	01 02 10 00 
  408f38:	42 00 00 00 	addu $2,$2,$16
  408f3c:	00 02 10 02 
  408f40:	55 00 00 00 	sll $11,$2,0x2
  408f44:	02 0b 02 00 
  408f48:	42 00 00 00 	addu $8,$11,$7
  408f4c:	00 08 07 0b 
  408f50:	28 00 00 00 	lw $9,0($8)
  408f54:	00 00 09 08 
  408f58:	06 00 00 00 	bne $9,$0,409430 <_free_internal+0x570>
  408f5c:	34 01 00 09 
  408f60:	28 00 00 00 	lw $2,-32344($28)
  408f64:	a8 81 02 1c 
  408f68:	28 00 00 00 	lw $6,-32372($28)
  408f6c:	8c 81 06 1c 
  408f70:	28 00 00 00 	lw $3,4($8)
  408f74:	04 00 03 08 
  408f78:	28 00 00 00 	lw $4,-32384($28)
  408f7c:	80 81 04 1c 
  408f80:	28 00 00 00 	lw $5,-32352($28)
  408f84:	a0 81 05 1c 
  408f88:	43 00 00 00 	addiu $2,$2,-1
  408f8c:	ff ff 02 02 
  408f90:	34 00 00 00 	sw $2,-32344($28)
  408f94:	a8 81 02 1c 
  408f98:	28 00 00 00 	lw $2,4($8)
  408f9c:	04 00 02 08 
  408fa0:	55 00 00 00 	sll $3,$3,0xc
  408fa4:	0c 03 03 00 
  408fa8:	45 00 00 00 	subu $4,$4,$3
  408fac:	00 04 03 04 
  408fb0:	34 00 00 00 	sw $4,-32384($28)
  408fb4:	80 81 04 1c 
  408fb8:	55 00 00 00 	sll $2,$2,0xc
  408fbc:	0c 02 02 00 
  408fc0:	42 00 00 00 	addu $2,$2,$5
  408fc4:	00 02 05 02 
  408fc8:	34 00 00 00 	sw $2,-32352($28)
  408fcc:	a0 81 02 1c 
  408fd0:	5d 00 00 00 	sltu $2,$16,$6
  408fd4:	00 02 06 10 
  408fd8:	05 00 00 00 	beq $2,$0,409028 <_free_internal+0x168>
  408fdc:	12 00 00 02 
  408fe0:	42 00 00 00 	addu $3,$0,$7
  408fe4:	00 03 07 00 
  408fe8:	55 00 00 00 	sll $2,$6,0x1
  408fec:	01 02 06 00 
  408ff0:	42 00 00 00 	addu $2,$2,$6
  408ff4:	00 02 06 02 
  408ff8:	55 00 00 00 	sll $2,$2,0x2
  408ffc:	02 02 02 00 
  409000:	42 00 00 00 	addu $2,$2,$3
  409004:	00 02 03 02 
  409008:	28 00 00 00 	lw $6,8($2)
  40900c:	08 00 06 02 
  409010:	5d 00 00 00 	sltu $2,$16,$6
  409014:	00 02 06 10 
  409018:	06 00 00 00 	bne $2,$0,408fe8 <_free_internal+0x128>
  40901c:	f2 ff 00 02 
  409020:	01 00 00 00 	j 409098 <_free_internal+0x1d8>
  409024:	26 24 10 00 
  409028:	42 00 00 00 	addu $3,$0,$7
  40902c:	00 03 07 00 
  409030:	55 00 00 00 	sll $2,$6,0x1
  409034:	01 02 06 00 
  409038:	42 00 00 00 	addu $2,$2,$6
  40903c:	00 02 06 02 
  409040:	55 00 00 00 	sll $2,$2,0x2
  409044:	02 02 02 00 
  409048:	42 00 00 00 	addu $2,$2,$3
  40904c:	00 02 03 02 
  409050:	28 00 00 00 	lw $6,4($2)
  409054:	04 00 06 02 
  409058:	05 00 00 00 	beq $6,$0,409070 <_free_internal+0x1b0>
  40905c:	04 00 00 06 
  409060:	5d 00 00 00 	sltu $2,$6,$16
  409064:	00 02 10 06 
  409068:	06 00 00 00 	bne $2,$0,409030 <_free_internal+0x170>
  40906c:	f0 ff 00 02 
  409070:	55 00 00 00 	sll $2,$6,0x1
  409074:	01 02 06 00 
  409078:	42 00 00 00 	addu $2,$2,$6
  40907c:	00 02 06 02 
  409080:	55 00 00 00 	sll $2,$2,0x2
  409084:	02 02 02 00 
  409088:	42 00 00 00 	addu $2,$2,$3
  40908c:	00 02 03 02 
  409090:	28 00 00 00 	lw $6,8($2)
  409094:	08 00 06 02 
  409098:	28 00 00 00 	lw $5,-32360($28)
  40909c:	98 81 05 1c 
  4090a0:	55 00 00 00 	sll $2,$6,0x1
  4090a4:	01 02 06 00 
  4090a8:	42 00 00 00 	addu $2,$2,$6
  4090ac:	00 02 06 02 
  4090b0:	55 00 00 00 	sll $2,$2,0x2
  4090b4:	02 02 02 00 
  4090b8:	42 00 00 00 	addu $4,$2,$5
  4090bc:	00 04 05 02 
  4090c0:	28 00 00 00 	lw $3,0($4)
  4090c4:	00 00 03 04 
  4090c8:	42 00 00 00 	addu $2,$6,$3
  4090cc:	00 02 03 06 
  4090d0:	06 00 00 00 	bne $16,$2,409120 <_free_internal+0x260>
  4090d4:	12 00 02 10 
  4090d8:	55 00 00 00 	sll $2,$16,0x1
  4090dc:	01 02 10 00 
  4090e0:	42 00 00 00 	addu $2,$2,$16
  4090e4:	00 02 10 02 
  4090e8:	55 00 00 00 	sll $2,$2,0x2
  4090ec:	02 02 02 00 
  4090f0:	42 00 00 00 	addu $2,$2,$5
  4090f4:	00 02 05 02 
  4090f8:	28 00 00 00 	lw $2,4($2)
  4090fc:	04 00 02 02 
  409100:	42 00 00 00 	addu $16,$0,$6
  409104:	00 10 06 00 
  409108:	42 00 00 00 	addu $2,$3,$2
  40910c:	00 02 02 03 
  409110:	34 00 00 00 	sw $2,0($4)
  409114:	00 00 02 04 
  409118:	01 00 00 00 	j 4091b8 <_free_internal+0x2f8>
  40911c:	6e 24 10 00 
  409120:	55 00 00 00 	sll $2,$16,0x1
  409124:	01 02 10 00 
  409128:	42 00 00 00 	addu $2,$2,$16
  40912c:	00 02 10 02 
  409130:	55 00 00 00 	sll $2,$2,0x2
  409134:	02 02 02 00 
  409138:	42 00 00 00 	addu $2,$2,$5
  40913c:	00 02 05 02 
  409140:	28 00 00 00 	lw $3,4($2)
  409144:	04 00 03 02 
  409148:	34 00 00 00 	sw $3,0($2)
  40914c:	00 00 03 02 
  409150:	28 00 00 00 	lw $3,4($4)
  409154:	04 00 03 04 
  409158:	34 00 00 00 	sw $3,4($2)
  40915c:	04 00 03 02 
  409160:	28 00 00 00 	lw $3,-32376($28)
  409164:	88 81 03 1c 
  409168:	34 00 00 00 	sw $6,8($2)
  40916c:	08 00 06 02 
  409170:	34 00 00 00 	sw $16,4($4)
  409174:	04 00 10 04 
  409178:	28 00 00 00 	lw $4,4($2)
  40917c:	04 00 04 02 
  409180:	43 00 00 00 	addiu $3,$3,1
  409184:	01 00 03 03 
  409188:	55 00 00 00 	sll $2,$4,0x1
  40918c:	01 02 04 00 
  409190:	42 00 00 00 	addu $2,$2,$4
  409194:	00 02 04 02 
  409198:	55 00 00 00 	sll $2,$2,0x2
  40919c:	02 02 02 00 
  4091a0:	42 00 00 00 	addu $2,$2,$5
  4091a4:	00 02 05 02 
  4091a8:	34 00 00 00 	sw $3,-32376($28)
  4091ac:	88 81 03 1c 
  4091b0:	34 00 00 00 	sw $16,8($2)
  4091b4:	08 00 10 02 
  4091b8:	28 00 00 00 	lw $6,-32360($28)
  4091bc:	98 81 06 1c 
  4091c0:	55 00 00 00 	sll $2,$16,0x1
  4091c4:	01 02 10 00 
  4091c8:	42 00 00 00 	addu $2,$2,$16
  4091cc:	00 02 10 02 
  4091d0:	55 00 00 00 	sll $19,$2,0x2
  4091d4:	02 13 02 00 
  4091d8:	42 00 00 00 	addu $5,$19,$6
  4091dc:	00 05 06 13 
  4091e0:	28 00 00 00 	lw $4,0($5)
  4091e4:	00 00 04 05 
  4091e8:	28 00 00 00 	lw $2,4($5)
  4091ec:	04 00 02 05 
  4091f0:	42 00 00 00 	addu $3,$16,$4
  4091f4:	00 03 04 10 
  4091f8:	06 00 00 00 	bne $3,$2,4092b0 <_free_internal+0x3f0>
  4091fc:	2c 00 02 03 
  409200:	55 00 00 00 	sll $2,$3,0x1
  409204:	01 02 03 00 
  409208:	42 00 00 00 	addu $2,$2,$3
  40920c:	00 02 03 02 
  409210:	55 00 00 00 	sll $2,$2,0x2
  409214:	02 02 02 00 
  409218:	42 00 00 00 	addu $2,$2,$6
  40921c:	00 02 06 02 
  409220:	28 00 00 00 	lw $2,0($2)
  409224:	00 00 02 02 
  409228:	28 00 00 00 	lw $3,4($5)
  40922c:	04 00 03 05 
  409230:	42 00 00 00 	addu $2,$4,$2
  409234:	00 02 02 04 
  409238:	34 00 00 00 	sw $2,0($5)
  40923c:	00 00 02 05 
  409240:	55 00 00 00 	sll $2,$3,0x1
  409244:	01 02 03 00 
  409248:	42 00 00 00 	addu $2,$2,$3
  40924c:	00 02 03 02 
  409250:	55 00 00 00 	sll $2,$2,0x2
  409254:	02 02 02 00 
  409258:	42 00 00 00 	addu $2,$2,$6
  40925c:	00 02 06 02 
  409260:	28 00 00 00 	lw $3,-32376($28)
  409264:	88 81 03 1c 
  409268:	28 00 00 00 	lw $4,4($2)
  40926c:	04 00 04 02 
  409270:	43 00 00 00 	addiu $3,$3,-1
  409274:	ff ff 03 03 
  409278:	55 00 00 00 	sll $2,$4,0x1
  40927c:	01 02 04 00 
  409280:	42 00 00 00 	addu $2,$2,$4
  409284:	00 02 04 02 
  409288:	55 00 00 00 	sll $2,$2,0x2
  40928c:	02 02 02 00 
  409290:	42 00 00 00 	addu $2,$2,$6
  409294:	00 02 06 02 
  409298:	34 00 00 00 	sw $3,-32376($28)
  40929c:	88 81 03 1c 
  4092a0:	34 00 00 00 	sw $4,4($5)
  4092a4:	04 00 04 05 
  4092a8:	34 00 00 00 	sw $16,8($2)
  4092ac:	08 00 10 02 
  4092b0:	28 00 00 00 	lw $2,-32360($28)
  4092b4:	98 81 02 1c 
  4092b8:	42 00 00 00 	addu $2,$19,$2
  4092bc:	00 02 02 13 
  4092c0:	28 00 00 00 	lw $17,0($2)
  4092c4:	00 00 11 02 
  4092c8:	5e 00 00 00 	sltiu $2,$17,8
  4092cc:	08 00 02 11 
  4092d0:	06 00 00 00 	bne $2,$0,409420 <_free_internal+0x560>
  4092d4:	52 00 00 02 
  4092d8:	28 00 00 00 	lw $2,-32368($28)
  4092dc:	90 81 02 1c 
  4092e0:	42 00 00 00 	addu $18,$16,$17
  4092e4:	00 12 11 10 
  4092e8:	06 00 00 00 	bne $18,$2,409420 <_free_internal+0x560>
  4092ec:	4c 00 02 12 
  4092f0:	28 00 00 00 	lw $2,-32640($28)
  4092f4:	80 80 02 1c 
  4092f8:	42 00 00 00 	addu $4,$0,$0
  4092fc:	00 04 00 00 
  409300:	04 00 00 00 	jalr $31,$2
  409304:	00 1f 00 02 
  409308:	28 00 00 00 	lw $4,-32348($28)
  40930c:	a4 81 04 1c 
  409310:	43 00 00 00 	addiu $3,$18,-1
  409314:	ff ff 03 12 
  409318:	55 00 00 00 	sll $3,$3,0xc
  40931c:	0c 03 03 00 
  409320:	42 00 00 00 	addu $3,$3,$4
  409324:	00 03 04 03 
  409328:	06 00 00 00 	bne $2,$3,409420 <_free_internal+0x560>
  40932c:	3c 00 03 02 
  409330:	55 00 00 00 	sll $16,$17,0xc
  409334:	0c 10 11 00 
  409338:	28 00 00 00 	lw $2,-32368($28)
  40933c:	90 81 02 1c 
  409340:	28 00 00 00 	lw $3,-32640($28)
  409344:	80 80 03 1c 
  409348:	45 00 00 00 	subu $4,$0,$16
  40934c:	00 04 10 00 
  409350:	45 00 00 00 	subu $2,$2,$17
  409354:	00 02 11 02 
  409358:	34 00 00 00 	sw $2,-32368($28)
  40935c:	90 81 02 1c 
  409360:	04 00 00 00 	jalr $31,$3
  409364:	00 1f 00 03 
  409368:	28 00 00 00 	lw $5,-32360($28)
  40936c:	98 81 05 1c 
  409370:	42 00 00 00 	addu $4,$19,$5
  409374:	00 04 05 13 
  409378:	28 00 00 00 	lw $3,8($4)
  40937c:	08 00 03 04 
  409380:	55 00 00 00 	sll $2,$3,0x1
  409384:	01 02 03 00 
  409388:	42 00 00 00 	addu $2,$2,$3
  40938c:	00 02 03 02 
  409390:	28 00 00 00 	lw $3,4($4)
  409394:	04 00 03 04 
  409398:	55 00 00 00 	sll $2,$2,0x2
  40939c:	02 02 02 00 
  4093a0:	42 00 00 00 	addu $2,$2,$5
  4093a4:	00 02 05 02 
  4093a8:	34 00 00 00 	sw $3,4($2)
  4093ac:	04 00 03 02 
  4093b0:	28 00 00 00 	lw $2,-32376($28)
  4093b4:	88 81 02 1c 
  4093b8:	28 00 00 00 	lw $3,-32352($28)
  4093bc:	a0 81 03 1c 
  4093c0:	28 00 00 00 	lw $6,4($4)
  4093c4:	04 00 06 04 
  4093c8:	43 00 00 00 	addiu $2,$2,-1
  4093cc:	ff ff 02 02 
  4093d0:	45 00 00 00 	subu $3,$3,$16
  4093d4:	00 03 10 03 
  4093d8:	34 00 00 00 	sw $2,-32376($28)
  4093dc:	88 81 02 1c 
  4093e0:	55 00 00 00 	sll $2,$6,0x1
  4093e4:	01 02 06 00 
  4093e8:	42 00 00 00 	addu $2,$2,$6
  4093ec:	00 02 06 02 
  4093f0:	34 00 00 00 	sw $3,-32352($28)
  4093f4:	a0 81 03 1c 
  4093f8:	28 00 00 00 	lw $3,8($4)
  4093fc:	08 00 03 04 
  409400:	55 00 00 00 	sll $2,$2,0x2
  409404:	02 02 02 00 
  409408:	42 00 00 00 	addu $2,$2,$5
  40940c:	00 02 05 02 
  409410:	34 00 00 00 	sw $3,8($2)
  409414:	08 00 03 02 
  409418:	28 00 00 00 	lw $16,8($4)
  40941c:	08 00 10 04 
  409420:	34 00 00 00 	sw $16,-32372($28)
  409424:	8c 81 10 1c 
  409428:	01 00 00 00 	j 409738 <_free_internal+0x878>
  40942c:	ce 25 10 00 
  409430:	28 00 00 00 	lw $4,-32344($28)
  409434:	a8 81 04 1c 
  409438:	28 00 00 00 	lw $3,8($8)
  40943c:	08 00 03 08 
  409440:	55 00 00 00 	sll $2,$5,0xc
  409444:	0c 02 05 00 
  409448:	42 00 00 00 	addu $2,$2,$10
  40944c:	00 02 0a 02 
  409450:	28 00 00 00 	lw $5,-32352($28)
  409454:	a0 81 05 1c 
  409458:	56 00 00 00 	sllv $3,$3,$9
  40945c:	00 03 03 09 
  409460:	42 00 00 00 	addu $7,$2,$3
  409464:	00 07 03 02 
  409468:	28 00 00 00 	lw $3,-32384($28)
  40946c:	80 81 03 1c 
  409470:	43 00 00 00 	addiu $10,$0,1
  409474:	01 00 0a 00 
  409478:	43 00 00 00 	addiu $4,$4,-1
  40947c:	ff ff 04 04 
  409480:	34 00 00 00 	sw $4,-32344($28)
  409484:	a8 81 04 1c 
  409488:	28 00 00 00 	lw $4,-32376($28)
  40948c:	88 81 04 1c 
  409490:	56 00 00 00 	sllv $2,$10,$9
  409494:	00 02 0a 09 
  409498:	45 00 00 00 	subu $3,$3,$2
  40949c:	00 03 02 03 
  4094a0:	34 00 00 00 	sw $3,-32384($28)
  4094a4:	80 81 03 1c 
  4094a8:	28 00 00 00 	lw $3,4($8)
  4094ac:	04 00 03 08 
  4094b0:	43 00 00 00 	addiu $4,$4,1
  4094b4:	01 00 04 04 
  4094b8:	42 00 00 00 	addu $2,$2,$5
  4094bc:	00 02 05 02 
  4094c0:	34 00 00 00 	sw $2,-32352($28)
  4094c4:	a0 81 02 1c 
  4094c8:	43 00 00 00 	addiu $2,$0,4096
  4094cc:	00 10 02 00 
  4094d0:	34 00 00 00 	sw $4,-32376($28)
  4094d4:	88 81 04 1c 
  4094d8:	5a 00 00 00 	srav $4,$2,$9
  4094dc:	00 04 02 09 
  4094e0:	43 00 00 00 	addiu $2,$4,-1
  4094e4:	ff ff 02 04 
  4094e8:	06 00 00 00 	bne $3,$2,409638 <_free_internal+0x778>
  4094ec:	52 00 02 03 
  4094f0:	42 00 00 00 	addu $3,$0,$7
  4094f4:	00 03 07 00 
  4094f8:	43 00 00 00 	addiu $6,$0,1
  4094fc:	01 00 06 00 
  409500:	5d 00 00 00 	sltu $2,$10,$4
  409504:	00 02 04 0a 
  409508:	05 00 00 00 	beq $2,$0,409530 <_free_internal+0x670>
  40950c:	08 00 00 02 
  409510:	28 00 00 00 	lw $3,0($3)
  409514:	00 00 03 03 
  409518:	43 00 00 00 	addiu $6,$6,1
  40951c:	01 00 06 06 
  409520:	5d 00 00 00 	sltu $2,$6,$4
  409524:	00 02 04 06 
  409528:	06 00 00 00 	bne $2,$0,409510 <_free_internal+0x650>
  40952c:	f8 ff 00 02 
  409530:	28 00 00 00 	lw $2,4($7)
  409534:	04 00 02 07 
  409538:	34 00 00 00 	sw $3,0($2)
  40953c:	00 00 03 02 
  409540:	05 00 00 00 	beq $3,$0,409558 <_free_internal+0x698>
  409544:	04 00 00 03 
  409548:	28 00 00 00 	lw $2,4($7)
  40954c:	04 00 02 07 
  409550:	34 00 00 00 	sw $2,4($3)
  409554:	04 00 02 03 
  409558:	28 00 00 00 	lw $2,-32348($28)
  40955c:	a4 81 02 1c 
  409560:	43 00 00 00 	addiu $4,$16,-1
  409564:	ff ff 04 10 
  409568:	55 00 00 00 	sll $4,$4,0xc
  40956c:	0c 04 04 00 
  409570:	28 00 00 00 	lw $3,-32360($28)
  409574:	98 81 03 1c 
  409578:	28 00 00 00 	lw $5,-32344($28)
  40957c:	a8 81 05 1c 
  409580:	28 00 00 00 	lw $6,-32384($28)
  409584:	80 81 06 1c 
  409588:	42 00 00 00 	addu $4,$4,$2
  40958c:	00 04 02 04 
  409590:	55 00 00 00 	sll $2,$16,0x1
  409594:	01 02 10 00 
  409598:	42 00 00 00 	addu $2,$2,$16
  40959c:	00 02 10 02 
  4095a0:	55 00 00 00 	sll $2,$2,0x2
  4095a4:	02 02 02 00 
  4095a8:	42 00 00 00 	addu $2,$2,$3
  4095ac:	00 02 03 02 
  4095b0:	43 00 00 00 	addiu $3,$0,1
  4095b4:	01 00 03 00 
  4095b8:	34 00 00 00 	sw $3,4($2)
  4095bc:	04 00 03 02 
  4095c0:	28 00 00 00 	lw $3,-32376($28)
  4095c4:	88 81 03 1c 
  4095c8:	43 00 00 00 	addiu $5,$5,1
  4095cc:	01 00 05 05 
  4095d0:	34 00 00 00 	sw $5,-32344($28)
  4095d4:	a8 81 05 1c 
  4095d8:	28 00 00 00 	lw $5,-32352($28)
  4095dc:	a0 81 05 1c 
  4095e0:	43 00 00 00 	addiu $6,$6,4096
  4095e4:	00 10 06 06 
  4095e8:	34 00 00 00 	sw $0,0($2)
  4095ec:	00 00 00 02 
  4095f0:	43 00 00 00 	addiu $2,$0,4096
  4095f4:	00 10 02 00 
  4095f8:	5a 00 00 00 	srav $2,$2,$9
  4095fc:	00 02 02 09 
  409600:	34 00 00 00 	sw $6,-32384($28)
  409604:	80 81 06 1c 
  409608:	45 00 00 00 	subu $3,$3,$2
  40960c:	00 03 02 03 
  409610:	43 00 00 00 	addiu $5,$5,-4096
  409614:	00 f0 05 05 
  409618:	34 00 00 00 	sw $3,-32376($28)
  40961c:	88 81 03 1c 
  409620:	34 00 00 00 	sw $5,-32352($28)
  409624:	a0 81 05 1c 
  409628:	02 00 00 00 	jal 409770 <free>
  40962c:	dc 25 10 00 
  409630:	01 00 00 00 	j 409738 <_free_internal+0x878>
  409634:	ce 25 10 00 
  409638:	05 00 00 00 	beq $3,$0,4096a8 <_free_internal+0x7e8>
  40963c:	1a 00 00 03 
  409640:	28 00 00 00 	lw $2,0($7)
  409644:	00 00 02 07 
  409648:	34 00 00 00 	sw $2,0($6)
  40964c:	00 00 02 06 
  409650:	34 00 00 00 	sw $7,4($6)
  409654:	04 00 07 06 
  409658:	34 00 00 00 	sw $6,0($7)
  40965c:	00 00 06 07 
  409660:	28 00 00 00 	lw $2,0($6)
  409664:	00 00 02 06 
  409668:	05 00 00 00 	beq $2,$0,409678 <_free_internal+0x7b8>
  40966c:	02 00 00 02 
  409670:	34 00 00 00 	sw $6,4($2)
  409674:	04 00 06 02 
  409678:	28 00 00 00 	lw $3,-32360($28)
  40967c:	98 81 03 1c 
  409680:	42 00 00 00 	addu $3,$11,$3
  409684:	00 03 03 0b 
  409688:	28 00 00 00 	lw $2,4($3)
  40968c:	04 00 02 03 
  409690:	43 00 00 00 	addiu $2,$2,1
  409694:	01 00 02 02 
  409698:	34 00 00 00 	sw $2,4($3)
  40969c:	04 00 02 03 
  4096a0:	01 00 00 00 	j 409738 <_free_internal+0x878>
  4096a4:	ce 25 10 00 
  4096a8:	42 00 00 00 	addu $7,$0,$6
  4096ac:	00 07 06 00 
  4096b0:	4f 00 00 00 	andi $2,$7,4095
  4096b4:	ff 0f 02 07 
  4096b8:	58 00 00 00 	srlv $2,$2,$9
  4096bc:	00 02 02 09 
  4096c0:	34 00 00 00 	sw $2,8($8)
  4096c4:	08 00 02 08 
  4096c8:	55 00 00 00 	sll $2,$9,0x3
  4096cc:	03 02 09 00 
  4096d0:	34 00 00 00 	sw $10,4($8)
  4096d4:	04 00 0a 08 
  4096d8:	a2 00 00 00 	lui $3,4096
  4096dc:	00 10 03 00 
  4096e0:	42 00 00 00 	addu $3,$3,$2
  4096e4:	00 03 02 03 
  4096e8:	28 00 00 00 	lw $3,9296($3)
  4096ec:	50 24 03 03 
  4096f0:	34 00 00 00 	sw $3,0($7)
  4096f4:	00 00 03 07 
  4096f8:	a2 00 00 00 	lui $3,4096
  4096fc:	00 10 03 00 
  409700:	43 00 00 00 	addiu $3,$3,9296
  409704:	50 24 03 03 
  409708:	42 00 00 00 	addu $2,$2,$3
  40970c:	00 02 03 02 
  409710:	34 00 00 00 	sw $2,4($7)
  409714:	04 00 02 07 
  409718:	34 00 00 00 	sw $7,0($2)
  40971c:	00 00 07 02 
  409720:	28 00 00 00 	lw $2,0($7)
  409724:	00 00 02 07 
  409728:	05 00 00 00 	beq $2,$0,409738 <_free_internal+0x878>
  40972c:	02 00 00 02 
  409730:	34 00 00 00 	sw $7,4($2)
  409734:	04 00 07 02 
  409738:	28 00 00 00 	lw $31,32($29)
  40973c:	20 00 1f 1d 
  409740:	28 00 00 00 	lw $19,28($29)
  409744:	1c 00 13 1d 
  409748:	28 00 00 00 	lw $18,24($29)
  40974c:	18 00 12 1d 
  409750:	28 00 00 00 	lw $17,20($29)
  409754:	14 00 11 1d 
  409758:	28 00 00 00 	lw $16,16($29)
  40975c:	10 00 10 1d 
  409760:	43 00 00 00 	addiu $29,$29,40
  409764:	28 00 1d 1d 
  409768:	03 00 00 00 	jr $31
  40976c:	00 00 00 1f 

00409770 <free>:
  409770:	43 00 00 00 	addiu $29,$29,-24
  409774:	e8 ff 1d 1d 
  409778:	34 00 00 00 	sw $31,16($29)
  40977c:	10 00 1f 1d 
  409780:	05 00 00 00 	beq $4,$0,4097f8 <free+0x88>
  409784:	1c 00 00 04 
  409788:	28 00 00 00 	lw $3,-32608($28)
  40978c:	a0 80 03 1c 
  409790:	05 00 00 00 	beq $3,$0,4097b8 <free+0x48>
  409794:	08 00 00 03 
  409798:	28 00 00 00 	lw $2,4($3)
  40979c:	04 00 02 03 
  4097a0:	05 00 00 00 	beq $2,$4,4097d8 <free+0x68>
  4097a4:	0c 00 04 02 
  4097a8:	28 00 00 00 	lw $3,0($3)
  4097ac:	00 00 03 03 
  4097b0:	06 00 00 00 	bne $3,$0,409798 <free+0x28>
  4097b4:	f8 ff 00 03 
  4097b8:	28 00 00 00 	lw $2,-32336($28)
  4097bc:	b0 81 02 1c 
  4097c0:	05 00 00 00 	beq $2,$0,4097f0 <free+0x80>
  4097c4:	0a 00 00 02 
  4097c8:	04 00 00 00 	jalr $31,$2
  4097cc:	00 1f 00 02 
  4097d0:	01 00 00 00 	j 4097f8 <free+0x88>
  4097d4:	fe 25 10 00 
  4097d8:	28 00 00 00 	lw $4,8($3)
  4097dc:	08 00 04 03 
  4097e0:	34 00 00 00 	sw $0,4($3)
  4097e4:	04 00 00 03 
  4097e8:	01 00 00 00 	j 4097b8 <free+0x48>
  4097ec:	ee 25 10 00 
  4097f0:	02 00 00 00 	jal 408ec0 <_free_internal>
  4097f4:	b0 23 10 00 
  4097f8:	28 00 00 00 	lw $31,16($29)
  4097fc:	10 00 1f 1d 
  409800:	43 00 00 00 	addiu $29,$29,24
  409804:	18 00 1d 1d 
  409808:	03 00 00 00 	jr $31
  40980c:	00 00 00 1f 

00409810 <__stdio_read>:
  409810:	43 00 00 00 	addiu $29,$29,-24
  409814:	e8 ff 1d 1d 
  409818:	34 00 00 00 	sw $31,16($29)
  40981c:	10 00 1f 1d 
  409820:	02 00 00 00 	jal 40fe10 <__read>
  409824:	84 3f 10 00 
  409828:	28 00 00 00 	lw $31,16($29)
  40982c:	10 00 1f 1d 
  409830:	43 00 00 00 	addiu $29,$29,24
  409834:	18 00 1d 1d 
  409838:	03 00 00 00 	jr $31
  40983c:	00 00 00 1f 

00409840 <__stdio_write>:
  409840:	43 00 00 00 	addiu $29,$29,-40
  409844:	d8 ff 1d 1d 
  409848:	34 00 00 00 	sw $17,20($29)
  40984c:	14 00 11 1d 
  409850:	42 00 00 00 	addu $17,$0,$5
  409854:	00 11 05 00 
  409858:	34 00 00 00 	sw $16,16($29)
  40985c:	10 00 10 1d 
  409860:	42 00 00 00 	addu $16,$0,$6
  409864:	00 10 06 00 
  409868:	34 00 00 00 	sw $18,24($29)
  40986c:	18 00 12 1d 
  409870:	42 00 00 00 	addu $18,$0,$0
  409874:	00 12 00 00 
  409878:	34 00 00 00 	sw $19,28($29)
  40987c:	1c 00 13 1d 
  409880:	42 00 00 00 	addu $19,$0,$4
  409884:	00 13 04 00 
  409888:	34 00 00 00 	sw $31,32($29)
  40988c:	20 00 1f 1d 
  409890:	05 00 00 00 	beq $16,$0,4098f8 <__stdio_write+0xb8>
  409894:	18 00 00 10 
  409898:	42 00 00 00 	addu $4,$0,$19
  40989c:	00 04 13 00 
  4098a0:	42 00 00 00 	addu $5,$0,$17
  4098a4:	00 05 11 00 
  4098a8:	42 00 00 00 	addu $6,$0,$16
  4098ac:	00 06 10 00 
  4098b0:	02 00 00 00 	jal 40fe50 <__write>
  4098b4:	94 3f 10 00 
  4098b8:	08 00 00 00 	bgtz $2,4098d8 <__stdio_write+0x98>
  4098bc:	06 00 00 02 
  4098c0:	0a 00 00 00 	bgez $2,4098f0 <__stdio_write+0xb0>
  4098c4:	0a 00 00 02 
  4098c8:	43 00 00 00 	addiu $2,$0,-1
  4098cc:	ff ff 02 00 
  4098d0:	01 00 00 00 	j 409900 <__stdio_write+0xc0>
  4098d4:	40 26 10 00 
  4098d8:	42 00 00 00 	addu $17,$17,$2
  4098dc:	00 11 02 11 
  4098e0:	42 00 00 00 	addu $18,$18,$2
  4098e4:	00 12 02 12 
  4098e8:	45 00 00 00 	subu $16,$16,$2
  4098ec:	00 10 02 10 
  4098f0:	06 00 00 00 	bne $16,$0,409898 <__stdio_write+0x58>
  4098f4:	e8 ff 00 10 
  4098f8:	42 00 00 00 	addu $2,$0,$18
  4098fc:	00 02 12 00 
  409900:	28 00 00 00 	lw $31,32($29)
  409904:	20 00 1f 1d 
  409908:	28 00 00 00 	lw $19,28($29)
  40990c:	1c 00 13 1d 
  409910:	28 00 00 00 	lw $18,24($29)
  409914:	18 00 12 1d 
  409918:	28 00 00 00 	lw $17,20($29)
  40991c:	14 00 11 1d 
  409920:	28 00 00 00 	lw $16,16($29)
  409924:	10 00 10 1d 
  409928:	43 00 00 00 	addiu $29,$29,40
  40992c:	28 00 1d 1d 
  409930:	03 00 00 00 	jr $31
  409934:	00 00 00 1f 

00409938 <__stdio_seek>:
  409938:	43 00 00 00 	addiu $29,$29,-24
  40993c:	e8 ff 1d 1d 
  409940:	34 00 00 00 	sw $16,16($29)
  409944:	10 00 10 1d 
  409948:	42 00 00 00 	addu $16,$0,$5
  40994c:	00 10 05 00 
  409950:	34 00 00 00 	sw $31,20($29)
  409954:	14 00 1f 1d 
  409958:	28 00 00 00 	lw $5,0($16)
  40995c:	00 00 05 10 
  409960:	02 00 00 00 	jal 40fe90 <__lseek>
  409964:	a4 3f 10 00 
  409968:	09 00 00 00 	bltz $2,409988 <__stdio_seek+0x50>
  40996c:	06 00 00 02 
  409970:	34 00 00 00 	sw $2,0($16)
  409974:	00 00 02 10 
  409978:	42 00 00 00 	addu $2,$0,$0
  40997c:	00 02 00 00 
  409980:	01 00 00 00 	j 409990 <__stdio_seek+0x58>
  409984:	64 26 10 00 
  409988:	43 00 00 00 	addiu $2,$0,1
  40998c:	01 00 02 00 
  409990:	28 00 00 00 	lw $31,20($29)
  409994:	14 00 1f 1d 
  409998:	28 00 00 00 	lw $16,16($29)
  40999c:	10 00 10 1d 
  4099a0:	43 00 00 00 	addiu $29,$29,24
  4099a4:	18 00 1d 1d 
  4099a8:	03 00 00 00 	jr $31
  4099ac:	00 00 00 1f 

004099b0 <__stdio_close>:
  4099b0:	43 00 00 00 	addiu $29,$29,-24
  4099b4:	e8 ff 1d 1d 
  4099b8:	34 00 00 00 	sw $31,16($29)
  4099bc:	10 00 1f 1d 
  4099c0:	02 00 00 00 	jal 40fed0 <__close>
  4099c4:	b4 3f 10 00 
  4099c8:	28 00 00 00 	lw $31,16($29)
  4099cc:	10 00 1f 1d 
  4099d0:	43 00 00 00 	addiu $29,$29,24
  4099d4:	18 00 1d 1d 
  4099d8:	03 00 00 00 	jr $31
  4099dc:	00 00 00 1f 

004099e0 <__stdio_fileno>:
  4099e0:	42 00 00 00 	addu $2,$0,$4
  4099e4:	00 02 04 00 
  4099e8:	03 00 00 00 	jr $31
  4099ec:	00 00 00 1f 

004099f0 <__stdio_open>:
  4099f0:	43 00 00 00 	addiu $29,$29,-24
  4099f4:	e8 ff 1d 1d 
  4099f8:	42 00 00 00 	addu $7,$0,$5
  4099fc:	00 07 05 00 
  409a00:	34 00 00 00 	sw $16,16($29)
  409a04:	10 00 10 1d 
  409a08:	42 00 00 00 	addu $16,$0,$6
  409a0c:	00 10 06 00 
  409a10:	4f 00 00 00 	andi $3,$7,3
  409a14:	03 00 03 07 
  409a18:	43 00 00 00 	addiu $2,$0,3
  409a1c:	03 00 02 00 
  409a20:	34 00 00 00 	sw $31,20($29)
  409a24:	14 00 1f 1d 
  409a28:	06 00 00 00 	bne $3,$2,409a40 <__stdio_open+0x50>
  409a2c:	04 00 02 03 
  409a30:	43 00 00 00 	addiu $5,$0,2
  409a34:	02 00 05 00 
  409a38:	01 00 00 00 	j 409a50 <__stdio_open+0x60>
  409a3c:	94 26 10 00 
  409a40:	53 00 00 00 	xori $5,$7,1
  409a44:	01 00 05 07 
  409a48:	4f 00 00 00 	andi $5,$5,1
  409a4c:	01 00 05 05 
  409a50:	4f 00 00 00 	andi $2,$7,4
  409a54:	04 00 02 07 
  409a58:	05 00 00 00 	beq $2,$0,409a68 <__stdio_open+0x78>
  409a5c:	02 00 00 02 
  409a60:	51 00 00 00 	ori $5,$5,8
  409a64:	08 00 05 05 
  409a68:	4f 00 00 00 	andi $2,$7,32
  409a6c:	20 00 02 07 
  409a70:	05 00 00 00 	beq $2,$0,409a80 <__stdio_open+0x90>
  409a74:	02 00 00 02 
  409a78:	51 00 00 00 	ori $5,$5,2048
  409a7c:	00 08 05 05 
  409a80:	4f 00 00 00 	andi $2,$7,64
  409a84:	40 00 02 07 
  409a88:	05 00 00 00 	beq $2,$0,409a98 <__stdio_open+0xa8>
  409a8c:	02 00 00 02 
  409a90:	51 00 00 00 	ori $5,$5,1024
  409a94:	00 04 05 05 
  409a98:	4f 00 00 00 	andi $2,$7,16
  409a9c:	10 00 02 07 
  409aa0:	05 00 00 00 	beq $2,$0,409ac8 <__stdio_open+0xd8>
  409aa4:	08 00 00 02 
  409aa8:	51 00 00 00 	ori $5,$5,512
  409aac:	00 02 05 05 
  409ab0:	43 00 00 00 	addiu $6,$0,438
  409ab4:	b6 01 06 00 
  409ab8:	02 00 00 00 	jal 40ff10 <__open>
  409abc:	c4 3f 10 00 
  409ac0:	01 00 00 00 	j 409ad0 <__stdio_open+0xe0>
  409ac4:	b4 26 10 00 
  409ac8:	02 00 00 00 	jal 40ff10 <__open>
  409acc:	c4 3f 10 00 
  409ad0:	09 00 00 00 	bltz $2,409af0 <__stdio_open+0x100>
  409ad4:	06 00 00 02 
  409ad8:	34 00 00 00 	sw $2,0($16)
  409adc:	00 00 02 10 
  409ae0:	42 00 00 00 	addu $2,$0,$0
  409ae4:	00 02 00 00 
  409ae8:	01 00 00 00 	j 409af8 <__stdio_open+0x108>
  409aec:	be 26 10 00 
  409af0:	43 00 00 00 	addiu $2,$0,-1
  409af4:	ff ff 02 00 
  409af8:	28 00 00 00 	lw $31,20($29)
  409afc:	14 00 1f 1d 
  409b00:	28 00 00 00 	lw $16,16($29)
  409b04:	10 00 10 1d 
  409b08:	43 00 00 00 	addiu $29,$29,24
  409b0c:	18 00 1d 1d 
  409b10:	03 00 00 00 	jr $31
  409b14:	00 00 00 1f 

00409b18 <__stdio_reopen>:
  409b18:	43 00 00 00 	addiu $29,$29,-48
  409b1c:	d0 ff 1d 1d 
  409b20:	34 00 00 00 	sw $17,28($29)
  409b24:	1c 00 11 1d 
  409b28:	42 00 00 00 	addu $17,$0,$4
  409b2c:	00 11 04 00 
  409b30:	34 00 00 00 	sw $16,24($29)
  409b34:	18 00 10 1d 
  409b38:	42 00 00 00 	addu $16,$0,$5
  409b3c:	00 10 05 00 
  409b40:	34 00 00 00 	sw $18,32($29)
  409b44:	20 00 12 1d 
  409b48:	42 00 00 00 	addu $18,$0,$6
  409b4c:	00 12 06 00 
  409b50:	34 00 00 00 	sw $20,40($29)
  409b54:	28 00 14 1d 
  409b58:	42 00 00 00 	addu $20,$0,$7
  409b5c:	00 14 07 00 
  409b60:	34 00 00 00 	sw $19,36($29)
  409b64:	24 00 13 1d 
  409b68:	43 00 00 00 	addiu $19,$29,16
  409b6c:	10 00 13 1d 
  409b70:	4f 00 00 00 	andi $3,$16,3
  409b74:	03 00 03 10 
  409b78:	43 00 00 00 	addiu $2,$0,3
  409b7c:	03 00 02 00 
  409b80:	34 00 00 00 	sw $31,44($29)
  409b84:	2c 00 1f 1d 
  409b88:	06 00 00 00 	bne $3,$2,409ba0 <__stdio_reopen+0x88>
  409b8c:	04 00 02 03 
  409b90:	43 00 00 00 	addiu $5,$0,2
  409b94:	02 00 05 00 
  409b98:	01 00 00 00 	j 409bb0 <__stdio_reopen+0x98>
  409b9c:	ec 26 10 00 
  409ba0:	53 00 00 00 	xori $5,$16,1
  409ba4:	01 00 05 10 
  409ba8:	4f 00 00 00 	andi $5,$5,1
  409bac:	01 00 05 05 
  409bb0:	4f 00 00 00 	andi $2,$16,4
  409bb4:	04 00 02 10 
  409bb8:	05 00 00 00 	beq $2,$0,409bc8 <__stdio_reopen+0xb0>
  409bbc:	02 00 00 02 
  409bc0:	51 00 00 00 	ori $5,$5,8
  409bc4:	08 00 05 05 
  409bc8:	4f 00 00 00 	andi $2,$16,32
  409bcc:	20 00 02 10 
  409bd0:	05 00 00 00 	beq $2,$0,409be0 <__stdio_reopen+0xc8>
  409bd4:	02 00 00 02 
  409bd8:	51 00 00 00 	ori $5,$5,2048
  409bdc:	00 08 05 05 
  409be0:	4f 00 00 00 	andi $2,$16,64
  409be4:	40 00 02 10 
  409be8:	05 00 00 00 	beq $2,$0,409bf8 <__stdio_reopen+0xe0>
  409bec:	02 00 00 02 
  409bf0:	51 00 00 00 	ori $5,$5,1024
  409bf4:	00 04 05 05 
  409bf8:	4f 00 00 00 	andi $2,$16,16
  409bfc:	10 00 02 10 
  409c00:	05 00 00 00 	beq $2,$0,409c30 <__stdio_reopen+0x118>
  409c04:	0a 00 00 02 
  409c08:	42 00 00 00 	addu $4,$0,$17
  409c0c:	00 04 11 00 
  409c10:	51 00 00 00 	ori $5,$5,512
  409c14:	00 02 05 05 
  409c18:	43 00 00 00 	addiu $6,$0,438
  409c1c:	b6 01 06 00 
  409c20:	02 00 00 00 	jal 40ff10 <__open>
  409c24:	c4 3f 10 00 
  409c28:	01 00 00 00 	j 409c40 <__stdio_reopen+0x128>
  409c2c:	10 27 10 00 
  409c30:	42 00 00 00 	addu $4,$0,$17
  409c34:	00 04 11 00 
  409c38:	02 00 00 00 	jal 40ff10 <__open>
  409c3c:	c4 3f 10 00 
  409c40:	0a 00 00 00 	bgez $2,409c58 <__stdio_reopen+0x140>
  409c44:	04 00 00 02 
  409c48:	43 00 00 00 	addiu $2,$0,-1
  409c4c:	ff ff 02 00 
  409c50:	01 00 00 00 	j 409c68 <__stdio_reopen+0x150>
  409c54:	1a 27 10 00 
  409c58:	34 00 00 00 	sw $2,0($19)
  409c5c:	00 00 02 13 
  409c60:	42 00 00 00 	addu $2,$0,$0
  409c64:	00 02 00 00 
  409c68:	05 00 00 00 	beq $2,$0,409db0 <__stdio_reopen+0x298>
  409c6c:	50 00 00 02 
  409c70:	28 00 00 00 	lw $2,-32416($28)
  409c74:	60 81 02 1c 
  409c78:	43 00 00 00 	addiu $2,$2,-23
  409c7c:	e9 ff 02 02 
  409c80:	5e 00 00 00 	sltiu $2,$2,2
  409c84:	02 00 02 02 
  409c88:	05 00 00 00 	beq $2,$0,409db0 <__stdio_reopen+0x298>
  409c8c:	48 00 00 02 
  409c90:	28 00 00 00 	lw $4,0($18)
  409c94:	00 00 04 12 
  409c98:	04 00 00 00 	jalr $31,$20
  409c9c:	00 1f 00 14 
  409ca0:	43 00 00 00 	addiu $19,$29,16
  409ca4:	10 00 13 1d 
  409ca8:	4f 00 00 00 	andi $3,$16,3
  409cac:	03 00 03 10 
  409cb0:	43 00 00 00 	addiu $2,$0,3
  409cb4:	03 00 02 00 
  409cb8:	06 00 00 00 	bne $3,$2,409cd0 <__stdio_reopen+0x1b8>
  409cbc:	04 00 02 03 
  409cc0:	43 00 00 00 	addiu $5,$0,2
  409cc4:	02 00 05 00 
  409cc8:	01 00 00 00 	j 409ce0 <__stdio_reopen+0x1c8>
  409ccc:	38 27 10 00 
  409cd0:	53 00 00 00 	xori $5,$16,1
  409cd4:	01 00 05 10 
  409cd8:	4f 00 00 00 	andi $5,$5,1
  409cdc:	01 00 05 05 
  409ce0:	4f 00 00 00 	andi $2,$16,4
  409ce4:	04 00 02 10 
  409ce8:	05 00 00 00 	beq $2,$0,409cf8 <__stdio_reopen+0x1e0>
  409cec:	02 00 00 02 
  409cf0:	51 00 00 00 	ori $5,$5,8
  409cf4:	08 00 05 05 
  409cf8:	4f 00 00 00 	andi $2,$16,32
  409cfc:	20 00 02 10 
  409d00:	05 00 00 00 	beq $2,$0,409d10 <__stdio_reopen+0x1f8>
  409d04:	02 00 00 02 
  409d08:	51 00 00 00 	ori $5,$5,2048
  409d0c:	00 08 05 05 
  409d10:	4f 00 00 00 	andi $2,$16,64
  409d14:	40 00 02 10 
  409d18:	05 00 00 00 	beq $2,$0,409d28 <__stdio_reopen+0x210>
  409d1c:	02 00 00 02 
  409d20:	51 00 00 00 	ori $5,$5,1024
  409d24:	00 04 05 05 
  409d28:	4f 00 00 00 	andi $2,$16,16
  409d2c:	10 00 02 10 
  409d30:	05 00 00 00 	beq $2,$0,409d60 <__stdio_reopen+0x248>
  409d34:	0a 00 00 02 
  409d38:	42 00 00 00 	addu $4,$0,$17
  409d3c:	00 04 11 00 
  409d40:	51 00 00 00 	ori $5,$5,512
  409d44:	00 02 05 05 
  409d48:	43 00 00 00 	addiu $6,$0,438
  409d4c:	b6 01 06 00 
  409d50:	02 00 00 00 	jal 40ff10 <__open>
  409d54:	c4 3f 10 00 
  409d58:	01 00 00 00 	j 409d70 <__stdio_reopen+0x258>
  409d5c:	5c 27 10 00 
  409d60:	42 00 00 00 	addu $4,$0,$17
  409d64:	00 04 11 00 
  409d68:	02 00 00 00 	jal 40ff10 <__open>
  409d6c:	c4 3f 10 00 
  409d70:	0a 00 00 00 	bgez $2,409d88 <__stdio_reopen+0x270>
  409d74:	04 00 00 02 
  409d78:	43 00 00 00 	addiu $2,$0,-1
  409d7c:	ff ff 02 00 
  409d80:	01 00 00 00 	j 409d98 <__stdio_reopen+0x280>
  409d84:	66 27 10 00 
  409d88:	34 00 00 00 	sw $2,0($19)
  409d8c:	00 00 02 13 
  409d90:	42 00 00 00 	addu $2,$0,$0
  409d94:	00 02 00 00 
  409d98:	05 00 00 00 	beq $2,$0,409db0 <__stdio_reopen+0x298>
  409d9c:	04 00 00 02 
  409da0:	43 00 00 00 	addiu $2,$0,-1
  409da4:	ff ff 02 00 
  409da8:	01 00 00 00 	j 409e08 <__stdio_reopen+0x2f0>
  409dac:	82 27 10 00 
  409db0:	28 00 00 00 	lw $4,16($29)
  409db4:	10 00 04 1d 
  409db8:	28 00 00 00 	lw $5,0($18)
  409dbc:	00 00 05 12 
  409dc0:	05 00 00 00 	beq $4,$5,409e00 <__stdio_reopen+0x2e8>
  409dc4:	0e 00 05 04 
  409dc8:	a2 00 00 00 	lui $2,65
  409dcc:	41 00 02 00 
  409dd0:	43 00 00 00 	addiu $2,$2,-26192
  409dd4:	b0 99 02 02 
  409dd8:	06 00 00 00 	bne $20,$2,409df0 <__stdio_reopen+0x2d8>
  409ddc:	04 00 02 14 
  409de0:	02 00 00 00 	jal 40ff50 <__dup2>
  409de4:	d4 3f 10 00 
  409de8:	0a 00 00 00 	bgez $2,409e00 <__stdio_reopen+0x2e8>
  409dec:	04 00 00 02 
  409df0:	28 00 00 00 	lw $2,16($29)
  409df4:	10 00 02 1d 
  409df8:	34 00 00 00 	sw $2,0($18)
  409dfc:	00 00 02 12 
  409e00:	42 00 00 00 	addu $2,$0,$0
  409e04:	00 02 00 00 
  409e08:	28 00 00 00 	lw $31,44($29)
  409e0c:	2c 00 1f 1d 
  409e10:	28 00 00 00 	lw $20,40($29)
  409e14:	28 00 14 1d 
  409e18:	28 00 00 00 	lw $19,36($29)
  409e1c:	24 00 13 1d 
  409e20:	28 00 00 00 	lw $18,32($29)
  409e24:	20 00 12 1d 
  409e28:	28 00 00 00 	lw $17,28($29)
  409e2c:	1c 00 11 1d 
  409e30:	28 00 00 00 	lw $16,24($29)
  409e34:	18 00 10 1d 
  409e38:	43 00 00 00 	addiu $29,$29,48
  409e3c:	30 00 1d 1d 
  409e40:	03 00 00 00 	jr $31
  409e44:	00 00 00 1f 
	...

00409e50 <register_printf_function>:
  409e50:	42 00 00 00 	addu $3,$0,$4
  409e54:	00 03 04 00 
  409e58:	5e 00 00 00 	sltiu $2,$3,256
  409e5c:	00 01 02 03 
  409e60:	05 00 00 00 	beq $2,$0,409ec0 <register_printf_function+0x70>
  409e64:	16 00 00 02 
  409e68:	42 00 00 00 	addu $2,$0,$0
  409e6c:	00 02 00 00 
  409e70:	a2 00 00 00 	lui $4,4096
  409e74:	00 10 04 00 
  409e78:	43 00 00 00 	addiu $4,$4,8272
  409e7c:	50 20 04 04 
  409e80:	55 00 00 00 	sll $3,$3,0x2
  409e84:	02 03 03 00 
  409e88:	a2 00 00 00 	lui $1,4096
  409e8c:	00 10 01 00 
  409e90:	42 00 00 00 	addu $1,$1,$3
  409e94:	00 01 03 01 
  409e98:	34 00 00 00 	sw $6,9392($1)
  409e9c:	b0 24 06 01 
  409ea0:	42 00 00 00 	addu $3,$3,$4
  409ea4:	00 03 04 03 
  409ea8:	34 00 00 00 	sw $4,-32320($28)
  409eac:	c0 81 04 1c 
  409eb0:	34 00 00 00 	sw $5,0($3)
  409eb4:	00 00 05 03 
  409eb8:	01 00 00 00 	j 409ed8 <register_printf_function+0x88>
  409ebc:	b6 27 10 00 
  409ec0:	43 00 00 00 	addiu $2,$0,22
  409ec4:	16 00 02 00 
  409ec8:	34 00 00 00 	sw $2,-32416($28)
  409ecc:	60 81 02 1c 
  409ed0:	43 00 00 00 	addiu $2,$0,-1
  409ed4:	ff ff 02 00 
  409ed8:	03 00 00 00 	jr $31
  409edc:	00 00 00 1f 

00409ee0 <mbtowc>:
  409ee0:	43 00 00 00 	addiu $29,$29,-48
  409ee4:	d0 ff 1d 1d 
  409ee8:	34 00 00 00 	sw $21,36($29)
  409eec:	24 00 15 1d 
  409ef0:	42 00 00 00 	addu $21,$0,$4
  409ef4:	00 15 04 00 
  409ef8:	34 00 00 00 	sw $19,28($29)
  409efc:	1c 00 13 1d 
  409f00:	42 00 00 00 	addu $19,$0,$5
  409f04:	00 13 05 00 
  409f08:	34 00 00 00 	sw $20,32($29)
  409f0c:	20 00 14 1d 
  409f10:	42 00 00 00 	addu $20,$0,$6
  409f14:	00 14 06 00 
  409f18:	34 00 00 00 	sw $31,40($29)
  409f1c:	28 00 1f 1d 
  409f20:	34 00 00 00 	sw $18,24($29)
  409f24:	18 00 12 1d 
  409f28:	34 00 00 00 	sw $17,20($29)
  409f2c:	14 00 11 1d 
  409f30:	34 00 00 00 	sw $16,16($29)
  409f34:	10 00 10 1d 
  409f38:	06 00 00 00 	bne $19,$0,409f58 <mbtowc+0x78>
  409f3c:	06 00 00 13 
  409f40:	28 00 00 00 	lw $2,-32560($28)
  409f44:	d0 80 02 1c 
  409f48:	5d 00 00 00 	sltu $2,$0,$2
  409f4c:	00 02 02 00 
  409f50:	01 00 00 00 	j 40a0c0 <mbtowc+0x1e0>
  409f54:	30 28 10 00 
  409f58:	20 00 00 00 	lb $2,0($19)
  409f5c:	00 00 02 13 
  409f60:	06 00 00 00 	bne $2,$0,409f78 <mbtowc+0x98>
  409f64:	04 00 00 02 
  409f68:	42 00 00 00 	addu $2,$0,$0
  409f6c:	00 02 00 00 
  409f70:	01 00 00 00 	j 40a0c0 <mbtowc+0x1e0>
  409f74:	30 28 10 00 
  409f78:	28 00 00 00 	lw $2,-32504($28)
  409f7c:	08 81 02 1c 
  409f80:	28 00 00 00 	lw $2,4($2)
  409f84:	04 00 02 02 
  409f88:	05 00 00 00 	beq $2,$0,40a0b8 <mbtowc+0x1d8>
  409f8c:	4a 00 00 02 
  409f90:	28 00 00 00 	lw $2,4($2)
  409f94:	04 00 02 02 
  409f98:	05 00 00 00 	beq $2,$0,40a0b8 <mbtowc+0x1d8>
  409f9c:	46 00 00 02 
  409fa0:	5e 00 00 00 	sltiu $2,$20,2
  409fa4:	02 00 02 14 
  409fa8:	06 00 00 00 	bne $2,$0,409fb8 <mbtowc+0xd8>
  409fac:	02 00 00 02 
  409fb0:	43 00 00 00 	addiu $20,$0,1
  409fb4:	01 00 14 00 
  409fb8:	42 00 00 00 	addu $17,$0,$0
  409fbc:	00 11 00 00 
  409fc0:	42 00 00 00 	addu $18,$0,$0
  409fc4:	00 12 00 00 
  409fc8:	28 00 00 00 	lw $2,-32504($28)
  409fcc:	08 81 02 1c 
  409fd0:	28 00 00 00 	lw $2,4($2)
  409fd4:	04 00 02 02 
  409fd8:	28 00 00 00 	lw $2,4($2)
  409fdc:	04 00 02 02 
  409fe0:	42 00 00 00 	addu $16,$18,$2
  409fe4:	00 10 02 12 
  409fe8:	43 00 00 00 	addiu $2,$17,1
  409fec:	01 00 02 11 
  409ff0:	5e 00 00 00 	sltiu $2,$2,2
  409ff4:	02 00 02 02 
  409ff8:	06 00 00 00 	bne $2,$0,40a098 <mbtowc+0x1b8>
  409ffc:	26 00 00 02 
  40a000:	4f 00 00 00 	andi $2,$17,128
  40a004:	80 00 02 11 
  40a008:	05 00 00 00 	beq $2,$0,40a098 <mbtowc+0x1b8>
  40a00c:	22 00 00 02 
  40a010:	28 00 00 00 	lw $4,0($16)
  40a014:	00 00 04 10 
  40a018:	05 00 00 00 	beq $4,$0,40a098 <mbtowc+0x1b8>
  40a01c:	1e 00 00 04 
  40a020:	28 00 00 00 	lw $6,4($16)
  40a024:	04 00 06 10 
  40a028:	05 00 00 00 	beq $6,$0,40a098 <mbtowc+0x1b8>
  40a02c:	1a 00 00 06 
  40a030:	5d 00 00 00 	sltu $2,$20,$6
  40a034:	00 02 06 14 
  40a038:	06 00 00 00 	bne $2,$0,40a098 <mbtowc+0x1b8>
  40a03c:	16 00 00 02 
  40a040:	42 00 00 00 	addu $5,$0,$19
  40a044:	00 05 13 00 
  40a048:	02 00 00 00 	jal 40ff80 <strncmp>
  40a04c:	e0 3f 10 00 
  40a050:	06 00 00 00 	bne $2,$0,40a098 <mbtowc+0x1b8>
  40a054:	10 00 00 02 
  40a058:	28 00 00 00 	lw $2,-32560($28)
  40a05c:	d0 80 02 1c 
  40a060:	28 00 00 00 	lw $3,8($16)
  40a064:	08 00 03 10 
  40a068:	42 00 00 00 	addu $2,$2,$3
  40a06c:	00 02 03 02 
  40a070:	34 00 00 00 	sw $2,-32560($28)
  40a074:	d0 80 02 1c 
  40a078:	05 00 00 00 	beq $21,$0,40a088 <mbtowc+0x1a8>
  40a07c:	02 00 00 15 
  40a080:	34 00 00 00 	sw $17,0($21)
  40a084:	00 00 11 15 
  40a088:	28 00 00 00 	lw $2,4($16)
  40a08c:	04 00 02 10 
  40a090:	01 00 00 00 	j 40a0c0 <mbtowc+0x1e0>
  40a094:	30 28 10 00 
  40a098:	43 00 00 00 	addiu $18,$18,12
  40a09c:	0c 00 12 12 
  40a0a0:	43 00 00 00 	addiu $17,$17,1
  40a0a4:	01 00 11 11 
  40a0a8:	5c 00 00 00 	slti $2,$17,255
  40a0ac:	ff 00 02 11 
  40a0b0:	06 00 00 00 	bne $2,$0,409fc8 <mbtowc+0xe8>
  40a0b4:	c4 ff 00 02 
  40a0b8:	43 00 00 00 	addiu $2,$0,-1
  40a0bc:	ff ff 02 00 
  40a0c0:	28 00 00 00 	lw $31,40($29)
  40a0c4:	28 00 1f 1d 
  40a0c8:	28 00 00 00 	lw $21,36($29)
  40a0cc:	24 00 15 1d 
  40a0d0:	28 00 00 00 	lw $20,32($29)
  40a0d4:	20 00 14 1d 
  40a0d8:	28 00 00 00 	lw $19,28($29)
  40a0dc:	1c 00 13 1d 
  40a0e0:	28 00 00 00 	lw $18,24($29)
  40a0e4:	18 00 12 1d 
  40a0e8:	28 00 00 00 	lw $17,20($29)
  40a0ec:	14 00 11 1d 
  40a0f0:	28 00 00 00 	lw $16,16($29)
  40a0f4:	10 00 10 1d 
  40a0f8:	43 00 00 00 	addiu $29,$29,48
  40a0fc:	30 00 1d 1d 
  40a100:	03 00 00 00 	jr $31
  40a104:	00 00 00 1f 
	...

0040a110 <strlen>:
  40a110:	43 00 00 00 	addiu $29,$29,-16
  40a114:	f0 ff 1d 1d 
  40a118:	42 00 00 00 	addu $3,$0,$4
  40a11c:	00 03 04 00 
  40a120:	4f 00 00 00 	andi $2,$4,3
  40a124:	03 00 02 04 
  40a128:	05 00 00 00 	beq $2,$0,40a158 <strlen+0x48>
  40a12c:	0a 00 00 02 
  40a130:	20 00 00 00 	lb $2,0($3)
  40a134:	00 00 02 03 
  40a138:	05 00 00 00 	beq $2,$0,40a228 <strlen+0x118>
  40a13c:	3a 00 00 02 
  40a140:	43 00 00 00 	addiu $3,$3,1
  40a144:	01 00 03 03 
  40a148:	4f 00 00 00 	andi $2,$3,3
  40a14c:	03 00 02 03 
  40a150:	06 00 00 00 	bne $2,$0,40a130 <strlen+0x20>
  40a154:	f6 ff 00 02 
  40a158:	a2 00 00 00 	lui $7,32896
  40a15c:	80 80 07 00 
  40a160:	51 00 00 00 	ori $7,$7,32896
  40a164:	80 80 07 07 
  40a168:	a2 00 00 00 	lui $6,257
  40a16c:	01 01 06 00 
  40a170:	51 00 00 00 	ori $6,$6,257
  40a174:	01 01 06 06 
  40a178:	28 00 00 00 	lw $2,0($3)
  40a17c:	00 00 02 03 
  40a180:	43 00 00 00 	addiu $3,$3,4
  40a184:	04 00 03 03 
  40a188:	45 00 00 00 	subu $2,$2,$6
  40a18c:	00 02 06 02 
  40a190:	4e 00 00 00 	and $2,$2,$7
  40a194:	00 02 07 02 
  40a198:	05 00 00 00 	beq $2,$0,40a178 <strlen+0x68>
  40a19c:	f6 ff 00 02 
  40a1a0:	20 00 00 00 	lb $2,-4($3)
  40a1a4:	fc ff 02 03 
  40a1a8:	43 00 00 00 	addiu $5,$3,-4
  40a1ac:	fc ff 05 03 
  40a1b0:	06 00 00 00 	bne $2,$0,40a1c8 <strlen+0xb8>
  40a1b4:	04 00 00 02 
  40a1b8:	45 00 00 00 	subu $2,$5,$4
  40a1bc:	00 02 04 05 
  40a1c0:	01 00 00 00 	j 40a248 <strlen+0x138>
  40a1c4:	92 28 10 00 
  40a1c8:	20 00 00 00 	lb $2,-3($3)
  40a1cc:	fd ff 02 03 
  40a1d0:	06 00 00 00 	bne $2,$0,40a1f0 <strlen+0xe0>
  40a1d4:	06 00 00 02 
  40a1d8:	45 00 00 00 	subu $2,$5,$4
  40a1dc:	00 02 04 05 
  40a1e0:	43 00 00 00 	addiu $2,$2,1
  40a1e4:	01 00 02 02 
  40a1e8:	01 00 00 00 	j 40a248 <strlen+0x138>
  40a1ec:	92 28 10 00 
  40a1f0:	20 00 00 00 	lb $2,-2($3)
  40a1f4:	fe ff 02 03 
  40a1f8:	05 00 00 00 	beq $2,$0,40a238 <strlen+0x128>
  40a1fc:	0e 00 00 02 
  40a200:	20 00 00 00 	lb $2,-1($3)
  40a204:	ff ff 02 03 
  40a208:	06 00 00 00 	bne $2,$0,40a178 <strlen+0x68>
  40a20c:	da ff 00 02 
  40a210:	45 00 00 00 	subu $2,$5,$4
  40a214:	00 02 04 05 
  40a218:	43 00 00 00 	addiu $2,$2,3
  40a21c:	03 00 02 02 
  40a220:	01 00 00 00 	j 40a248 <strlen+0x138>
  40a224:	92 28 10 00 
  40a228:	45 00 00 00 	subu $2,$3,$4
  40a22c:	00 02 04 03 
  40a230:	01 00 00 00 	j 40a248 <strlen+0x138>
  40a234:	92 28 10 00 
  40a238:	45 00 00 00 	subu $2,$5,$4
  40a23c:	00 02 04 05 
  40a240:	43 00 00 00 	addiu $2,$2,2
  40a244:	02 00 02 02 
  40a248:	43 00 00 00 	addiu $29,$29,16
  40a24c:	10 00 1d 1d 
  40a250:	03 00 00 00 	jr $31
  40a254:	00 00 00 1f 
	...

0040a260 <strchr>:
  40a260:	43 00 00 00 	addiu $29,$29,-16
  40a264:	f0 ff 1d 1d 
  40a268:	4f 00 00 00 	andi $5,$5,255
  40a26c:	ff 00 05 05 
  40a270:	4f 00 00 00 	andi $2,$4,3
  40a274:	03 00 02 04 
  40a278:	05 00 00 00 	beq $2,$0,40a2b0 <strchr+0x50>
  40a27c:	0c 00 00 02 
  40a280:	22 00 00 00 	lbu $2,0($4)
  40a284:	00 00 02 04 
  40a288:	05 00 00 00 	beq $2,$5,40a3d8 <strchr+0x178>
  40a28c:	52 00 05 02 
  40a290:	05 00 00 00 	beq $2,$0,40a3e8 <strchr+0x188>
  40a294:	54 00 00 02 
  40a298:	43 00 00 00 	addiu $4,$4,1
  40a29c:	01 00 04 04 
  40a2a0:	4f 00 00 00 	andi $2,$4,3
  40a2a4:	03 00 02 04 
  40a2a8:	06 00 00 00 	bne $2,$0,40a280 <strchr+0x20>
  40a2ac:	f4 ff 00 02 
  40a2b0:	a2 00 00 00 	lui $8,32510
  40a2b4:	fe 7e 08 00 
  40a2b8:	51 00 00 00 	ori $8,$8,65279
  40a2bc:	ff fe 08 08 
  40a2c0:	55 00 00 00 	sll $2,$5,0x8
  40a2c4:	08 02 05 00 
  40a2c8:	50 00 00 00 	or $9,$5,$2
  40a2cc:	00 09 02 05 
  40a2d0:	55 00 00 00 	sll $2,$9,0x10
  40a2d4:	10 02 09 00 
  40a2d8:	50 00 00 00 	or $9,$9,$2
  40a2dc:	00 09 02 09 
  40a2e0:	28 00 00 00 	lw $6,0($4)
  40a2e4:	00 00 06 04 
  40a2e8:	54 00 00 00 	nor $7,$0,$8
  40a2ec:	00 07 08 00 
  40a2f0:	43 00 00 00 	addiu $4,$4,4
  40a2f4:	04 00 04 04 
  40a2f8:	42 00 00 00 	addu $3,$6,$8
  40a2fc:	00 03 08 06 
  40a300:	54 00 00 00 	nor $2,$0,$6
  40a304:	00 02 06 00 
  40a308:	52 00 00 00 	xor $3,$3,$2
  40a30c:	00 03 02 03 
  40a310:	4e 00 00 00 	and $3,$3,$7
  40a314:	00 03 07 03 
  40a318:	06 00 00 00 	bne $3,$0,40a350 <strchr+0xf0>
  40a31c:	0c 00 00 03 
  40a320:	52 00 00 00 	xor $2,$6,$9
  40a324:	00 02 09 06 
  40a328:	42 00 00 00 	addu $3,$2,$8
  40a32c:	00 03 08 02 
  40a330:	54 00 00 00 	nor $2,$0,$2
  40a334:	00 02 02 00 
  40a338:	52 00 00 00 	xor $3,$3,$2
  40a33c:	00 03 02 03 
  40a340:	4e 00 00 00 	and $3,$3,$7
  40a344:	00 03 07 03 
  40a348:	05 00 00 00 	beq $3,$0,40a2e0 <strchr+0x80>
  40a34c:	e4 ff 00 03 
  40a350:	22 00 00 00 	lbu $3,-4($4)
  40a354:	fc ff 03 04 
  40a358:	43 00 00 00 	addiu $2,$4,-4
  40a35c:	fc ff 02 04 
  40a360:	05 00 00 00 	beq $3,$5,40a3f0 <strchr+0x190>
  40a364:	22 00 05 03 
  40a368:	05 00 00 00 	beq $3,$0,40a3e8 <strchr+0x188>
  40a36c:	1e 00 00 03 
  40a370:	22 00 00 00 	lbu $3,-3($4)
  40a374:	fd ff 03 04 
  40a378:	43 00 00 00 	addiu $2,$4,-3
  40a37c:	fd ff 02 04 
  40a380:	05 00 00 00 	beq $3,$5,40a3f0 <strchr+0x190>
  40a384:	1a 00 05 03 
  40a388:	05 00 00 00 	beq $3,$0,40a3e8 <strchr+0x188>
  40a38c:	16 00 00 03 
  40a390:	22 00 00 00 	lbu $3,-2($4)
  40a394:	fe ff 03 04 
  40a398:	43 00 00 00 	addiu $2,$4,-2
  40a39c:	fe ff 02 04 
  40a3a0:	05 00 00 00 	beq $3,$5,40a3f0 <strchr+0x190>
  40a3a4:	12 00 05 03 
  40a3a8:	05 00 00 00 	beq $3,$0,40a3e8 <strchr+0x188>
  40a3ac:	0e 00 00 03 
  40a3b0:	22 00 00 00 	lbu $3,-1($4)
  40a3b4:	ff ff 03 04 
  40a3b8:	43 00 00 00 	addiu $2,$4,-1
  40a3bc:	ff ff 02 04 
  40a3c0:	05 00 00 00 	beq $3,$5,40a3f0 <strchr+0x190>
  40a3c4:	0a 00 05 03 
  40a3c8:	06 00 00 00 	bne $3,$0,40a2e0 <strchr+0x80>
  40a3cc:	c4 ff 00 03 
  40a3d0:	01 00 00 00 	j 40a3e8 <strchr+0x188>
  40a3d4:	fa 28 10 00 
  40a3d8:	42 00 00 00 	addu $2,$0,$4
  40a3dc:	00 02 04 00 
  40a3e0:	01 00 00 00 	j 40a3f0 <strchr+0x190>
  40a3e4:	fc 28 10 00 
  40a3e8:	42 00 00 00 	addu $2,$0,$0
  40a3ec:	00 02 00 00 
  40a3f0:	43 00 00 00 	addiu $29,$29,16
  40a3f4:	10 00 1d 1d 
  40a3f8:	03 00 00 00 	jr $31
  40a3fc:	00 00 00 1f 

0040a400 <fwrite>:
  40a400:	43 00 00 00 	addiu $29,$29,-56
  40a404:	c8 ff 1d 1d 
  40a408:	34 00 00 00 	sw $23,44($29)
  40a40c:	2c 00 17 1d 
  40a410:	42 00 00 00 	addu $23,$0,$5
  40a414:	00 17 05 00 
  40a418:	46 00 00 00 	mult $23,$6
  40a41c:	00 00 06 17 
  40a420:	34 00 00 00 	sw $19,28($29)
  40a424:	1c 00 13 1d 
  40a428:	4c 00 00 00 	mflo $19
  40a42c:	00 13 00 00 
  40a430:	34 00 00 00 	sw $17,20($29)
  40a434:	14 00 11 1d 
  40a438:	42 00 00 00 	addu $17,$0,$7
  40a43c:	00 11 07 00 
  40a440:	34 00 00 00 	sw $20,32($29)
  40a444:	20 00 14 1d 
  40a448:	42 00 00 00 	addu $20,$0,$4
  40a44c:	00 14 04 00 
  40a450:	34 00 00 00 	sw $21,36($29)
  40a454:	24 00 15 1d 
  40a458:	42 00 00 00 	addu $21,$0,$0
  40a45c:	00 15 00 00 
  40a460:	34 00 00 00 	sw $31,52($29)
  40a464:	34 00 1f 1d 
  40a468:	34 00 00 00 	sw $30,48($29)
  40a46c:	30 00 1e 1d 
  40a470:	34 00 00 00 	sw $22,40($29)
  40a474:	28 00 16 1d 
  40a478:	34 00 00 00 	sw $18,24($29)
  40a47c:	18 00 12 1d 
  40a480:	34 00 00 00 	sw $16,16($29)
  40a484:	10 00 10 1d 
  40a488:	05 00 00 00 	beq $17,$0,40a4f8 <fwrite+0xf8>
  40a48c:	1a 00 00 11 
  40a490:	28 00 00 00 	lw $3,0($17)
  40a494:	00 00 03 11 
  40a498:	a2 00 00 00 	lui $2,65261
  40a49c:	ed fe 02 00 
  40a4a0:	51 00 00 00 	ori $2,$2,47806
  40a4a4:	be ba 02 02 
  40a4a8:	06 00 00 00 	bne $3,$2,40a4c0 <fwrite+0xc0>
  40a4ac:	04 00 02 03 
  40a4b0:	28 00 00 00 	lw $2,4($17)
  40a4b4:	04 00 02 11 
  40a4b8:	28 00 00 00 	lw $17,0($2)
  40a4bc:	00 00 11 02 
  40a4c0:	28 00 00 00 	lw $3,0($17)
  40a4c4:	00 00 03 11 
  40a4c8:	a2 00 00 00 	lui $2,65242
  40a4cc:	da fe 02 00 
  40a4d0:	51 00 00 00 	ori $2,$2,48875
  40a4d4:	eb be 02 02 
  40a4d8:	06 00 00 00 	bne $3,$2,40a4f8 <fwrite+0xf8>
  40a4dc:	06 00 02 03 
  40a4e0:	28 00 00 00 	lw $2,28($17)
  40a4e4:	1c 00 02 11 
  40a4e8:	4f 00 00 00 	andi $2,$2,2
  40a4ec:	02 00 02 02 
  40a4f0:	06 00 00 00 	bne $2,$0,40a518 <fwrite+0x118>
  40a4f4:	08 00 00 02 
  40a4f8:	43 00 00 00 	addiu $2,$0,22
  40a4fc:	16 00 02 00 
  40a500:	34 00 00 00 	sw $2,-32416($28)
  40a504:	60 81 02 1c 
  40a508:	42 00 00 00 	addu $2,$0,$0
  40a50c:	00 02 00 00 
  40a510:	01 00 00 00 	j 40aa80 <fwrite+0x680>
  40a514:	a0 2a 10 00 
  40a518:	28 00 00 00 	lw $3,76($17)
  40a51c:	4c 00 03 11 
  40a520:	4f 00 00 00 	andi $2,$3,1024
  40a524:	00 04 02 03 
  40a528:	06 00 00 00 	bne $2,$0,40a508 <fwrite+0x108>
  40a52c:	f6 ff 00 02 
  40a530:	05 00 00 00 	beq $20,$0,40a508 <fwrite+0x108>
  40a534:	f4 ff 00 14 
  40a538:	05 00 00 00 	beq $19,$0,40a508 <fwrite+0x108>
  40a53c:	f2 ff 00 13 
  40a540:	4f 00 00 00 	andi $2,$3,16384
  40a544:	00 40 02 03 
  40a548:	05 00 00 00 	beq $2,$0,40a568 <fwrite+0x168>
  40a54c:	06 00 00 02 
  40a550:	28 00 00 00 	lw $3,12($17)
  40a554:	0c 00 03 11 
  40a558:	28 00 00 00 	lw $2,16($17)
  40a55c:	10 00 02 11 
  40a560:	06 00 00 00 	bne $3,$2,40a5c0 <fwrite+0x1c0>
  40a564:	16 00 02 03 
  40a568:	22 00 00 00 	lbu $5,0($20)
  40a56c:	00 00 05 14 
  40a570:	42 00 00 00 	addu $4,$0,$17
  40a574:	00 04 11 00 
  40a578:	43 00 00 00 	addiu $20,$20,1
  40a57c:	01 00 14 14 
  40a580:	02 00 00 00 	jal 408380 <__flshfp>
  40a584:	e0 20 10 00 
  40a588:	43 00 00 00 	addiu $3,$0,-1
  40a58c:	ff ff 03 00 
  40a590:	05 00 00 00 	beq $2,$3,40a508 <fwrite+0x108>
  40a594:	dc ff 03 02 
  40a598:	43 00 00 00 	addiu $19,$19,-1
  40a59c:	ff ff 13 13 
  40a5a0:	06 00 00 00 	bne $19,$0,40a5b8 <fwrite+0x1b8>
  40a5a4:	04 00 00 13 
  40a5a8:	43 00 00 00 	addiu $2,$0,1
  40a5ac:	01 00 02 00 
  40a5b0:	01 00 00 00 	j 40aa80 <fwrite+0x680>
  40a5b4:	a0 2a 10 00 
  40a5b8:	43 00 00 00 	addiu $21,$0,1
  40a5bc:	01 00 15 00 
  40a5c0:	28 00 00 00 	lw $2,56($17)
  40a5c4:	38 00 02 11 
  40a5c8:	a2 00 00 00 	lui $3,4096
  40a5cc:	00 10 03 00 
  40a5d0:	28 00 00 00 	lw $3,7956($3)
  40a5d4:	14 1f 03 03 
  40a5d8:	42 00 00 00 	addu $4,$0,$17
  40a5dc:	00 04 11 00 
  40a5e0:	28 00 00 00 	lw $18,-32416($28)
  40a5e4:	60 81 12 1c 
  40a5e8:	52 00 00 00 	xor $2,$2,$3
  40a5ec:	00 02 03 02 
  40a5f0:	5e 00 00 00 	sltiu $16,$2,1
  40a5f4:	01 00 10 02 
  40a5f8:	02 00 00 00 	jal 407448 <__stdio_check_offset>
  40a5fc:	12 1d 10 00 
  40a600:	43 00 00 00 	addiu $3,$0,-1
  40a604:	ff ff 03 00 
  40a608:	06 00 00 00 	bne $2,$3,40a628 <fwrite+0x228>
  40a60c:	06 00 03 02 
  40a610:	28 00 00 00 	lw $3,-32416($28)
  40a614:	60 81 03 1c 
  40a618:	43 00 00 00 	addiu $2,$0,29
  40a61c:	1d 00 02 00 
  40a620:	06 00 00 00 	bne $3,$2,40a6f0 <fwrite+0x2f0>
  40a624:	32 00 02 03 
  40a628:	28 00 00 00 	lw $2,16($17)
  40a62c:	10 00 02 11 
  40a630:	34 00 00 00 	sw $18,-32416($28)
  40a634:	60 81 12 1c 
  40a638:	06 00 00 00 	bne $2,$0,40a710 <fwrite+0x310>
  40a63c:	34 00 00 02 
  40a640:	05 00 00 00 	beq $16,$0,40a710 <fwrite+0x310>
  40a644:	32 00 00 10 
  40a648:	28 00 00 00 	lw $3,60($17)
  40a64c:	3c 00 03 11 
  40a650:	28 00 00 00 	lw $2,64($17)
  40a654:	40 00 02 11 
  40a658:	06 00 00 00 	bne $3,$2,40a710 <fwrite+0x310>
  40a65c:	2c 00 02 03 
  40a660:	28 00 00 00 	lw $2,36($17)
  40a664:	24 00 02 11 
  40a668:	06 00 00 00 	bne $2,$0,40a680 <fwrite+0x280>
  40a66c:	04 00 00 02 
  40a670:	42 00 00 00 	addu $6,$0,$19
  40a674:	00 06 13 00 
  40a678:	01 00 00 00 	j 40a6a8 <fwrite+0x2a8>
  40a67c:	aa 29 10 00 
  40a680:	28 00 00 00 	lw $4,24($17)
  40a684:	18 00 04 11 
  40a688:	42 00 00 00 	addu $5,$0,$20
  40a68c:	00 05 14 00 
  40a690:	42 00 00 00 	addu $6,$0,$19
  40a694:	00 06 13 00 
  40a698:	04 00 00 00 	jalr $31,$2
  40a69c:	00 1f 00 02 
  40a6a0:	42 00 00 00 	addu $6,$0,$2
  40a6a4:	00 06 02 00 
  40a6a8:	07 00 00 00 	blez $6,40a6f0 <fwrite+0x2f0>
  40a6ac:	10 00 00 06 
  40a6b0:	28 00 00 00 	lw $3,60($17)
  40a6b4:	3c 00 03 11 
  40a6b8:	42 00 00 00 	addu $21,$21,$6
  40a6bc:	00 15 06 15 
  40a6c0:	43 00 00 00 	addiu $2,$0,-1
  40a6c4:	ff ff 02 00 
  40a6c8:	05 00 00 00 	beq $3,$2,40aa60 <fwrite+0x660>
  40a6cc:	e4 00 02 03 
  40a6d0:	42 00 00 00 	addu $2,$6,$3
  40a6d4:	00 02 03 06 
  40a6d8:	34 00 00 00 	sw $2,60($17)
  40a6dc:	3c 00 02 11 
  40a6e0:	34 00 00 00 	sw $2,64($17)
  40a6e4:	40 00 02 11 
  40a6e8:	01 00 00 00 	j 40aa60 <fwrite+0x660>
  40a6ec:	98 2a 10 00 
  40a6f0:	28 00 00 00 	lw $2,76($17)
  40a6f4:	4c 00 02 11 
  40a6f8:	51 00 00 00 	ori $2,$2,1024
  40a6fc:	00 04 02 02 
  40a700:	34 00 00 00 	sw $2,76($17)
  40a704:	4c 00 02 11 
  40a708:	01 00 00 00 	j 40aa60 <fwrite+0x660>
  40a70c:	98 2a 10 00 
  40a710:	42 00 00 00 	addu $22,$0,$0
  40a714:	00 16 00 00 
  40a718:	28 00 00 00 	lw $3,4($17)
  40a71c:	04 00 03 11 
  40a720:	28 00 00 00 	lw $4,16($17)
  40a724:	10 00 04 11 
  40a728:	28 00 00 00 	lw $5,20($17)
  40a72c:	14 00 05 11 
  40a730:	28 00 00 00 	lw $2,76($17)
  40a734:	4c 00 02 11 
  40a738:	45 00 00 00 	subu $3,$3,$4
  40a73c:	00 03 04 03 
  40a740:	45 00 00 00 	subu $18,$5,$3
  40a744:	00 12 03 05 
  40a748:	4f 00 00 00 	andi $2,$2,4096
  40a74c:	00 10 02 02 
  40a750:	05 00 00 00 	beq $2,$0,40a780 <fwrite+0x380>
  40a754:	0a 00 00 02 
  40a758:	42 00 00 00 	addu $4,$0,$20
  40a75c:	00 04 14 00 
  40a760:	43 00 00 00 	addiu $5,$0,10
  40a764:	0a 00 05 00 
  40a768:	42 00 00 00 	addu $6,$0,$19
  40a76c:	00 06 13 00 
  40a770:	02 00 00 00 	jal 410120 <memchr>
  40a774:	48 40 10 00 
  40a778:	5d 00 00 00 	sltu $22,$0,$2
  40a77c:	00 16 02 00 
  40a780:	05 00 00 00 	beq $22,$0,40a7b8 <fwrite+0x3b8>
  40a784:	0c 00 00 16 
  40a788:	28 00 00 00 	lw $3,4($17)
  40a78c:	04 00 03 11 
  40a790:	28 00 00 00 	lw $2,16($17)
  40a794:	10 00 02 11 
  40a798:	06 00 00 00 	bne $3,$2,40a7b8 <fwrite+0x3b8>
  40a79c:	06 00 02 03 
  40a7a0:	28 00 00 00 	lw $3,60($17)
  40a7a4:	3c 00 03 11 
  40a7a8:	28 00 00 00 	lw $2,64($17)
  40a7ac:	40 00 02 11 
  40a7b0:	05 00 00 00 	beq $3,$2,40a660 <fwrite+0x260>
  40a7b4:	aa ff 02 03 
  40a7b8:	28 00 00 00 	lw $2,20($17)
  40a7bc:	14 00 02 11 
  40a7c0:	06 00 00 00 	bne $2,$0,40a840 <fwrite+0x440>
  40a7c4:	1e 00 00 02 
  40a7c8:	06 00 00 00 	bne $16,$0,40a848 <fwrite+0x448>
  40a7cc:	1e 00 00 10 
  40a7d0:	42 00 00 00 	addu $2,$0,$19
  40a7d4:	00 02 13 00 
  40a7d8:	43 00 00 00 	addiu $19,$19,-1
  40a7dc:	ff ff 13 13 
  40a7e0:	05 00 00 00 	beq $2,$0,40aa60 <fwrite+0x660>
  40a7e4:	9e 00 00 02 
  40a7e8:	43 00 00 00 	addiu $16,$0,-1
  40a7ec:	ff ff 10 00 
  40a7f0:	22 00 00 00 	lbu $5,0($20)
  40a7f4:	00 00 05 14 
  40a7f8:	42 00 00 00 	addu $4,$0,$17
  40a7fc:	00 04 11 00 
  40a800:	43 00 00 00 	addiu $20,$20,1
  40a804:	01 00 14 14 
  40a808:	02 00 00 00 	jal 408380 <__flshfp>
  40a80c:	e0 20 10 00 
  40a810:	05 00 00 00 	beq $2,$16,40aa60 <fwrite+0x660>
  40a814:	92 00 10 02 
  40a818:	43 00 00 00 	addiu $21,$21,1
  40a81c:	01 00 15 15 
  40a820:	42 00 00 00 	addu $2,$0,$19
  40a824:	00 02 13 00 
  40a828:	43 00 00 00 	addiu $19,$19,-1
  40a82c:	ff ff 13 13 
  40a830:	06 00 00 00 	bne $2,$0,40a7f0 <fwrite+0x3f0>
  40a834:	ee ff 00 02 
  40a838:	01 00 00 00 	j 40aa60 <fwrite+0x660>
  40a83c:	98 2a 10 00 
  40a840:	05 00 00 00 	beq $16,$0,40a858 <fwrite+0x458>
  40a844:	04 00 00 10 
  40a848:	5d 00 00 00 	sltu $2,$18,$19
  40a84c:	00 02 13 12 
  40a850:	06 00 00 00 	bne $2,$0,40a9c0 <fwrite+0x5c0>
  40a854:	5a 00 00 02 
  40a858:	05 00 00 00 	beq $19,$0,40aa60 <fwrite+0x660>
  40a85c:	80 00 00 13 
  40a860:	43 00 00 00 	addiu $30,$0,-1
  40a864:	ff ff 1e 00 
  40a868:	42 00 00 00 	addu $16,$0,$19
  40a86c:	00 10 13 00 
  40a870:	5d 00 00 00 	sltu $2,$18,$19
  40a874:	00 02 13 12 
  40a878:	05 00 00 00 	beq $2,$0,40a888 <fwrite+0x488>
  40a87c:	02 00 00 02 
  40a880:	42 00 00 00 	addu $16,$0,$18
  40a884:	00 10 12 00 
  40a888:	45 00 00 00 	subu $18,$18,$16
  40a88c:	00 12 10 12 
  40a890:	42 00 00 00 	addu $21,$21,$16
  40a894:	00 15 10 15 
  40a898:	45 00 00 00 	subu $19,$19,$16
  40a89c:	00 13 10 13 
  40a8a0:	5e 00 00 00 	sltiu $2,$16,20
  40a8a4:	14 00 02 10 
  40a8a8:	05 00 00 00 	beq $2,$0,40a918 <fwrite+0x518>
  40a8ac:	1a 00 00 02 
  40a8b0:	42 00 00 00 	addu $2,$0,$16
  40a8b4:	00 02 10 00 
  40a8b8:	43 00 00 00 	addiu $16,$16,-1
  40a8bc:	ff ff 10 10 
  40a8c0:	05 00 00 00 	beq $2,$0,40a958 <fwrite+0x558>
  40a8c4:	24 00 00 02 
  40a8c8:	28 00 00 00 	lw $3,4($17)
  40a8cc:	04 00 03 11 
  40a8d0:	43 00 00 00 	addiu $2,$3,1
  40a8d4:	01 00 02 03 
  40a8d8:	34 00 00 00 	sw $2,4($17)
  40a8dc:	04 00 02 11 
  40a8e0:	22 00 00 00 	lbu $2,0($20)
  40a8e4:	00 00 02 14 
  40a8e8:	42 00 00 00 	addu $4,$0,$16
  40a8ec:	00 04 10 00 
  40a8f0:	43 00 00 00 	addiu $16,$16,-1
  40a8f4:	ff ff 10 10 
  40a8f8:	43 00 00 00 	addiu $20,$20,1
  40a8fc:	01 00 14 14 
  40a900:	30 00 00 00 	sb $2,0($3)
  40a904:	00 00 02 03 
  40a908:	06 00 00 00 	bne $4,$0,40a8c8 <fwrite+0x4c8>
  40a90c:	ee ff 00 04 
  40a910:	01 00 00 00 	j 40a958 <fwrite+0x558>
  40a914:	56 2a 10 00 
  40a918:	28 00 00 00 	lw $4,4($17)
  40a91c:	04 00 04 11 
  40a920:	42 00 00 00 	addu $5,$0,$20
  40a924:	00 05 14 00 
  40a928:	42 00 00 00 	addu $6,$0,$16
  40a92c:	00 06 10 00 
  40a930:	02 00 00 00 	jal 40fb00 <memcpy>
  40a934:	c0 3e 10 00 
  40a938:	28 00 00 00 	lw $2,4($17)
  40a93c:	04 00 02 11 
  40a940:	42 00 00 00 	addu $20,$20,$16
  40a944:	00 14 10 14 
  40a948:	42 00 00 00 	addu $2,$16,$2
  40a94c:	00 02 02 10 
  40a950:	34 00 00 00 	sw $2,4($17)
  40a954:	04 00 02 11 
  40a958:	05 00 00 00 	beq $18,$0,40a970 <fwrite+0x570>
  40a95c:	04 00 00 12 
  40a960:	06 00 00 00 	bne $19,$0,40a860 <fwrite+0x460>
  40a964:	be ff 00 13 
  40a968:	05 00 00 00 	beq $22,$0,40a9b0 <fwrite+0x5b0>
  40a96c:	10 00 00 16 
  40a970:	42 00 00 00 	addu $4,$0,$17
  40a974:	00 04 11 00 
  40a978:	02 00 00 00 	jal 40f740 <fflush>
  40a97c:	d0 3d 10 00 
  40a980:	05 00 00 00 	beq $2,$30,40aa60 <fwrite+0x660>
  40a984:	36 00 1e 02 
  40a988:	28 00 00 00 	lw $2,4($17)
  40a98c:	04 00 02 11 
  40a990:	28 00 00 00 	lw $3,16($17)
  40a994:	10 00 03 11 
  40a998:	28 00 00 00 	lw $4,20($17)
  40a99c:	14 00 04 11 
  40a9a0:	45 00 00 00 	subu $2,$2,$3
  40a9a4:	00 02 03 02 
  40a9a8:	45 00 00 00 	subu $18,$4,$2
  40a9ac:	00 12 02 04 
  40a9b0:	06 00 00 00 	bne $19,$0,40a868 <fwrite+0x468>
  40a9b4:	ac ff 00 13 
  40a9b8:	01 00 00 00 	j 40aa60 <fwrite+0x660>
  40a9bc:	98 2a 10 00 
  40a9c0:	28 00 00 00 	lw $3,4($17)
  40a9c4:	04 00 03 11 
  40a9c8:	28 00 00 00 	lw $2,16($17)
  40a9cc:	10 00 02 11 
  40a9d0:	05 00 00 00 	beq $3,$2,40aa00 <fwrite+0x600>
  40a9d4:	0a 00 02 03 
  40a9d8:	42 00 00 00 	addu $4,$0,$17
  40a9dc:	00 04 11 00 
  40a9e0:	43 00 00 00 	addiu $5,$0,-1
  40a9e4:	ff ff 05 00 
  40a9e8:	02 00 00 00 	jal 408380 <__flshfp>
  40a9ec:	e0 20 10 00 
  40a9f0:	43 00 00 00 	addiu $3,$0,-1
  40a9f4:	ff ff 03 00 
  40a9f8:	05 00 00 00 	beq $2,$3,40aa60 <fwrite+0x660>
  40a9fc:	18 00 03 02 
  40aa00:	28 00 00 00 	lw $2,4($17)
  40aa04:	04 00 02 11 
  40aa08:	28 00 00 00 	lw $4,16($17)
  40aa0c:	10 00 04 11 
  40aa10:	28 00 00 00 	lw $5,20($17)
  40aa14:	14 00 05 11 
  40aa18:	28 00 00 00 	lw $6,60($17)
  40aa1c:	3c 00 06 11 
  40aa20:	28 00 00 00 	lw $3,64($17)
  40aa24:	40 00 03 11 
  40aa28:	45 00 00 00 	subu $2,$2,$4
  40aa2c:	00 02 04 02 
  40aa30:	45 00 00 00 	subu $18,$5,$2
  40aa34:	00 12 02 05 
  40aa38:	06 00 00 00 	bne $6,$3,40a858 <fwrite+0x458>
  40aa3c:	86 ff 03 06 
  40aa40:	5d 00 00 00 	sltu $2,$18,$19
  40aa44:	00 02 13 12 
  40aa48:	06 00 00 00 	bne $2,$0,40a660 <fwrite+0x260>
  40aa4c:	04 ff 00 02 
  40aa50:	06 00 00 00 	bne $22,$0,40a660 <fwrite+0x260>
  40aa54:	02 ff 00 16 
  40aa58:	01 00 00 00 	j 40a858 <fwrite+0x458>
  40aa5c:	16 2a 10 00 
  40aa60:	49 00 00 00 	divu $0,$21,$23
  40aa64:	00 00 17 15 
  40aa68:	06 00 00 00 	bne $23,$0,40aa78 <fwrite+0x678>
  40aa6c:	02 00 00 17 
  40aa70:	a1 00 00 00 	break 
  40aa74:	07 00 00 00 
  40aa78:	4c 00 00 00 	mflo $2
  40aa7c:	00 02 00 00 
  40aa80:	28 00 00 00 	lw $31,52($29)
  40aa84:	34 00 1f 1d 
  40aa88:	28 00 00 00 	lw $30,48($29)
  40aa8c:	30 00 1e 1d 
  40aa90:	28 00 00 00 	lw $23,44($29)
  40aa94:	2c 00 17 1d 
  40aa98:	28 00 00 00 	lw $22,40($29)
  40aa9c:	28 00 16 1d 
  40aaa0:	28 00 00 00 	lw $21,36($29)
  40aaa4:	24 00 15 1d 
  40aaa8:	28 00 00 00 	lw $20,32($29)
  40aaac:	20 00 14 1d 
  40aab0:	28 00 00 00 	lw $19,28($29)
  40aab4:	1c 00 13 1d 
  40aab8:	28 00 00 00 	lw $18,24($29)
  40aabc:	18 00 12 1d 
  40aac0:	28 00 00 00 	lw $17,20($29)
  40aac4:	14 00 11 1d 
  40aac8:	28 00 00 00 	lw $16,16($29)
  40aacc:	10 00 10 1d 
  40aad0:	43 00 00 00 	addiu $29,$29,56
  40aad4:	38 00 1d 1d 
  40aad8:	03 00 00 00 	jr $31
  40aadc:	00 00 00 1f 

0040aae0 <_itoa>:
  40aae0:	43 00 00 00 	addiu $29,$29,-56
  40aae4:	c8 ff 1d 1d 
  40aae8:	28 00 00 00 	lw $2,72($29)
  40aaec:	48 00 02 1d 
  40aaf0:	34 00 00 00 	sw $19,36($29)
  40aaf4:	24 00 13 1d 
  40aaf8:	34 00 00 00 	sw $18,32($29)
  40aafc:	20 00 12 1d 
  40ab00:	42 00 00 00 	addu $18,$0,$4
  40ab04:	00 12 04 00 
  40ab08:	42 00 00 00 	addu $19,$0,$5
  40ab0c:	00 13 05 00 
  40ab10:	34 00 00 00 	sw $22,48($29)
  40ab14:	30 00 16 1d 
  40ab18:	42 00 00 00 	addu $22,$0,$7
  40ab1c:	00 16 07 00 
  40ab20:	34 00 00 00 	sw $21,44($29)
  40ab24:	2c 00 15 1d 
  40ab28:	a2 00 00 00 	lui $21,4096
  40ab2c:	00 10 15 00 
  40ab30:	43 00 00 00 	addiu $21,$21,3136
  40ab34:	40 0c 15 15 
  40ab38:	34 00 00 00 	sw $31,52($29)
  40ab3c:	34 00 1f 1d 
  40ab40:	34 00 00 00 	sw $20,40($29)
  40ab44:	28 00 14 1d 
  40ab48:	34 00 00 00 	sw $17,28($29)
  40ab4c:	1c 00 11 1d 
  40ab50:	34 00 00 00 	sw $16,24($29)
  40ab54:	18 00 10 1d 
  40ab58:	05 00 00 00 	beq $2,$0,40ab70 <_itoa+0x90>
  40ab5c:	04 00 00 02 
  40ab60:	a2 00 00 00 	lui $21,4096
  40ab64:	00 10 15 00 
  40ab68:	43 00 00 00 	addiu $21,$21,3176
  40ab6c:	68 0c 15 15 
  40ab70:	42 00 00 00 	addu $20,$0,$6
  40ab74:	00 14 06 00 
  40ab78:	06 00 00 00 	bne $18,$0,40ab88 <_itoa+0xa8>
  40ab7c:	02 00 00 12 
  40ab80:	05 00 00 00 	beq $19,$0,40ac28 <_itoa+0x148>
  40ab84:	28 00 00 13 
  40ab88:	43 00 00 00 	addiu $20,$20,-1
  40ab8c:	ff ff 14 14 
  40ab90:	42 00 00 00 	addu $16,$0,$22
  40ab94:	00 10 16 00 
  40ab98:	42 00 00 00 	addu $17,$0,$0
  40ab9c:	00 11 00 00 
  40aba0:	42 00 00 00 	addu $4,$0,$18
  40aba4:	00 04 12 00 
  40aba8:	42 00 00 00 	addu $5,$0,$19
  40abac:	00 05 13 00 
  40abb0:	42 00 00 00 	addu $6,$0,$16
  40abb4:	00 06 10 00 
  40abb8:	42 00 00 00 	addu $7,$0,$17
  40abbc:	00 07 11 00 
  40abc0:	02 00 00 00 	jal 412f50 <__umoddi3>
  40abc4:	d4 4b 10 00 
  40abc8:	42 00 00 00 	addu $2,$21,$2
  40abcc:	00 02 02 15 
  40abd0:	22 00 00 00 	lbu $2,0($2)
  40abd4:	00 00 02 02 
  40abd8:	42 00 00 00 	addu $4,$0,$18
  40abdc:	00 04 12 00 
  40abe0:	42 00 00 00 	addu $5,$0,$19
  40abe4:	00 05 13 00 
  40abe8:	42 00 00 00 	addu $6,$0,$16
  40abec:	00 06 10 00 
  40abf0:	42 00 00 00 	addu $7,$0,$17
  40abf4:	00 07 11 00 
  40abf8:	30 00 00 00 	sb $2,0($20)
  40abfc:	00 00 02 14 
  40ac00:	02 00 00 00 	jal 413850 <__udivdi3>
  40ac04:	14 4e 10 00 
  40ac08:	42 00 00 00 	addu $18,$0,$2
  40ac0c:	00 12 02 00 
  40ac10:	42 00 00 00 	addu $19,$0,$3
  40ac14:	00 13 03 00 
  40ac18:	06 00 00 00 	bne $18,$0,40ab88 <_itoa+0xa8>
  40ac1c:	da ff 00 12 
  40ac20:	06 00 00 00 	bne $19,$0,40ab88 <_itoa+0xa8>
  40ac24:	d8 ff 00 13 
  40ac28:	42 00 00 00 	addu $2,$0,$20
  40ac2c:	00 02 14 00 
  40ac30:	28 00 00 00 	lw $31,52($29)
  40ac34:	34 00 1f 1d 
  40ac38:	28 00 00 00 	lw $22,48($29)
  40ac3c:	30 00 16 1d 
  40ac40:	28 00 00 00 	lw $21,44($29)
  40ac44:	2c 00 15 1d 
  40ac48:	28 00 00 00 	lw $20,40($29)
  40ac4c:	28 00 14 1d 
  40ac50:	28 00 00 00 	lw $19,36($29)
  40ac54:	24 00 13 1d 
  40ac58:	28 00 00 00 	lw $18,32($29)
  40ac5c:	20 00 12 1d 
  40ac60:	28 00 00 00 	lw $17,28($29)
  40ac64:	1c 00 11 1d 
  40ac68:	28 00 00 00 	lw $16,24($29)
  40ac6c:	18 00 10 1d 
  40ac70:	43 00 00 00 	addiu $29,$29,56
  40ac74:	38 00 1d 1d 
  40ac78:	03 00 00 00 	jr $31
  40ac7c:	00 00 00 1f 

0040ac80 <__printf_fp>:
  40ac80:	43 00 00 00 	addiu $29,$29,-1968
  40ac84:	50 f8 1d 1d 
  40ac88:	34 00 00 00 	sw $22,1944($29)
  40ac8c:	98 07 16 1d 
  40ac90:	42 00 00 00 	addu $22,$0,$4
  40ac94:	00 16 04 00 
  40ac98:	34 00 00 00 	sw $31,1956($29)
  40ac9c:	a4 07 1f 1d 
  40aca0:	34 00 00 00 	sw $30,1952($29)
  40aca4:	a0 07 1e 1d 
  40aca8:	34 00 00 00 	sw $23,1948($29)
  40acac:	9c 07 17 1d 
  40acb0:	34 00 00 00 	sw $21,1940($29)
  40acb4:	94 07 15 1d 
  40acb8:	34 00 00 00 	sw $20,1936($29)
  40acbc:	90 07 14 1d 
  40acc0:	34 00 00 00 	sw $19,1932($29)
  40acc4:	8c 07 13 1d 
  40acc8:	34 00 00 00 	sw $18,1928($29)
  40accc:	88 07 12 1d 
  40acd0:	34 00 00 00 	sw $17,1924($29)
  40acd4:	84 07 11 1d 
  40acd8:	34 00 00 00 	sw $16,1920($29)
  40acdc:	80 07 10 1d 
  40ace0:	36 00 00 00 	s.s $f20,1960($29)
  40ace4:	a8 07 14 1d 
  40ace8:	36 00 00 00 	s.s $f21,1964($29)
  40acec:	ac 07 15 1d 
  40acf0:	28 00 00 00 	lw $9,0($5)
  40acf4:	00 00 09 05 
  40acf8:	28 00 00 00 	lw $4,-32488($28)
  40acfc:	18 81 04 1c 
  40ad00:	42 00 00 00 	addu $30,$0,$29
  40ad04:	00 1e 1d 00 
  40ad08:	34 00 00 00 	sw $9,1712($30)
  40ad0c:	b0 06 09 1e 
  40ad10:	28 00 00 00 	lw $9,4($5)
  40ad14:	04 00 09 05 
  40ad18:	34 00 00 00 	sw $5,1680($30)
  40ad1c:	90 06 05 1e 
  40ad20:	34 00 00 00 	sw $0,1688($30)
  40ad24:	98 06 00 1e 
  40ad28:	34 00 00 00 	sw $9,1720($30)
  40ad2c:	b8 06 09 1e 
  40ad30:	22 00 00 00 	lbu $2,8($5)
  40ad34:	08 00 02 05 
  40ad38:	28 00 00 00 	lw $3,-32572($28)
  40ad3c:	c4 80 03 1c 
  40ad40:	28 00 00 00 	lw $4,0($4)
  40ad44:	00 00 04 04 
  40ad48:	55 00 00 00 	sll $2,$2,0x1
  40ad4c:	01 02 02 00 
  40ad50:	42 00 00 00 	addu $2,$2,$3
  40ad54:	00 02 03 02 
  40ad58:	22 00 00 00 	lbu $2,0($2)
  40ad5c:	00 00 02 02 
  40ad60:	28 00 00 00 	lw $3,1712($30)
  40ad64:	b0 06 03 1e 
  40ad68:	30 00 00 00 	sb $2,1704($30)
  40ad6c:	a8 06 02 1e 
  40ad70:	5c 00 00 00 	slti $2,$3,15
  40ad74:	0f 00 02 03 
  40ad78:	34 00 00 00 	sw $4,1696($30)
  40ad7c:	a0 06 04 1e 
  40ad80:	05 00 00 00 	beq $2,$0,40ad90 <__printf_fp+0x110>
  40ad84:	02 00 00 02 
  40ad88:	43 00 00 00 	addiu $3,$0,15
  40ad8c:	0f 00 03 00 
  40ad90:	43 00 00 00 	addiu $2,$3,325
  40ad94:	45 01 02 03 
  40ad98:	57 00 00 00 	srl $2,$2,0x3
  40ad9c:	03 02 02 00 
  40ada0:	55 00 00 00 	sll $2,$2,0x3
  40ada4:	03 02 02 00 
  40ada8:	45 00 00 00 	subu $29,$29,$2
  40adac:	00 1d 02 1d 
  40adb0:	28 00 00 00 	lw $2,0($29)
  40adb4:	00 00 02 1d 
  40adb8:	43 00 00 00 	addiu $9,$29,24
  40adbc:	18 00 09 1d 
  40adc0:	34 00 00 00 	sw $9,1728($30)
  40adc4:	c0 06 09 1e 
  40adc8:	28 00 00 00 	lw $9,1680($30)
  40adcc:	90 06 09 1e 
  40add0:	28 00 00 00 	lw $23,1728($30)
  40add4:	c0 06 17 1e 
  40add8:	42 00 00 00 	addu $19,$0,$0
  40addc:	00 13 00 00 
  40ade0:	28 00 00 00 	lw $2,0($6)
  40ade4:	00 00 02 06 
  40ade8:	43 00 00 00 	addiu $3,$0,-8
  40adec:	f8 ff 03 00 
  40adf0:	43 00 00 00 	addiu $2,$2,7
  40adf4:	07 00 02 02 
  40adf8:	4e 00 00 00 	and $2,$2,$3
  40adfc:	00 02 03 02 
  40ae00:	43 00 00 00 	addiu $3,$2,8
  40ae04:	08 00 03 02 
  40ae08:	34 00 00 00 	sw $3,0($6)
  40ae0c:	00 00 03 06 
  40ae10:	2a 00 00 00 	l.s $f20,0($2)
  40ae14:	00 00 14 02 
  40ae18:	2a 00 00 00 	l.s $f21,4($2)
  40ae1c:	04 00 15 02 
  40ae20:	7b 00 00 00 	mov.d $f12,$f20
  40ae24:	00 0c 00 14 
  40ae28:	02 00 00 00 	jal 410310 <__isnan>
  40ae2c:	c4 40 10 00 
  40ae30:	05 00 00 00 	beq $2,$0,40ae48 <__printf_fp+0x1c8>
  40ae34:	04 00 00 02 
  40ae38:	43 00 00 00 	addiu $19,$28,-32544
  40ae3c:	e0 80 13 1c 
  40ae40:	01 00 00 00 	j 40ae98 <__printf_fp+0x218>
  40ae44:	a6 2b 10 00 
  40ae48:	7b 00 00 00 	mov.d $f12,$f20
  40ae4c:	00 0c 00 14 
  40ae50:	02 00 00 00 	jal 410390 <__isinf>
  40ae54:	e4 40 10 00 
  40ae58:	05 00 00 00 	beq $2,$0,40aea0 <__printf_fp+0x220>
  40ae5c:	10 00 00 02 
  40ae60:	a5 00 00 00 	mtc1 $0,$f0
  40ae64:	00 00 00 00 
  40ae68:	a5 00 00 00 	mtc1 $0,$f1
  40ae6c:	00 00 00 01 
  40ae70:	43 00 00 00 	addiu $19,$28,-32540
  40ae74:	e4 80 13 1c 
  40ae78:	43 00 00 00 	addiu $2,$0,1
  40ae7c:	01 00 02 00 
  40ae80:	93 00 00 00 	c.lt.d $f20,$f0
  40ae84:	00 00 00 14 
  40ae88:	34 00 00 00 	sw $2,1528($30)
  40ae8c:	f8 05 02 1e 
  40ae90:	0c 00 00 00 	bc1t 40aea0 <__printf_fp+0x220>
  40ae94:	02 00 00 00 
  40ae98:	34 00 00 00 	sw $0,1528($30)
  40ae9c:	f8 05 00 1e 
  40aea0:	05 00 00 00 	beq $19,$0,40b310 <__printf_fp+0x690>
  40aea4:	1a 01 00 13 
  40aea8:	28 00 00 00 	lw $9,1680($30)
  40aeac:	90 06 09 1e 
  40aeb0:	28 00 00 00 	lw $16,0($9)
  40aeb4:	00 00 10 09 
  40aeb8:	28 00 00 00 	lw $3,4($9)
  40aebc:	04 00 03 09 
  40aec0:	5b 00 00 00 	slt $2,$16,$3
  40aec4:	00 02 03 10 
  40aec8:	05 00 00 00 	beq $2,$0,40aed8 <__printf_fp+0x258>
  40aecc:	02 00 00 02 
  40aed0:	42 00 00 00 	addu $16,$0,$3
  40aed4:	00 10 03 00 
  40aed8:	28 00 00 00 	lw $2,1528($30)
  40aedc:	f8 05 02 1e 
  40aee0:	06 00 00 00 	bne $2,$0,40af08 <__printf_fp+0x288>
  40aee4:	08 00 00 02 
  40aee8:	28 00 00 00 	lw $9,1680($30)
  40aeec:	90 06 09 1e 
  40aef0:	28 00 00 00 	lw $2,8($9)
  40aef4:	08 00 02 09 
  40aef8:	4f 00 00 00 	andi $2,$2,20480
  40aefc:	00 50 02 02 
  40af00:	05 00 00 00 	beq $2,$0,40af10 <__printf_fp+0x290>
  40af04:	02 00 00 02 
  40af08:	43 00 00 00 	addiu $16,$16,-1
  40af0c:	ff ff 10 10 
  40af10:	28 00 00 00 	lw $9,1680($30)
  40af14:	90 06 09 1e 
  40af18:	28 00 00 00 	lw $2,8($9)
  40af1c:	08 00 02 09 
  40af20:	43 00 00 00 	addiu $16,$16,-3
  40af24:	fd ff 10 10 
  40af28:	4f 00 00 00 	andi $2,$2,8192
  40af2c:	00 20 02 02 
  40af30:	06 00 00 00 	bne $2,$0,40aff8 <__printf_fp+0x378>
  40af34:	30 00 00 02 
  40af38:	42 00 00 00 	addu $2,$0,$16
  40af3c:	00 02 10 00 
  40af40:	43 00 00 00 	addiu $16,$16,-1
  40af44:	ff ff 10 10 
  40af48:	07 00 00 00 	blez $2,40aff8 <__printf_fp+0x378>
  40af4c:	2a 00 00 02 
  40af50:	43 00 00 00 	addiu $18,$0,-1
  40af54:	ff ff 12 00 
  40af58:	43 00 00 00 	addiu $17,$0,32
  40af5c:	20 00 11 00 
  40af60:	28 00 00 00 	lw $3,4($22)
  40af64:	04 00 03 16 
  40af68:	28 00 00 00 	lw $2,12($22)
  40af6c:	0c 00 02 16 
  40af70:	5d 00 00 00 	sltu $2,$3,$2
  40af74:	00 02 02 03 
  40af78:	06 00 00 00 	bne $2,$0,40afb0 <__printf_fp+0x330>
  40af7c:	0c 00 00 02 
  40af80:	42 00 00 00 	addu $4,$0,$22
  40af84:	00 04 16 00 
  40af88:	43 00 00 00 	addiu $5,$0,32
  40af8c:	20 00 05 00 
  40af90:	02 00 00 00 	jal 408380 <__flshfp>
  40af94:	e0 20 10 00 
  40af98:	06 00 00 00 	bne $2,$18,40afc8 <__printf_fp+0x348>
  40af9c:	0a 00 12 02 
  40afa0:	43 00 00 00 	addiu $2,$0,-1
  40afa4:	ff ff 02 00 
  40afa8:	01 00 00 00 	j 40f678 <__printf_fp+0x49f8>
  40afac:	9e 3d 10 00 
  40afb0:	43 00 00 00 	addiu $2,$3,1
  40afb4:	01 00 02 03 
  40afb8:	34 00 00 00 	sw $2,4($22)
  40afbc:	04 00 02 16 
  40afc0:	30 00 00 00 	sb $17,0($3)
  40afc4:	00 00 11 03 
  40afc8:	28 00 00 00 	lw $9,1688($30)
  40afcc:	98 06 09 1e 
  40afd0:	43 00 00 00 	addiu $9,$9,1
  40afd4:	01 00 09 09 
  40afd8:	34 00 00 00 	sw $9,1688($30)
  40afdc:	98 06 09 1e 
  40afe0:	42 00 00 00 	addu $2,$0,$16
  40afe4:	00 02 10 00 
  40afe8:	43 00 00 00 	addiu $16,$16,-1
  40afec:	ff ff 10 10 
  40aff0:	08 00 00 00 	bgtz $2,40af60 <__printf_fp+0x2e0>
  40aff4:	da ff 00 02 
  40aff8:	28 00 00 00 	lw $2,1528($30)
  40affc:	f8 05 02 1e 
  40b000:	05 00 00 00 	beq $2,$0,40b060 <__printf_fp+0x3e0>
  40b004:	16 00 00 02 
  40b008:	28 00 00 00 	lw $3,4($22)
  40b00c:	04 00 03 16 
  40b010:	28 00 00 00 	lw $2,12($22)
  40b014:	0c 00 02 16 
  40b018:	5d 00 00 00 	sltu $2,$3,$2
  40b01c:	00 02 02 03 
  40b020:	06 00 00 00 	bne $2,$0,40b040 <__printf_fp+0x3c0>
  40b024:	06 00 00 02 
  40b028:	42 00 00 00 	addu $4,$0,$22
  40b02c:	00 04 16 00 
  40b030:	43 00 00 00 	addiu $5,$0,45
  40b034:	2d 00 05 00 
  40b038:	01 00 00 00 	j 40b118 <__printf_fp+0x498>
  40b03c:	46 2c 10 00 
  40b040:	43 00 00 00 	addiu $2,$3,1
  40b044:	01 00 02 03 
  40b048:	34 00 00 00 	sw $2,4($22)
  40b04c:	04 00 02 16 
  40b050:	43 00 00 00 	addiu $2,$0,45
  40b054:	2d 00 02 00 
  40b058:	01 00 00 00 	j 40b150 <__printf_fp+0x4d0>
  40b05c:	54 2c 10 00 
  40b060:	28 00 00 00 	lw $9,1680($30)
  40b064:	90 06 09 1e 
  40b068:	28 00 00 00 	lw $3,8($9)
  40b06c:	08 00 03 09 
  40b070:	4f 00 00 00 	andi $2,$3,16384
  40b074:	00 40 02 03 
  40b078:	05 00 00 00 	beq $2,$0,40b0d8 <__printf_fp+0x458>
  40b07c:	16 00 00 02 
  40b080:	28 00 00 00 	lw $3,4($22)
  40b084:	04 00 03 16 
  40b088:	28 00 00 00 	lw $2,12($22)
  40b08c:	0c 00 02 16 
  40b090:	5d 00 00 00 	sltu $2,$3,$2
  40b094:	00 02 02 03 
  40b098:	06 00 00 00 	bne $2,$0,40b0b8 <__printf_fp+0x438>
  40b09c:	06 00 00 02 
  40b0a0:	42 00 00 00 	addu $4,$0,$22
  40b0a4:	00 04 16 00 
  40b0a8:	43 00 00 00 	addiu $5,$0,43
  40b0ac:	2b 00 05 00 
  40b0b0:	01 00 00 00 	j 40b118 <__printf_fp+0x498>
  40b0b4:	46 2c 10 00 
  40b0b8:	43 00 00 00 	addiu $2,$3,1
  40b0bc:	01 00 02 03 
  40b0c0:	34 00 00 00 	sw $2,4($22)
  40b0c4:	04 00 02 16 
  40b0c8:	43 00 00 00 	addiu $2,$0,43
  40b0cc:	2b 00 02 00 
  40b0d0:	01 00 00 00 	j 40b150 <__printf_fp+0x4d0>
  40b0d4:	54 2c 10 00 
  40b0d8:	4f 00 00 00 	andi $2,$3,4096
  40b0dc:	00 10 02 03 
  40b0e0:	05 00 00 00 	beq $2,$0,40b170 <__printf_fp+0x4f0>
  40b0e4:	22 00 00 02 
  40b0e8:	28 00 00 00 	lw $3,4($22)
  40b0ec:	04 00 03 16 
  40b0f0:	28 00 00 00 	lw $2,12($22)
  40b0f4:	0c 00 02 16 
  40b0f8:	5d 00 00 00 	sltu $2,$3,$2
  40b0fc:	00 02 02 03 
  40b100:	06 00 00 00 	bne $2,$0,40b138 <__printf_fp+0x4b8>
  40b104:	0c 00 00 02 
  40b108:	42 00 00 00 	addu $4,$0,$22
  40b10c:	00 04 16 00 
  40b110:	43 00 00 00 	addiu $5,$0,32
  40b114:	20 00 05 00 
  40b118:	02 00 00 00 	jal 408380 <__flshfp>
  40b11c:	e0 20 10 00 
  40b120:	43 00 00 00 	addiu $3,$0,-1
  40b124:	ff ff 03 00 
  40b128:	06 00 00 00 	bne $2,$3,40b158 <__printf_fp+0x4d8>
  40b12c:	0a 00 03 02 
  40b130:	01 00 00 00 	j 40afa0 <__printf_fp+0x320>
  40b134:	e8 2b 10 00 
  40b138:	43 00 00 00 	addiu $2,$3,1
  40b13c:	01 00 02 03 
  40b140:	34 00 00 00 	sw $2,4($22)
  40b144:	04 00 02 16 
  40b148:	43 00 00 00 	addiu $2,$0,32
  40b14c:	20 00 02 00 
  40b150:	30 00 00 00 	sb $2,0($3)
  40b154:	00 00 02 03 
  40b158:	28 00 00 00 	lw $9,1688($30)
  40b15c:	98 06 09 1e 
  40b160:	43 00 00 00 	addiu $9,$9,1
  40b164:	01 00 09 09 
  40b168:	34 00 00 00 	sw $9,1688($30)
  40b16c:	98 06 09 1e 
  40b170:	43 00 00 00 	addiu $17,$0,2
  40b174:	02 00 11 00 
  40b178:	43 00 00 00 	addiu $18,$0,-1
  40b17c:	ff ff 12 00 
  40b180:	20 00 00 00 	lb $5,0($19)
  40b184:	00 00 05 13 
  40b188:	28 00 00 00 	lw $3,4($22)
  40b18c:	04 00 03 16 
  40b190:	28 00 00 00 	lw $2,12($22)
  40b194:	0c 00 02 16 
  40b198:	43 00 00 00 	addiu $19,$19,1
  40b19c:	01 00 13 13 
  40b1a0:	5d 00 00 00 	sltu $2,$3,$2
  40b1a4:	00 02 02 03 
  40b1a8:	05 00 00 00 	beq $2,$0,40b1e0 <__printf_fp+0x560>
  40b1ac:	0c 00 00 02 
  40b1b0:	43 00 00 00 	addiu $2,$3,1
  40b1b4:	01 00 02 03 
  40b1b8:	34 00 00 00 	sw $2,4($22)
  40b1bc:	04 00 02 16 
  40b1c0:	42 00 00 00 	addu $2,$0,$5
  40b1c4:	00 02 05 00 
  40b1c8:	30 00 00 00 	sb $2,0($3)
  40b1cc:	00 00 02 03 
  40b1d0:	4f 00 00 00 	andi $2,$2,255
  40b1d4:	ff 00 02 02 
  40b1d8:	01 00 00 00 	j 40b1f8 <__printf_fp+0x578>
  40b1dc:	7e 2c 10 00 
  40b1e0:	42 00 00 00 	addu $4,$0,$22
  40b1e4:	00 04 16 00 
  40b1e8:	4f 00 00 00 	andi $5,$5,255
  40b1ec:	ff 00 05 05 
  40b1f0:	02 00 00 00 	jal 408380 <__flshfp>
  40b1f4:	e0 20 10 00 
  40b1f8:	05 00 00 00 	beq $2,$18,40afa0 <__printf_fp+0x320>
  40b1fc:	68 ff 12 02 
  40b200:	28 00 00 00 	lw $9,1688($30)
  40b204:	98 06 09 1e 
  40b208:	43 00 00 00 	addiu $9,$9,1
  40b20c:	01 00 09 09 
  40b210:	34 00 00 00 	sw $9,1688($30)
  40b214:	98 06 09 1e 
  40b218:	42 00 00 00 	addu $2,$0,$17
  40b21c:	00 02 11 00 
  40b220:	43 00 00 00 	addiu $17,$17,-1
  40b224:	ff ff 11 11 
  40b228:	06 00 00 00 	bne $2,$0,40b180 <__printf_fp+0x500>
  40b22c:	d4 ff 00 02 
  40b230:	28 00 00 00 	lw $9,1680($30)
  40b234:	90 06 09 1e 
  40b238:	28 00 00 00 	lw $2,8($9)
  40b23c:	08 00 02 09 
  40b240:	4f 00 00 00 	andi $2,$2,8192
  40b244:	00 20 02 02 
  40b248:	05 00 00 00 	beq $2,$0,40f670 <__printf_fp+0x49f0>
  40b24c:	08 11 00 02 
  40b250:	42 00 00 00 	addu $2,$0,$16
  40b254:	00 02 10 00 
  40b258:	43 00 00 00 	addiu $16,$16,-1
  40b25c:	ff ff 10 10 
  40b260:	07 00 00 00 	blez $2,40f670 <__printf_fp+0x49f0>
  40b264:	02 11 00 02 
  40b268:	43 00 00 00 	addiu $18,$0,-1
  40b26c:	ff ff 12 00 
  40b270:	43 00 00 00 	addiu $17,$0,32
  40b274:	20 00 11 00 
  40b278:	28 00 00 00 	lw $3,4($22)
  40b27c:	04 00 03 16 
  40b280:	28 00 00 00 	lw $2,12($22)
  40b284:	0c 00 02 16 
  40b288:	5d 00 00 00 	sltu $2,$3,$2
  40b28c:	00 02 02 03 
  40b290:	06 00 00 00 	bne $2,$0,40b2c0 <__printf_fp+0x640>
  40b294:	0a 00 00 02 
  40b298:	42 00 00 00 	addu $4,$0,$22
  40b29c:	00 04 16 00 
  40b2a0:	43 00 00 00 	addiu $5,$0,32
  40b2a4:	20 00 05 00 
  40b2a8:	02 00 00 00 	jal 408380 <__flshfp>
  40b2ac:	e0 20 10 00 
  40b2b0:	06 00 00 00 	bne $2,$18,40b2d8 <__printf_fp+0x658>
  40b2b4:	08 00 12 02 
  40b2b8:	01 00 00 00 	j 40afa0 <__printf_fp+0x320>
  40b2bc:	e8 2b 10 00 
  40b2c0:	43 00 00 00 	addiu $2,$3,1
  40b2c4:	01 00 02 03 
  40b2c8:	34 00 00 00 	sw $2,4($22)
  40b2cc:	04 00 02 16 
  40b2d0:	30 00 00 00 	sb $17,0($3)
  40b2d4:	00 00 11 03 
  40b2d8:	28 00 00 00 	lw $9,1688($30)
  40b2dc:	98 06 09 1e 
  40b2e0:	43 00 00 00 	addiu $9,$9,1
  40b2e4:	01 00 09 09 
  40b2e8:	34 00 00 00 	sw $9,1688($30)
  40b2ec:	98 06 09 1e 
  40b2f0:	42 00 00 00 	addu $2,$0,$16
  40b2f4:	00 02 10 00 
  40b2f8:	43 00 00 00 	addiu $16,$16,-1
  40b2fc:	ff ff 10 10 
  40b300:	08 00 00 00 	bgtz $2,40b278 <__printf_fp+0x5f8>
  40b304:	dc ff 00 02 
  40b308:	01 00 00 00 	j 40f670 <__printf_fp+0x49f0>
  40b30c:	9c 3d 10 00 
  40b310:	43 00 00 00 	addiu $4,$30,24
  40b314:	18 00 04 1e 
  40b318:	43 00 00 00 	addiu $5,$0,35
  40b31c:	23 00 05 00 
  40b320:	43 00 00 00 	addiu $6,$30,1524
  40b324:	f4 05 06 1e 
  40b328:	43 00 00 00 	addiu $7,$30,1528
  40b32c:	f8 05 07 1e 
  40b330:	36 00 00 00 	s.s $f20,16($29)
  40b334:	10 00 14 1d 
  40b338:	36 00 00 00 	s.s $f21,20($29)
  40b33c:	14 00 15 1d 
  40b340:	02 00 00 00 	jal 410400 <__mpn_extract_double>
  40b344:	00 41 10 00 
  40b348:	28 00 00 00 	lw $9,1712($30)
  40b34c:	b0 06 09 1e 
  40b350:	42 00 00 00 	addu $17,$0,$2
  40b354:	00 11 02 00 
  40b358:	43 00 00 00 	addiu $2,$0,-1
  40b35c:	ff ff 02 00 
  40b360:	06 00 00 00 	bne $9,$2,40b378 <__printf_fp+0x6f8>
  40b364:	04 00 02 09 
  40b368:	43 00 00 00 	addiu $9,$0,6
  40b36c:	06 00 09 00 
  40b370:	01 00 00 00 	j 40b3b8 <__printf_fp+0x738>
  40b374:	ee 2c 10 00 
  40b378:	28 00 00 00 	lw $9,1712($30)
  40b37c:	b0 06 09 1e 
  40b380:	06 00 00 00 	bne $9,$0,40b3c0 <__printf_fp+0x740>
  40b384:	0e 00 00 09 
  40b388:	22 00 00 00 	lbu $9,1704($30)
  40b38c:	a8 06 09 1e 
  40b390:	55 00 00 00 	sll $2,$9,0x18
  40b394:	18 02 09 00 
  40b398:	59 00 00 00 	sra $2,$2,0x18
  40b39c:	18 02 02 00 
  40b3a0:	43 00 00 00 	addiu $3,$0,103
  40b3a4:	67 00 03 00 
  40b3a8:	06 00 00 00 	bne $2,$3,40b4e0 <__printf_fp+0x860>
  40b3ac:	4c 00 03 02 
  40b3b0:	43 00 00 00 	addiu $9,$0,1
  40b3b4:	01 00 09 00 
  40b3b8:	34 00 00 00 	sw $9,1712($30)
  40b3bc:	b0 06 09 1e 
  40b3c0:	22 00 00 00 	lbu $9,1704($30)
  40b3c4:	a8 06 09 1e 
  40b3c8:	43 00 00 00 	addiu $3,$0,103
  40b3cc:	67 00 03 00 
  40b3d0:	55 00 00 00 	sll $2,$9,0x18
  40b3d4:	18 02 09 00 
  40b3d8:	59 00 00 00 	sra $2,$2,0x18
  40b3dc:	18 02 02 00 
  40b3e0:	06 00 00 00 	bne $2,$3,40b4e0 <__printf_fp+0x860>
  40b3e4:	3e 00 03 02 
  40b3e8:	a5 00 00 00 	mtc1 $0,$f0
  40b3ec:	00 00 00 00 
  40b3f0:	a5 00 00 00 	mtc1 $0,$f1
  40b3f4:	00 00 00 01 
  40b3f8:	91 00 00 00 	c.eq.d $f20,$f0
  40b3fc:	00 00 00 14 
  40b400:	0c 00 00 00 	bc1t 40b4c8 <__printf_fp+0x848>
  40b404:	30 00 00 00 
  40b408:	28 00 00 00 	lw $2,1528($30)
  40b40c:	f8 05 02 1e 
  40b410:	05 00 00 00 	beq $2,$0,40b420 <__printf_fp+0x7a0>
  40b414:	02 00 00 02 
  40b418:	7d 00 00 00 	neg.d $f20,$f20
  40b41c:	00 14 00 14 
  40b420:	2a 00 00 00 	l.s $f0,-32536($28)
  40b424:	e8 80 00 1c 
  40b428:	2a 00 00 00 	l.s $f1,-32532($28)
  40b42c:	ec 80 01 1c 
  40b430:	93 00 00 00 	c.lt.d $f20,$f0
  40b434:	00 00 00 14 
  40b438:	0c 00 00 00 	bc1t 40b4b8 <__printf_fp+0x838>
  40b43c:	1e 00 00 00 
  40b440:	28 00 00 00 	lw $21,1712($30)
  40b444:	b0 06 15 1e 
  40b448:	2a 00 00 00 	l.s $f0,-32528($28)
  40b44c:	f0 80 00 1c 
  40b450:	2a 00 00 00 	l.s $f1,-32524($28)
  40b454:	f4 80 01 1c 
  40b458:	5c 00 00 00 	slti $2,$21,54
  40b45c:	36 00 02 15 
  40b460:	06 00 00 00 	bne $2,$0,40b470 <__printf_fp+0x7f0>
  40b464:	02 00 00 02 
  40b468:	43 00 00 00 	addiu $21,$0,53
  40b46c:	35 00 15 00 
  40b470:	43 00 00 00 	addiu $21,$21,-1
  40b474:	ff ff 15 15 
  40b478:	07 00 00 00 	blez $21,40b4b8 <__printf_fp+0x838>
  40b47c:	0e 00 00 15 
  40b480:	7b 00 00 00 	mov.d $f2,$f0
  40b484:	00 02 00 00 
  40b488:	75 00 00 00 	mul.d $f0,$f0,$f2
  40b48c:	00 00 02 00 
  40b490:	93 00 00 00 	c.lt.d $f20,$f0
  40b494:	00 00 00 14 
  40b498:	0c 00 00 00 	bc1t 40b4b0 <__printf_fp+0x830>
  40b49c:	04 00 00 00 
  40b4a0:	43 00 00 00 	addiu $21,$21,-1
  40b4a4:	ff ff 15 15 
  40b4a8:	08 00 00 00 	bgtz $21,40b488 <__printf_fp+0x808>
  40b4ac:	f6 ff 00 15 
  40b4b0:	08 00 00 00 	bgtz $21,40b4c8 <__printf_fp+0x848>
  40b4b4:	04 00 00 15 
  40b4b8:	43 00 00 00 	addiu $9,$0,101
  40b4bc:	65 00 09 00 
  40b4c0:	30 00 00 00 	sb $9,1704($30)
  40b4c4:	a8 06 09 1e 
  40b4c8:	28 00 00 00 	lw $9,1712($30)
  40b4cc:	b0 06 09 1e 
  40b4d0:	43 00 00 00 	addiu $9,$9,-1
  40b4d4:	ff ff 09 09 
  40b4d8:	34 00 00 00 	sw $9,1712($30)
  40b4dc:	b0 06 09 1e 
  40b4e0:	43 00 00 00 	addiu $2,$0,1
  40b4e4:	01 00 02 00 
  40b4e8:	06 00 00 00 	bne $17,$2,40b6b8 <__printf_fp+0xa38>
  40b4ec:	72 00 02 11 
  40b4f0:	28 00 00 00 	lw $2,24($30)
  40b4f4:	18 00 02 1e 
  40b4f8:	06 00 00 00 	bne $2,$0,40b6b8 <__printf_fp+0xa38>
  40b4fc:	6e 00 00 02 
  40b500:	43 00 00 00 	addiu $2,$0,48
  40b504:	30 00 02 00 
  40b508:	30 00 00 00 	sb $2,0($23)
  40b50c:	00 00 02 17 
  40b510:	28 00 00 00 	lw $9,1680($30)
  40b514:	90 06 09 1e 
  40b518:	22 00 00 00 	lbu $2,8($9)
  40b51c:	08 00 02 09 
  40b520:	28 00 00 00 	lw $3,-32572($28)
  40b524:	c4 80 03 1c 
  40b528:	55 00 00 00 	sll $2,$2,0x1
  40b52c:	01 02 02 00 
  40b530:	42 00 00 00 	addu $2,$2,$3
  40b534:	00 02 03 02 
  40b538:	24 00 00 00 	lh $3,0($2)
  40b53c:	00 00 03 02 
  40b540:	43 00 00 00 	addiu $23,$23,1
  40b544:	01 00 17 17 
  40b548:	43 00 00 00 	addiu $2,$0,103
  40b54c:	67 00 02 00 
  40b550:	06 00 00 00 	bne $3,$2,40b570 <__printf_fp+0x8f0>
  40b554:	06 00 02 03 
  40b558:	28 00 00 00 	lw $2,8($9)
  40b55c:	08 00 02 09 
  40b560:	4f 00 00 00 	andi $2,$2,2048
  40b564:	00 08 02 02 
  40b568:	05 00 00 00 	beq $2,$0,40b628 <__printf_fp+0x9a8>
  40b56c:	2e 00 00 02 
  40b570:	28 00 00 00 	lw $9,1712($30)
  40b574:	b0 06 09 1e 
  40b578:	08 00 00 00 	bgtz $9,40b5a0 <__printf_fp+0x920>
  40b57c:	08 00 00 09 
  40b580:	28 00 00 00 	lw $9,1680($30)
  40b584:	90 06 09 1e 
  40b588:	28 00 00 00 	lw $2,8($9)
  40b58c:	08 00 02 09 
  40b590:	4f 00 00 00 	andi $2,$2,2048
  40b594:	00 08 02 02 
  40b598:	05 00 00 00 	beq $2,$0,40b5c0 <__printf_fp+0x940>
  40b59c:	08 00 00 02 
  40b5a0:	28 00 00 00 	lw $9,1696($30)
  40b5a4:	a0 06 09 1e 
  40b5a8:	22 00 00 00 	lbu $2,0($9)
  40b5ac:	00 00 02 09 
  40b5b0:	30 00 00 00 	sb $2,0($23)
  40b5b4:	00 00 02 17 
  40b5b8:	43 00 00 00 	addiu $23,$23,1
  40b5bc:	01 00 17 17 
  40b5c0:	28 00 00 00 	lw $2,1712($30)
  40b5c4:	b0 06 02 1e 
  40b5c8:	42 00 00 00 	addu $9,$0,$2
  40b5cc:	00 09 02 00 
  40b5d0:	43 00 00 00 	addiu $9,$9,-1
  40b5d4:	ff ff 09 09 
  40b5d8:	34 00 00 00 	sw $9,1712($30)
  40b5dc:	b0 06 09 1e 
  40b5e0:	07 00 00 00 	blez $2,40b628 <__printf_fp+0x9a8>
  40b5e4:	10 00 00 02 
  40b5e8:	43 00 00 00 	addiu $3,$0,48
  40b5ec:	30 00 03 00 
  40b5f0:	30 00 00 00 	sb $3,0($23)
  40b5f4:	00 00 03 17 
  40b5f8:	28 00 00 00 	lw $2,1712($30)
  40b5fc:	b0 06 02 1e 
  40b600:	43 00 00 00 	addiu $23,$23,1
  40b604:	01 00 17 17 
  40b608:	42 00 00 00 	addu $9,$0,$2
  40b60c:	00 09 02 00 
  40b610:	43 00 00 00 	addiu $9,$9,-1
  40b614:	ff ff 09 09 
  40b618:	34 00 00 00 	sw $9,1712($30)
  40b61c:	b0 06 09 1e 
  40b620:	08 00 00 00 	bgtz $2,40b5f0 <__printf_fp+0x970>
  40b624:	f2 ff 00 02 
  40b628:	22 00 00 00 	lbu $9,1704($30)
  40b62c:	a8 06 09 1e 
  40b630:	43 00 00 00 	addiu $3,$0,101
  40b634:	65 00 03 00 
  40b638:	55 00 00 00 	sll $2,$9,0x18
  40b63c:	18 02 09 00 
  40b640:	59 00 00 00 	sra $2,$2,0x18
  40b644:	18 02 02 00 
  40b648:	06 00 00 00 	bne $2,$3,40f118 <__printf_fp+0x4498>
  40b64c:	b2 0e 03 02 
  40b650:	28 00 00 00 	lw $9,1680($30)
  40b654:	90 06 09 1e 
  40b658:	22 00 00 00 	lbu $2,8($9)
  40b65c:	08 00 02 09 
  40b660:	30 00 00 00 	sb $2,0($23)
  40b664:	00 00 02 17 
  40b668:	43 00 00 00 	addiu $23,$23,1
  40b66c:	01 00 17 17 
  40b670:	43 00 00 00 	addiu $2,$0,43
  40b674:	2b 00 02 00 
  40b678:	30 00 00 00 	sb $2,0($23)
  40b67c:	00 00 02 17 
  40b680:	43 00 00 00 	addiu $23,$23,1
  40b684:	01 00 17 17 
  40b688:	43 00 00 00 	addiu $2,$0,48
  40b68c:	30 00 02 00 
  40b690:	30 00 00 00 	sb $2,0($23)
  40b694:	00 00 02 17 
  40b698:	43 00 00 00 	addiu $23,$23,1
  40b69c:	01 00 17 17 
  40b6a0:	30 00 00 00 	sb $2,0($23)
  40b6a4:	00 00 02 17 
  40b6a8:	43 00 00 00 	addiu $23,$23,1
  40b6ac:	01 00 17 17 
  40b6b0:	01 00 00 00 	j 40f118 <__printf_fp+0x4498>
  40b6b4:	46 3c 10 00 
  40b6b8:	28 00 00 00 	lw $3,1524($30)
  40b6bc:	f4 05 03 1e 
  40b6c0:	28 00 00 00 	lw $9,1712($30)
  40b6c4:	b0 06 09 1e 
  40b6c8:	34 00 00 00 	sw $0,1516($30)
  40b6cc:	ec 05 00 1e 
  40b6d0:	45 00 00 00 	subu $2,$0,$9
  40b6d4:	00 02 09 00 
  40b6d8:	34 00 00 00 	sw $2,1520($30)
  40b6dc:	f0 05 02 1e 
  40b6e0:	5c 00 00 00 	slti $2,$3,54
  40b6e4:	36 00 02 03 
  40b6e8:	06 00 00 00 	bne $2,$0,40ba30 <__printf_fp+0xdb0>
  40b6ec:	d0 00 00 02 
  40b6f0:	42 00 00 00 	addu $4,$0,$0
  40b6f4:	00 04 00 00 
  40b6f8:	42 00 00 00 	addu $5,$0,$3
  40b6fc:	00 05 03 00 
  40b700:	43 00 00 00 	addiu $3,$30,24
  40b704:	18 00 03 1e 
  40b708:	43 00 00 00 	addiu $2,$5,-53
  40b70c:	cb ff 02 05 
  40b710:	0a 00 00 00 	bgez $2,40b720 <__printf_fp+0xaa0>
  40b714:	02 00 00 02 
  40b718:	43 00 00 00 	addiu $2,$5,-22
  40b71c:	ea ff 02 05 
  40b720:	59 00 00 00 	sra $2,$2,0x5
  40b724:	05 02 02 00 
  40b728:	5b 00 00 00 	slt $2,$4,$2
  40b72c:	00 02 02 04 
  40b730:	05 00 00 00 	beq $2,$0,40b758 <__printf_fp+0xad8>
  40b734:	08 00 00 02 
  40b738:	34 00 00 00 	sw $0,864($3)
  40b73c:	60 03 00 03 
  40b740:	43 00 00 00 	addiu $3,$3,4
  40b744:	04 00 03 03 
  40b748:	43 00 00 00 	addiu $4,$4,1
  40b74c:	01 00 04 04 
  40b750:	01 00 00 00 	j 40b708 <__printf_fp+0xa88>
  40b754:	c2 2d 10 00 
  40b758:	28 00 00 00 	lw $3,1524($30)
  40b75c:	f4 05 03 1e 
  40b760:	43 00 00 00 	addiu $8,$3,-53
  40b764:	cb ff 08 03 
  40b768:	4f 00 00 00 	andi $2,$8,31
  40b76c:	1f 00 02 08 
  40b770:	06 00 00 00 	bne $2,$0,40b850 <__printf_fp+0xbd0>
  40b774:	36 00 00 02 
  40b778:	42 00 00 00 	addu $5,$0,$0
  40b77c:	00 05 00 00 
  40b780:	07 00 00 00 	blez $17,40b810 <__printf_fp+0xb90>
  40b784:	22 00 00 11 
  40b788:	42 00 00 00 	addu $7,$0,$3
  40b78c:	00 07 03 00 
  40b790:	43 00 00 00 	addiu $6,$30,24
  40b794:	18 00 06 1e 
  40b798:	42 00 00 00 	addu $8,$0,$6
  40b79c:	00 08 06 00 
  40b7a0:	43 00 00 00 	addiu $2,$7,-53
  40b7a4:	cb ff 02 07 
  40b7a8:	0a 00 00 00 	bgez $2,40b7b8 <__printf_fp+0xb38>
  40b7ac:	02 00 00 02 
  40b7b0:	43 00 00 00 	addiu $2,$7,-22
  40b7b4:	ea ff 02 07 
  40b7b8:	28 00 00 00 	lw $4,0($6)
  40b7bc:	00 00 04 06 
  40b7c0:	55 00 00 00 	sll $3,$5,0x2
  40b7c4:	02 03 05 00 
  40b7c8:	43 00 00 00 	addiu $5,$5,1
  40b7cc:	01 00 05 05 
  40b7d0:	59 00 00 00 	sra $2,$2,0x5
  40b7d4:	05 02 02 00 
  40b7d8:	55 00 00 00 	sll $2,$2,0x2
  40b7dc:	02 02 02 00 
  40b7e0:	42 00 00 00 	addu $2,$2,$8
  40b7e4:	00 02 08 02 
  40b7e8:	42 00 00 00 	addu $3,$3,$2
  40b7ec:	00 03 02 03 
  40b7f0:	5b 00 00 00 	slt $2,$5,$17
  40b7f4:	00 02 11 05 
  40b7f8:	43 00 00 00 	addiu $6,$6,4
  40b7fc:	04 00 06 06 
  40b800:	34 00 00 00 	sw $4,864($3)
  40b804:	60 03 04 03 
  40b808:	06 00 00 00 	bne $2,$0,40b7a0 <__printf_fp+0xb20>
  40b80c:	e4 ff 00 02 
  40b810:	28 00 00 00 	lw $3,1524($30)
  40b814:	f4 05 03 1e 
  40b818:	43 00 00 00 	addiu $2,$3,-53
  40b81c:	cb ff 02 03 
  40b820:	0a 00 00 00 	bgez $2,40b830 <__printf_fp+0xbb0>
  40b824:	02 00 00 02 
  40b828:	43 00 00 00 	addiu $2,$3,-22
  40b82c:	ea ff 02 03 
  40b830:	59 00 00 00 	sra $2,$2,0x5
  40b834:	05 02 02 00 
  40b838:	42 00 00 00 	addu $2,$17,$2
  40b83c:	00 02 02 11 
  40b840:	34 00 00 00 	sw $2,1472($30)
  40b844:	c0 05 02 1e 
  40b848:	01 00 00 00 	j 40b930 <__printf_fp+0xcb0>
  40b84c:	4c 2e 10 00 
  40b850:	42 00 00 00 	addu $7,$0,$8
  40b854:	00 07 08 00 
  40b858:	43 00 00 00 	addiu $2,$30,888
  40b85c:	78 03 02 1e 
  40b860:	0a 00 00 00 	bgez $8,40b870 <__printf_fp+0xbf0>
  40b864:	02 00 00 08 
  40b868:	43 00 00 00 	addiu $7,$3,-22
  40b86c:	ea ff 07 03 
  40b870:	59 00 00 00 	sra $7,$7,0x5
  40b874:	05 07 07 00 
  40b878:	55 00 00 00 	sll $4,$7,0x2
  40b87c:	02 04 07 00 
  40b880:	42 00 00 00 	addu $4,$2,$4
  40b884:	00 04 04 02 
  40b888:	43 00 00 00 	addiu $5,$30,24
  40b88c:	18 00 05 1e 
  40b890:	42 00 00 00 	addu $6,$0,$17
  40b894:	00 06 11 00 
  40b898:	55 00 00 00 	sll $7,$7,0x5
  40b89c:	05 07 07 00 
  40b8a0:	45 00 00 00 	subu $7,$8,$7
  40b8a4:	00 07 07 08 
  40b8a8:	02 00 00 00 	jal 410500 <__mpn_lshift>
  40b8ac:	40 41 10 00 
  40b8b0:	28 00 00 00 	lw $3,1524($30)
  40b8b4:	f4 05 03 1e 
  40b8b8:	42 00 00 00 	addu $4,$0,$2
  40b8bc:	00 04 02 00 
  40b8c0:	34 00 00 00 	sw $4,1468($30)
  40b8c4:	bc 05 04 1e 
  40b8c8:	43 00 00 00 	addiu $2,$3,-53
  40b8cc:	cb ff 02 03 
  40b8d0:	0a 00 00 00 	bgez $2,40b8e0 <__printf_fp+0xc60>
  40b8d4:	02 00 00 02 
  40b8d8:	43 00 00 00 	addiu $2,$3,-22
  40b8dc:	ea ff 02 03 
  40b8e0:	59 00 00 00 	sra $2,$2,0x5
  40b8e4:	05 02 02 00 
  40b8e8:	42 00 00 00 	addu $3,$17,$2
  40b8ec:	00 03 02 11 
  40b8f0:	34 00 00 00 	sw $3,1472($30)
  40b8f4:	c0 05 03 1e 
  40b8f8:	05 00 00 00 	beq $4,$0,40b930 <__printf_fp+0xcb0>
  40b8fc:	0c 00 00 04 
  40b900:	43 00 00 00 	addiu $2,$3,1
  40b904:	01 00 02 03 
  40b908:	34 00 00 00 	sw $2,1472($30)
  40b90c:	c0 05 02 1e 
  40b910:	55 00 00 00 	sll $2,$3,0x2
  40b914:	02 02 03 00 
  40b918:	43 00 00 00 	addiu $3,$30,24
  40b91c:	18 00 03 1e 
  40b920:	42 00 00 00 	addu $2,$2,$3
  40b924:	00 02 03 02 
  40b928:	34 00 00 00 	sw $4,864($2)
  40b92c:	60 03 04 02 
  40b930:	43 00 00 00 	addiu $2,$0,1
  40b934:	01 00 02 00 
  40b938:	34 00 00 00 	sw $2,168($30)
  40b93c:	a8 00 02 1e 
  40b940:	34 00 00 00 	sw $2,1480($30)
  40b944:	c8 05 02 1e 
  40b948:	42 00 00 00 	addu $4,$0,$0
  40b94c:	00 04 00 00 
  40b950:	28 00 00 00 	lw $5,1524($30)
  40b954:	f4 05 05 1e 
  40b958:	43 00 00 00 	addiu $3,$30,24
  40b95c:	18 00 03 1e 
  40b960:	43 00 00 00 	addiu $2,$5,-53
  40b964:	cb ff 02 05 
  40b968:	0a 00 00 00 	bgez $2,40b978 <__printf_fp+0xcf8>
  40b96c:	02 00 00 02 
  40b970:	43 00 00 00 	addiu $2,$5,-22
  40b974:	ea ff 02 05 
  40b978:	59 00 00 00 	sra $2,$2,0x5
  40b97c:	05 02 02 00 
  40b980:	5b 00 00 00 	slt $2,$4,$2
  40b984:	00 02 02 04 
  40b988:	05 00 00 00 	beq $2,$0,40b9b0 <__printf_fp+0xd30>
  40b98c:	08 00 00 02 
  40b990:	34 00 00 00 	sw $0,576($3)
  40b994:	40 02 00 03 
  40b998:	43 00 00 00 	addiu $3,$3,4
  40b99c:	04 00 03 03 
  40b9a0:	43 00 00 00 	addiu $4,$4,1
  40b9a4:	01 00 04 04 
  40b9a8:	01 00 00 00 	j 40b960 <__printf_fp+0xce0>
  40b9ac:	58 2e 10 00 
  40b9b0:	28 00 00 00 	lw $3,1524($30)
  40b9b4:	f4 05 03 1e 
  40b9b8:	43 00 00 00 	addiu $6,$3,-53
  40b9bc:	cb ff 06 03 
  40b9c0:	42 00 00 00 	addu $2,$0,$6
  40b9c4:	00 02 06 00 
  40b9c8:	0a 00 00 00 	bgez $6,40b9d8 <__printf_fp+0xd58>
  40b9cc:	02 00 00 06 
  40b9d0:	43 00 00 00 	addiu $2,$3,-22
  40b9d4:	ea ff 02 03 
  40b9d8:	59 00 00 00 	sra $5,$2,0x5
  40b9dc:	05 05 02 00 
  40b9e0:	55 00 00 00 	sll $4,$5,0x2
  40b9e4:	02 04 05 00 
  40b9e8:	43 00 00 00 	addiu $2,$30,24
  40b9ec:	18 00 02 1e 
  40b9f0:	42 00 00 00 	addu $4,$4,$2
  40b9f4:	00 04 02 04 
  40b9f8:	55 00 00 00 	sll $3,$5,0x5
  40b9fc:	05 03 05 00 
  40ba00:	45 00 00 00 	subu $3,$6,$3
  40ba04:	00 03 03 06 
  40ba08:	43 00 00 00 	addiu $2,$0,1
  40ba0c:	01 00 02 00 
  40ba10:	56 00 00 00 	sllv $2,$2,$3
  40ba14:	00 02 02 03 
  40ba18:	34 00 00 00 	sw $2,576($4)
  40ba1c:	40 02 02 04 
  40ba20:	43 00 00 00 	addiu $2,$5,1
  40ba24:	01 00 02 05 
  40ba28:	01 00 00 00 	j 40bb58 <__printf_fp+0xed8>
  40ba2c:	d6 2e 10 00 
  40ba30:	43 00 00 00 	addiu $4,$30,888
  40ba34:	78 03 04 1e 
  40ba38:	43 00 00 00 	addiu $16,$30,24
  40ba3c:	18 00 10 1e 
  40ba40:	42 00 00 00 	addu $5,$0,$16
  40ba44:	00 05 10 00 
  40ba48:	55 00 00 00 	sll $6,$17,0x2
  40ba4c:	02 06 11 00 
  40ba50:	34 00 00 00 	sw $17,1472($30)
  40ba54:	c0 05 11 1e 
  40ba58:	02 00 00 00 	jal 40fb00 <memcpy>
  40ba5c:	c0 3e 10 00 
  40ba60:	42 00 00 00 	addu $4,$0,$0
  40ba64:	00 04 00 00 
  40ba68:	43 00 00 00 	addiu $3,$0,53
  40ba6c:	35 00 03 00 
  40ba70:	28 00 00 00 	lw $5,1524($30)
  40ba74:	f4 05 05 1e 
  40ba78:	45 00 00 00 	subu $2,$3,$5
  40ba7c:	00 02 05 03 
  40ba80:	0a 00 00 00 	bgez $2,40ba90 <__printf_fp+0xe10>
  40ba84:	02 00 00 02 
  40ba88:	43 00 00 00 	addiu $2,$2,31
  40ba8c:	1f 00 02 02 
  40ba90:	59 00 00 00 	sra $2,$2,0x5
  40ba94:	05 02 02 00 
  40ba98:	5b 00 00 00 	slt $2,$4,$2
  40ba9c:	00 02 02 04 
  40baa0:	05 00 00 00 	beq $2,$0,40bac8 <__printf_fp+0xe48>
  40baa4:	08 00 00 02 
  40baa8:	34 00 00 00 	sw $0,144($16)
  40baac:	90 00 00 10 
  40bab0:	43 00 00 00 	addiu $16,$16,4
  40bab4:	04 00 10 10 
  40bab8:	43 00 00 00 	addiu $4,$4,1
  40babc:	01 00 04 04 
  40bac0:	01 00 00 00 	j 40ba78 <__printf_fp+0xdf8>
  40bac4:	9e 2e 10 00 
  40bac8:	28 00 00 00 	lw $2,1524($30)
  40bacc:	f4 05 02 1e 
  40bad0:	45 00 00 00 	subu $5,$3,$2
  40bad4:	00 05 02 03 
  40bad8:	42 00 00 00 	addu $2,$0,$5
  40badc:	00 02 05 00 
  40bae0:	0a 00 00 00 	bgez $5,40baf0 <__printf_fp+0xe70>
  40bae4:	02 00 00 05 
  40bae8:	43 00 00 00 	addiu $2,$5,31
  40baec:	1f 00 02 05 
  40baf0:	59 00 00 00 	sra $6,$2,0x5
  40baf4:	05 06 02 00 
  40baf8:	55 00 00 00 	sll $4,$6,0x2
  40bafc:	02 04 06 00 
  40bb00:	43 00 00 00 	addiu $2,$30,24
  40bb04:	18 00 02 1e 
  40bb08:	42 00 00 00 	addu $4,$4,$2
  40bb0c:	00 04 02 04 
  40bb10:	55 00 00 00 	sll $3,$6,0x5
  40bb14:	05 03 06 00 
  40bb18:	45 00 00 00 	subu $3,$5,$3
  40bb1c:	00 03 03 05 
  40bb20:	43 00 00 00 	addiu $2,$0,1
  40bb24:	01 00 02 00 
  40bb28:	56 00 00 00 	sllv $2,$2,$3
  40bb2c:	00 02 02 03 
  40bb30:	34 00 00 00 	sw $2,144($4)
  40bb34:	90 00 02 04 
  40bb38:	43 00 00 00 	addiu $2,$6,1
  40bb3c:	01 00 02 06 
  40bb40:	34 00 00 00 	sw $2,1480($30)
  40bb44:	c8 05 02 1e 
  40bb48:	43 00 00 00 	addiu $2,$0,1
  40bb4c:	01 00 02 00 
  40bb50:	34 00 00 00 	sw $2,600($30)
  40bb54:	58 02 02 1e 
  40bb58:	34 00 00 00 	sw $2,1492($30)
  40bb5c:	d4 05 02 1e 
  40bb60:	28 00 00 00 	lw $2,1492($30)
  40bb64:	d4 05 02 1e 
  40bb68:	43 00 00 00 	addiu $4,$30,744
  40bb6c:	e8 02 04 1e 
  40bb70:	43 00 00 00 	addiu $5,$30,600
  40bb74:	58 02 05 1e 
  40bb78:	55 00 00 00 	sll $6,$2,0x2
  40bb7c:	02 06 02 00 
  40bb80:	34 00 00 00 	sw $2,1496($30)
  40bb84:	d8 05 02 1e 
  40bb88:	02 00 00 00 	jal 40fb00 <memcpy>
  40bb8c:	c0 3e 10 00 
  40bb90:	42 00 00 00 	addu $3,$0,$0
  40bb94:	00 03 00 00 
  40bb98:	43 00 00 00 	addiu $2,$30,24
  40bb9c:	18 00 02 1e 
  40bba0:	34 00 00 00 	sw $0,1296($2)
  40bba4:	10 05 00 02 
  40bba8:	43 00 00 00 	addiu $2,$2,4
  40bbac:	04 00 02 02 
  40bbb0:	43 00 00 00 	addiu $3,$3,1
  40bbb4:	01 00 03 03 
  40bbb8:	07 00 00 00 	blez $3,40bba0 <__printf_fp+0xf20>
  40bbbc:	f8 ff 00 03 
  40bbc0:	a2 00 00 00 	lui $2,16
  40bbc4:	10 00 02 00 
  40bbc8:	34 00 00 00 	sw $2,1324($30)
  40bbcc:	2c 05 02 1e 
  40bbd0:	43 00 00 00 	addiu $2,$0,2
  40bbd4:	02 00 02 00 
  40bbd8:	34 00 00 00 	sw $2,1512($30)
  40bbdc:	e8 05 02 1e 
  40bbe0:	06 00 00 00 	bne $17,$2,40bd78 <__printf_fp+0x10f8>
  40bbe4:	64 00 02 11 
  40bbe8:	43 00 00 00 	addiu $4,$30,24
  40bbec:	18 00 04 1e 
  40bbf0:	43 00 00 00 	addiu $5,$30,1320
  40bbf4:	28 05 05 1e 
  40bbf8:	43 00 00 00 	addiu $6,$0,2
  40bbfc:	02 00 06 00 
  40bc00:	02 00 00 00 	jal 4105f0 <__mpn_cmp>
  40bc04:	7c 41 10 00 
  40bc08:	06 00 00 00 	bne $2,$0,40bd78 <__printf_fp+0x10f8>
  40bc0c:	5a 00 00 02 
  40bc10:	43 00 00 00 	addiu $4,$30,744
  40bc14:	e8 02 04 1e 
  40bc18:	28 00 00 00 	lw $6,1496($30)
  40bc1c:	d8 05 06 1e 
  40bc20:	42 00 00 00 	addu $5,$0,$4
  40bc24:	00 05 04 00 
  40bc28:	43 00 00 00 	addiu $7,$0,1
  40bc2c:	01 00 07 00 
  40bc30:	02 00 00 00 	jal 410500 <__mpn_lshift>
  40bc34:	40 41 10 00 
  40bc38:	42 00 00 00 	addu $4,$0,$2
  40bc3c:	00 04 02 00 
  40bc40:	34 00 00 00 	sw $4,1468($30)
  40bc44:	bc 05 04 1e 
  40bc48:	05 00 00 00 	beq $4,$0,40bc88 <__printf_fp+0x1008>
  40bc4c:	0e 00 00 04 
  40bc50:	28 00 00 00 	lw $2,1496($30)
  40bc54:	d8 05 02 1e 
  40bc58:	43 00 00 00 	addiu $3,$2,1
  40bc5c:	01 00 03 02 
  40bc60:	55 00 00 00 	sll $2,$2,0x2
  40bc64:	02 02 02 00 
  40bc68:	34 00 00 00 	sw $3,1496($30)
  40bc6c:	d8 05 03 1e 
  40bc70:	43 00 00 00 	addiu $3,$30,24
  40bc74:	18 00 03 1e 
  40bc78:	42 00 00 00 	addu $2,$2,$3
  40bc7c:	00 02 03 02 
  40bc80:	34 00 00 00 	sw $4,720($2)
  40bc84:	d0 02 04 02 
  40bc88:	43 00 00 00 	addiu $4,$30,888
  40bc8c:	78 03 04 1e 
  40bc90:	28 00 00 00 	lw $6,1472($30)
  40bc94:	c0 05 06 1e 
  40bc98:	42 00 00 00 	addu $5,$0,$4
  40bc9c:	00 05 04 00 
  40bca0:	43 00 00 00 	addiu $7,$0,1
  40bca4:	01 00 07 00 
  40bca8:	02 00 00 00 	jal 410500 <__mpn_lshift>
  40bcac:	40 41 10 00 
  40bcb0:	42 00 00 00 	addu $4,$0,$2
  40bcb4:	00 04 02 00 
  40bcb8:	34 00 00 00 	sw $4,1468($30)
  40bcbc:	bc 05 04 1e 
  40bcc0:	05 00 00 00 	beq $4,$0,40bd00 <__printf_fp+0x1080>
  40bcc4:	0e 00 00 04 
  40bcc8:	28 00 00 00 	lw $2,1472($30)
  40bccc:	c0 05 02 1e 
  40bcd0:	43 00 00 00 	addiu $3,$2,1
  40bcd4:	01 00 03 02 
  40bcd8:	55 00 00 00 	sll $2,$2,0x2
  40bcdc:	02 02 02 00 
  40bce0:	34 00 00 00 	sw $3,1472($30)
  40bce4:	c0 05 03 1e 
  40bce8:	43 00 00 00 	addiu $3,$30,24
  40bcec:	18 00 03 1e 
  40bcf0:	42 00 00 00 	addu $2,$2,$3
  40bcf4:	00 02 03 02 
  40bcf8:	34 00 00 00 	sw $4,864($2)
  40bcfc:	60 03 04 02 
  40bd00:	43 00 00 00 	addiu $4,$30,168
  40bd04:	a8 00 04 1e 
  40bd08:	28 00 00 00 	lw $6,1480($30)
  40bd0c:	c8 05 06 1e 
  40bd10:	42 00 00 00 	addu $5,$0,$4
  40bd14:	00 05 04 00 
  40bd18:	43 00 00 00 	addiu $7,$0,1
  40bd1c:	01 00 07 00 
  40bd20:	02 00 00 00 	jal 410500 <__mpn_lshift>
  40bd24:	40 41 10 00 
  40bd28:	42 00 00 00 	addu $4,$0,$2
  40bd2c:	00 04 02 00 
  40bd30:	34 00 00 00 	sw $4,1468($30)
  40bd34:	bc 05 04 1e 
  40bd38:	05 00 00 00 	beq $4,$0,40bd78 <__printf_fp+0x10f8>
  40bd3c:	0e 00 00 04 
  40bd40:	28 00 00 00 	lw $2,1480($30)
  40bd44:	c8 05 02 1e 
  40bd48:	43 00 00 00 	addiu $3,$2,1
  40bd4c:	01 00 03 02 
  40bd50:	55 00 00 00 	sll $2,$2,0x2
  40bd54:	02 02 02 00 
  40bd58:	34 00 00 00 	sw $3,1480($30)
  40bd5c:	c8 05 03 1e 
  40bd60:	43 00 00 00 	addiu $3,$30,24
  40bd64:	18 00 03 1e 
  40bd68:	42 00 00 00 	addu $2,$2,$3
  40bd6c:	00 02 03 02 
  40bd70:	34 00 00 00 	sw $4,144($2)
  40bd74:	90 00 04 02 
  40bd78:	43 00 00 00 	addiu $4,$30,456
  40bd7c:	c8 01 04 1e 
  40bd80:	28 00 00 00 	lw $6,1480($30)
  40bd84:	c8 05 06 1e 
  40bd88:	43 00 00 00 	addiu $5,$30,168
  40bd8c:	a8 00 05 1e 
  40bd90:	43 00 00 00 	addiu $7,$0,10
  40bd94:	0a 00 07 00 
  40bd98:	02 00 00 00 	jal 410690 <__mpn_divmod_1>
  40bd9c:	a4 41 10 00 
  40bda0:	05 00 00 00 	beq $2,$0,40bec8 <__printf_fp+0x1248>
  40bda4:	48 00 00 02 
  40bda8:	28 00 00 00 	lw $4,1480($30)
  40bdac:	c8 05 04 1e 
  40bdb0:	28 00 00 00 	lw $3,456($30)
  40bdb4:	c8 01 03 1e 
  40bdb8:	43 00 00 00 	addiu $6,$30,460
  40bdbc:	cc 01 06 1e 
  40bdc0:	42 00 00 00 	addu $5,$0,$6
  40bdc4:	00 05 06 00 
  40bdc8:	43 00 00 00 	addiu $2,$3,1
  40bdcc:	01 00 02 03 
  40bdd0:	34 00 00 00 	sw $2,456($30)
  40bdd4:	c8 01 02 1e 
  40bdd8:	5d 00 00 00 	sltu $2,$2,$3
  40bddc:	00 02 03 02 
  40bde0:	05 00 00 00 	beq $2,$0,40be48 <__printf_fp+0x11c8>
  40bde4:	18 00 00 02 
  40bde8:	43 00 00 00 	addiu $4,$4,-1
  40bdec:	ff ff 04 04 
  40bdf0:	05 00 00 00 	beq $4,$0,40be38 <__printf_fp+0x11b8>
  40bdf4:	10 00 00 04 
  40bdf8:	28 00 00 00 	lw $2,0($6)
  40bdfc:	00 00 02 06 
  40be00:	43 00 00 00 	addiu $3,$2,1
  40be04:	01 00 03 02 
  40be08:	43 00 00 00 	addiu $6,$6,4
  40be0c:	04 00 06 06 
  40be10:	34 00 00 00 	sw $3,0($5)
  40be14:	00 00 03 05 
  40be18:	43 00 00 00 	addiu $5,$5,4
  40be1c:	04 00 05 05 
  40be20:	06 00 00 00 	bne $3,$0,40be48 <__printf_fp+0x11c8>
  40be24:	08 00 00 03 
  40be28:	43 00 00 00 	addiu $4,$4,-1
  40be2c:	ff ff 04 04 
  40be30:	06 00 00 00 	bne $4,$0,40bdf8 <__printf_fp+0x1178>
  40be34:	f0 ff 00 04 
  40be38:	43 00 00 00 	addiu $2,$0,1
  40be3c:	01 00 02 00 
  40be40:	01 00 00 00 	j 40beb0 <__printf_fp+0x1230>
  40be44:	ac 2f 10 00 
  40be48:	05 00 00 00 	beq $5,$6,40bea8 <__printf_fp+0x1228>
  40be4c:	16 00 06 05 
  40be50:	42 00 00 00 	addu $3,$0,$0
  40be54:	00 03 00 00 
  40be58:	43 00 00 00 	addiu $7,$4,-1
  40be5c:	ff ff 07 04 
  40be60:	07 00 00 00 	blez $7,40bea8 <__printf_fp+0x1228>
  40be64:	10 00 00 07 
  40be68:	42 00 00 00 	addu $4,$0,$6
  40be6c:	00 04 06 00 
  40be70:	28 00 00 00 	lw $2,0($4)
  40be74:	00 00 02 04 
  40be78:	43 00 00 00 	addiu $3,$3,1
  40be7c:	01 00 03 03 
  40be80:	34 00 00 00 	sw $2,0($5)
  40be84:	00 00 02 05 
  40be88:	43 00 00 00 	addiu $5,$5,4
  40be8c:	04 00 05 05 
  40be90:	43 00 00 00 	addiu $4,$4,4
  40be94:	04 00 04 04 
  40be98:	5b 00 00 00 	slt $2,$3,$7
  40be9c:	00 02 07 03 
  40bea0:	06 00 00 00 	bne $2,$0,40be70 <__printf_fp+0x11f0>
  40bea4:	f2 ff 00 02 
  40bea8:	42 00 00 00 	addu $2,$0,$0
  40beac:	00 02 00 00 
  40beb0:	34 00 00 00 	sw $2,1468($30)
  40beb4:	bc 05 02 1e 
  40beb8:	05 00 00 00 	beq $2,$0,40bec8 <__printf_fp+0x1248>
  40bebc:	02 00 00 02 
  40bec0:	02 00 00 00 	jal 411510 <abort>
  40bec4:	44 45 10 00 
  40bec8:	28 00 00 00 	lw $16,1480($30)
  40becc:	c8 05 10 1e 
  40bed0:	28 00 00 00 	lw $6,1472($30)
  40bed4:	c0 05 06 1e 
  40bed8:	55 00 00 00 	sll $2,$16,0x2
  40bedc:	02 02 10 00 
  40bee0:	42 00 00 00 	addu $2,$30,$2
  40bee4:	00 02 02 1e 
  40bee8:	28 00 00 00 	lw $2,452($2)
  40beec:	c4 01 02 02 
  40bef0:	34 00 00 00 	sw $0,1464($30)
  40bef4:	b8 05 00 1e 
  40bef8:	5e 00 00 00 	sltiu $2,$2,1
  40befc:	01 00 02 02 
  40bf00:	45 00 00 00 	subu $16,$16,$2
  40bf04:	00 10 02 10 
  40bf08:	01 00 00 00 	j 40c0a0 <__printf_fp+0x1420>
  40bf0c:	28 30 10 00 
  40bf10:	43 00 00 00 	addiu $4,$30,888
  40bf14:	78 03 04 1e 
  40bf18:	43 00 00 00 	addiu $5,$30,456
  40bf1c:	c8 01 05 1e 
  40bf20:	02 00 00 00 	jal 4105f0 <__mpn_cmp>
  40bf24:	7c 41 10 00 
  40bf28:	0a 00 00 00 	bgez $2,40c0b8 <__printf_fp+0x1438>
  40bf2c:	62 00 00 02 
  40bf30:	43 00 00 00 	addiu $4,$30,888
  40bf34:	78 03 04 1e 
  40bf38:	42 00 00 00 	addu $5,$0,$4
  40bf3c:	00 05 04 00 
  40bf40:	28 00 00 00 	lw $2,1464($30)
  40bf44:	b8 05 02 1e 
  40bf48:	28 00 00 00 	lw $6,1472($30)
  40bf4c:	c0 05 06 1e 
  40bf50:	43 00 00 00 	addiu $7,$0,10
  40bf54:	0a 00 07 00 
  40bf58:	43 00 00 00 	addiu $2,$2,-1
  40bf5c:	ff ff 02 02 
  40bf60:	34 00 00 00 	sw $2,1464($30)
  40bf64:	b8 05 02 1e 
  40bf68:	02 00 00 00 	jal 411520 <__mpn_mul_1>
  40bf6c:	48 45 10 00 
  40bf70:	42 00 00 00 	addu $4,$0,$2
  40bf74:	00 04 02 00 
  40bf78:	05 00 00 00 	beq $4,$0,40bfb8 <__printf_fp+0x1338>
  40bf7c:	0e 00 00 04 
  40bf80:	28 00 00 00 	lw $2,1472($30)
  40bf84:	c0 05 02 1e 
  40bf88:	43 00 00 00 	addiu $3,$2,1
  40bf8c:	01 00 03 02 
  40bf90:	55 00 00 00 	sll $2,$2,0x2
  40bf94:	02 02 02 00 
  40bf98:	34 00 00 00 	sw $3,1472($30)
  40bf9c:	c0 05 03 1e 
  40bfa0:	43 00 00 00 	addiu $3,$30,24
  40bfa4:	18 00 03 1e 
  40bfa8:	42 00 00 00 	addu $2,$2,$3
  40bfac:	00 02 03 02 
  40bfb0:	34 00 00 00 	sw $4,864($2)
  40bfb4:	60 03 04 02 
  40bfb8:	43 00 00 00 	addiu $4,$30,600
  40bfbc:	58 02 04 1e 
  40bfc0:	28 00 00 00 	lw $6,1492($30)
  40bfc4:	d4 05 06 1e 
  40bfc8:	42 00 00 00 	addu $5,$0,$4
  40bfcc:	00 05 04 00 
  40bfd0:	43 00 00 00 	addiu $7,$0,10
  40bfd4:	0a 00 07 00 
  40bfd8:	02 00 00 00 	jal 411520 <__mpn_mul_1>
  40bfdc:	48 45 10 00 
  40bfe0:	42 00 00 00 	addu $4,$0,$2
  40bfe4:	00 04 02 00 
  40bfe8:	05 00 00 00 	beq $4,$0,40c028 <__printf_fp+0x13a8>
  40bfec:	0e 00 00 04 
  40bff0:	28 00 00 00 	lw $2,1492($30)
  40bff4:	d4 05 02 1e 
  40bff8:	43 00 00 00 	addiu $3,$2,1
  40bffc:	01 00 03 02 
  40c000:	55 00 00 00 	sll $2,$2,0x2
  40c004:	02 02 02 00 
  40c008:	34 00 00 00 	sw $3,1492($30)
  40c00c:	d4 05 03 1e 
  40c010:	43 00 00 00 	addiu $3,$30,24
  40c014:	18 00 03 1e 
  40c018:	42 00 00 00 	addu $2,$2,$3
  40c01c:	00 02 03 02 
  40c020:	34 00 00 00 	sw $4,576($2)
  40c024:	40 02 04 02 
  40c028:	43 00 00 00 	addiu $4,$30,744
  40c02c:	e8 02 04 1e 
  40c030:	28 00 00 00 	lw $6,1496($30)
  40c034:	d8 05 06 1e 
  40c038:	42 00 00 00 	addu $5,$0,$4
  40c03c:	00 05 04 00 
  40c040:	43 00 00 00 	addiu $7,$0,10
  40c044:	0a 00 07 00 
  40c048:	02 00 00 00 	jal 411520 <__mpn_mul_1>
  40c04c:	48 45 10 00 
  40c050:	42 00 00 00 	addu $4,$0,$2
  40c054:	00 04 02 00 
  40c058:	05 00 00 00 	beq $4,$0,40c098 <__printf_fp+0x1418>
  40c05c:	0e 00 00 04 
  40c060:	28 00 00 00 	lw $2,1496($30)
  40c064:	d8 05 02 1e 
  40c068:	43 00 00 00 	addiu $3,$2,1
  40c06c:	01 00 03 02 
  40c070:	55 00 00 00 	sll $2,$2,0x2
  40c074:	02 02 02 00 
  40c078:	34 00 00 00 	sw $3,1496($30)
  40c07c:	d8 05 03 1e 
  40c080:	43 00 00 00 	addiu $3,$30,24
  40c084:	18 00 03 1e 
  40c088:	42 00 00 00 	addu $2,$2,$3
  40c08c:	00 02 03 02 
  40c090:	34 00 00 00 	sw $4,720($2)
  40c094:	d0 02 04 02 
  40c098:	28 00 00 00 	lw $6,1472($30)
  40c09c:	c0 05 06 1e 
  40c0a0:	5b 00 00 00 	slt $2,$6,$16
  40c0a4:	00 02 10 06 
  40c0a8:	06 00 00 00 	bne $2,$0,40bf30 <__printf_fp+0x12b0>
  40c0ac:	a0 ff 00 02 
  40c0b0:	05 00 00 00 	beq $6,$16,40bf10 <__printf_fp+0x1290>
  40c0b4:	96 ff 10 06 
  40c0b8:	43 00 00 00 	addiu $9,$30,1032
  40c0bc:	08 04 09 1e 
  40c0c0:	43 00 00 00 	addiu $20,$30,24
  40c0c4:	18 00 14 1e 
  40c0c8:	34 00 00 00 	sw $9,1736($30)
  40c0cc:	c8 06 09 1e 
  40c0d0:	43 00 00 00 	addiu $9,$30,168
  40c0d4:	a8 00 09 1e 
  40c0d8:	43 00 00 00 	addiu $21,$30,1536
  40c0dc:	00 06 15 1e 
  40c0e0:	34 00 00 00 	sw $9,1744($30)
  40c0e4:	d0 06 09 1e 
  40c0e8:	43 00 00 00 	addiu $9,$30,1532
  40c0ec:	fc 05 09 1e 
  40c0f0:	34 00 00 00 	sw $9,1752($30)
  40c0f4:	d8 06 09 1e 
  40c0f8:	43 00 00 00 	addiu $9,$30,744
  40c0fc:	e8 02 09 1e 
  40c100:	34 00 00 00 	sw $9,1760($30)
  40c104:	e0 06 09 1e 
  40c108:	28 00 00 00 	lw $4,1736($30)
  40c10c:	c8 06 04 1e 
  40c110:	28 00 00 00 	lw $6,1472($30)
  40c114:	c0 05 06 1e 
  40c118:	43 00 00 00 	addiu $5,$30,888
  40c11c:	78 03 05 1e 
  40c120:	43 00 00 00 	addiu $7,$0,1
  40c124:	01 00 07 00 
  40c128:	02 00 00 00 	jal 410500 <__mpn_lshift>
  40c12c:	40 41 10 00 
  40c130:	28 00 00 00 	lw $3,1472($30)
  40c134:	c0 05 03 1e 
  40c138:	42 00 00 00 	addu $4,$0,$2
  40c13c:	00 04 02 00 
  40c140:	34 00 00 00 	sw $3,1488($30)
  40c144:	d0 05 03 1e 
  40c148:	05 00 00 00 	beq $4,$0,40c178 <__printf_fp+0x14f8>
  40c14c:	0a 00 00 04 
  40c150:	43 00 00 00 	addiu $2,$3,1
  40c154:	01 00 02 03 
  40c158:	34 00 00 00 	sw $2,1488($30)
  40c15c:	d0 05 02 1e 
  40c160:	55 00 00 00 	sll $2,$3,0x2
  40c164:	02 02 03 00 
  40c168:	42 00 00 00 	addu $2,$2,$20
  40c16c:	00 02 14 02 
  40c170:	34 00 00 00 	sw $4,1008($2)
  40c174:	f0 03 04 02 
  40c178:	28 00 00 00 	lw $17,1488($30)
  40c17c:	d0 05 11 1e 
  40c180:	28 00 00 00 	lw $16,1496($30)
  40c184:	d8 05 10 1e 
  40c188:	5b 00 00 00 	slt $2,$16,$17
  40c18c:	00 02 11 10 
  40c190:	05 00 00 00 	beq $2,$0,40c328 <__printf_fp+0x16a8>
  40c194:	64 00 00 02 
  40c198:	42 00 00 00 	addu $5,$0,$0
  40c19c:	00 05 00 00 
  40c1a0:	43 00 00 00 	addiu $18,$30,1320
  40c1a4:	28 05 12 1e 
  40c1a8:	05 00 00 00 	beq $16,$0,40c1e0 <__printf_fp+0x1560>
  40c1ac:	0c 00 00 10 
  40c1b0:	42 00 00 00 	addu $4,$0,$18
  40c1b4:	00 04 12 00 
  40c1b8:	28 00 00 00 	lw $5,1736($30)
  40c1bc:	c8 06 05 1e 
  40c1c0:	43 00 00 00 	addiu $6,$30,744
  40c1c4:	e8 02 06 1e 
  40c1c8:	42 00 00 00 	addu $7,$0,$16
  40c1cc:	00 07 10 00 
  40c1d0:	02 00 00 00 	jal 4115b0 <__mpn_add_n>
  40c1d4:	6c 45 10 00 
  40c1d8:	42 00 00 00 	addu $5,$0,$2
  40c1dc:	00 05 02 00 
  40c1e0:	05 00 00 00 	beq $17,$16,40c310 <__printf_fp+0x1690>
  40c1e4:	4a 00 10 11 
  40c1e8:	28 00 00 00 	lw $9,1736($30)
  40c1ec:	c8 06 09 1e 
  40c1f0:	55 00 00 00 	sll $2,$16,0x2
  40c1f4:	02 02 10 00 
  40c1f8:	42 00 00 00 	addu $6,$2,$9
  40c1fc:	00 06 09 02 
  40c200:	28 00 00 00 	lw $3,0($6)
  40c204:	00 00 03 06 
  40c208:	42 00 00 00 	addu $4,$2,$18
  40c20c:	00 04 12 02 
  40c210:	45 00 00 00 	subu $7,$17,$16
  40c214:	00 07 10 11 
  40c218:	43 00 00 00 	addiu $6,$6,4
  40c21c:	04 00 06 06 
  40c220:	42 00 00 00 	addu $2,$5,$3
  40c224:	00 02 03 05 
  40c228:	34 00 00 00 	sw $2,0($4)
  40c22c:	00 00 02 04 
  40c230:	43 00 00 00 	addiu $4,$4,4
  40c234:	04 00 04 04 
  40c238:	5d 00 00 00 	sltu $2,$2,$3
  40c23c:	00 02 03 02 
  40c240:	05 00 00 00 	beq $2,$0,40c2a8 <__printf_fp+0x1628>
  40c244:	18 00 00 02 
  40c248:	43 00 00 00 	addiu $7,$7,-1
  40c24c:	ff ff 07 07 
  40c250:	05 00 00 00 	beq $7,$0,40c298 <__printf_fp+0x1618>
  40c254:	10 00 00 07 
  40c258:	28 00 00 00 	lw $2,0($6)
  40c25c:	00 00 02 06 
  40c260:	43 00 00 00 	addiu $3,$2,1
  40c264:	01 00 03 02 
  40c268:	43 00 00 00 	addiu $6,$6,4
  40c26c:	04 00 06 06 
  40c270:	34 00 00 00 	sw $3,0($4)
  40c274:	00 00 03 04 
  40c278:	43 00 00 00 	addiu $4,$4,4
  40c27c:	04 00 04 04 
  40c280:	06 00 00 00 	bne $3,$0,40c2a8 <__printf_fp+0x1628>
  40c284:	08 00 00 03 
  40c288:	43 00 00 00 	addiu $7,$7,-1
  40c28c:	ff ff 07 07 
  40c290:	06 00 00 00 	bne $7,$0,40c258 <__printf_fp+0x15d8>
  40c294:	f0 ff 00 07 
  40c298:	43 00 00 00 	addiu $5,$0,1
  40c29c:	01 00 05 00 
  40c2a0:	01 00 00 00 	j 40c310 <__printf_fp+0x1690>
  40c2a4:	c4 30 10 00 
  40c2a8:	05 00 00 00 	beq $4,$6,40c308 <__printf_fp+0x1688>
  40c2ac:	16 00 06 04 
  40c2b0:	42 00 00 00 	addu $5,$0,$0
  40c2b4:	00 05 00 00 
  40c2b8:	43 00 00 00 	addiu $7,$7,-1
  40c2bc:	ff ff 07 07 
  40c2c0:	07 00 00 00 	blez $7,40c308 <__printf_fp+0x1688>
  40c2c4:	10 00 00 07 
  40c2c8:	42 00 00 00 	addu $3,$0,$6
  40c2cc:	00 03 06 00 
  40c2d0:	28 00 00 00 	lw $2,0($3)
  40c2d4:	00 00 02 03 
  40c2d8:	43 00 00 00 	addiu $5,$5,1
  40c2dc:	01 00 05 05 
  40c2e0:	34 00 00 00 	sw $2,0($4)
  40c2e4:	00 00 02 04 
  40c2e8:	43 00 00 00 	addiu $4,$4,4
  40c2ec:	04 00 04 04 
  40c2f0:	43 00 00 00 	addiu $3,$3,4
  40c2f4:	04 00 03 03 
  40c2f8:	5b 00 00 00 	slt $2,$5,$7
  40c2fc:	00 02 07 05 
  40c300:	06 00 00 00 	bne $2,$0,40c2d0 <__printf_fp+0x1650>
  40c304:	f2 ff 00 02 
  40c308:	42 00 00 00 	addu $5,$0,$0
  40c30c:	00 05 00 00 
  40c310:	28 00 00 00 	lw $2,1488($30)
  40c314:	d0 05 02 1e 
  40c318:	42 00 00 00 	addu $4,$0,$5
  40c31c:	00 04 05 00 
  40c320:	01 00 00 00 	j 40c4a8 <__printf_fp+0x1828>
  40c324:	2a 31 10 00 
  40c328:	42 00 00 00 	addu $6,$0,$0
  40c32c:	00 06 00 00 
  40c330:	43 00 00 00 	addiu $19,$30,1320
  40c334:	28 05 13 1e 
  40c338:	43 00 00 00 	addiu $18,$30,744
  40c33c:	e8 02 12 1e 
  40c340:	05 00 00 00 	beq $17,$0,40c378 <__printf_fp+0x16f8>
  40c344:	0c 00 00 11 
  40c348:	42 00 00 00 	addu $4,$0,$19
  40c34c:	00 04 13 00 
  40c350:	28 00 00 00 	lw $6,1736($30)
  40c354:	c8 06 06 1e 
  40c358:	42 00 00 00 	addu $5,$0,$18
  40c35c:	00 05 12 00 
  40c360:	42 00 00 00 	addu $7,$0,$17
  40c364:	00 07 11 00 
  40c368:	02 00 00 00 	jal 4115b0 <__mpn_add_n>
  40c36c:	6c 45 10 00 
  40c370:	42 00 00 00 	addu $6,$0,$2
  40c374:	00 06 02 00 
  40c378:	05 00 00 00 	beq $16,$17,40c498 <__printf_fp+0x1818>
  40c37c:	46 00 11 10 
  40c380:	55 00 00 00 	sll $2,$17,0x2
  40c384:	02 02 11 00 
  40c388:	42 00 00 00 	addu $5,$2,$18
  40c38c:	00 05 12 02 
  40c390:	28 00 00 00 	lw $3,0($5)
  40c394:	00 00 03 05 
  40c398:	42 00 00 00 	addu $4,$2,$19
  40c39c:	00 04 13 02 
  40c3a0:	45 00 00 00 	subu $7,$16,$17
  40c3a4:	00 07 11 10 
  40c3a8:	43 00 00 00 	addiu $5,$5,4
  40c3ac:	04 00 05 05 
  40c3b0:	42 00 00 00 	addu $2,$6,$3
  40c3b4:	00 02 03 06 
  40c3b8:	34 00 00 00 	sw $2,0($4)
  40c3bc:	00 00 02 04 
  40c3c0:	43 00 00 00 	addiu $4,$4,4
  40c3c4:	04 00 04 04 
  40c3c8:	5d 00 00 00 	sltu $2,$2,$3
  40c3cc:	00 02 03 02 
  40c3d0:	05 00 00 00 	beq $2,$0,40c438 <__printf_fp+0x17b8>
  40c3d4:	18 00 00 02 
  40c3d8:	43 00 00 00 	addiu $7,$7,-1
  40c3dc:	ff ff 07 07 
  40c3e0:	05 00 00 00 	beq $7,$0,40c428 <__printf_fp+0x17a8>
  40c3e4:	10 00 00 07 
  40c3e8:	28 00 00 00 	lw $2,0($5)
  40c3ec:	00 00 02 05 
  40c3f0:	43 00 00 00 	addiu $3,$2,1
  40c3f4:	01 00 03 02 
  40c3f8:	43 00 00 00 	addiu $5,$5,4
  40c3fc:	04 00 05 05 
  40c400:	34 00 00 00 	sw $3,0($4)
  40c404:	00 00 03 04 
  40c408:	43 00 00 00 	addiu $4,$4,4
  40c40c:	04 00 04 04 
  40c410:	06 00 00 00 	bne $3,$0,40c438 <__printf_fp+0x17b8>
  40c414:	08 00 00 03 
  40c418:	43 00 00 00 	addiu $7,$7,-1
  40c41c:	ff ff 07 07 
  40c420:	06 00 00 00 	bne $7,$0,40c3e8 <__printf_fp+0x1768>
  40c424:	f0 ff 00 07 
  40c428:	43 00 00 00 	addiu $6,$0,1
  40c42c:	01 00 06 00 
  40c430:	01 00 00 00 	j 40c498 <__printf_fp+0x1818>
  40c434:	26 31 10 00 
  40c438:	05 00 00 00 	beq $4,$5,40c490 <__printf_fp+0x1810>
  40c43c:	14 00 05 04 
  40c440:	42 00 00 00 	addu $3,$0,$0
  40c444:	00 03 00 00 
  40c448:	43 00 00 00 	addiu $7,$7,-1
  40c44c:	ff ff 07 07 
  40c450:	07 00 00 00 	blez $7,40c490 <__printf_fp+0x1810>
  40c454:	0e 00 00 07 
  40c458:	28 00 00 00 	lw $2,0($5)
  40c45c:	00 00 02 05 
  40c460:	43 00 00 00 	addiu $3,$3,1
  40c464:	01 00 03 03 
  40c468:	34 00 00 00 	sw $2,0($4)
  40c46c:	00 00 02 04 
  40c470:	43 00 00 00 	addiu $4,$4,4
  40c474:	04 00 04 04 
  40c478:	43 00 00 00 	addiu $5,$5,4
  40c47c:	04 00 05 05 
  40c480:	5b 00 00 00 	slt $2,$3,$7
  40c484:	00 02 07 03 
  40c488:	06 00 00 00 	bne $2,$0,40c458 <__printf_fp+0x17d8>
  40c48c:	f2 ff 00 02 
  40c490:	42 00 00 00 	addu $6,$0,$0
  40c494:	00 06 00 00 
  40c498:	28 00 00 00 	lw $2,1496($30)
  40c49c:	d8 05 02 1e 
  40c4a0:	42 00 00 00 	addu $4,$0,$6
  40c4a4:	00 04 06 00 
  40c4a8:	34 00 00 00 	sw $2,1512($30)
  40c4ac:	e8 05 02 1e 
  40c4b0:	05 00 00 00 	beq $4,$0,40c4e8 <__printf_fp+0x1868>
  40c4b4:	0c 00 00 04 
  40c4b8:	28 00 00 00 	lw $2,1512($30)
  40c4bc:	e8 05 02 1e 
  40c4c0:	43 00 00 00 	addiu $3,$2,1
  40c4c4:	01 00 03 02 
  40c4c8:	55 00 00 00 	sll $2,$2,0x2
  40c4cc:	02 02 02 00 
  40c4d0:	42 00 00 00 	addu $2,$2,$20
  40c4d4:	00 02 14 02 
  40c4d8:	34 00 00 00 	sw $3,1512($30)
  40c4dc:	e8 05 03 1e 
  40c4e0:	34 00 00 00 	sw $4,1296($2)
  40c4e4:	10 05 04 02 
  40c4e8:	43 00 00 00 	addiu $4,$30,312
  40c4ec:	38 01 04 1e 
  40c4f0:	28 00 00 00 	lw $6,1480($30)
  40c4f4:	c8 05 06 1e 
  40c4f8:	43 00 00 00 	addiu $5,$30,168
  40c4fc:	a8 00 05 1e 
  40c500:	43 00 00 00 	addiu $7,$0,1
  40c504:	01 00 07 00 
  40c508:	01 00 00 00 	j 40c5d0 <__printf_fp+0x1950>
  40c50c:	74 31 10 00 
  40c510:	43 00 00 00 	addiu $4,$30,1320
  40c514:	28 05 04 1e 
  40c518:	43 00 00 00 	addiu $5,$30,312
  40c51c:	38 01 05 1e 
  40c520:	02 00 00 00 	jal 4105f0 <__mpn_cmp>
  40c524:	7c 41 10 00 
  40c528:	09 00 00 00 	bltz $2,40c648 <__printf_fp+0x19c8>
  40c52c:	46 00 00 02 
  40c530:	28 00 00 00 	lw $4,1744($30)
  40c534:	d0 06 04 1e 
  40c538:	28 00 00 00 	lw $6,1480($30)
  40c53c:	c8 05 06 1e 
  40c540:	28 00 00 00 	lw $5,1744($30)
  40c544:	d0 06 05 1e 
  40c548:	43 00 00 00 	addiu $7,$0,10
  40c54c:	0a 00 07 00 
  40c550:	02 00 00 00 	jal 411520 <__mpn_mul_1>
  40c554:	48 45 10 00 
  40c558:	42 00 00 00 	addu $4,$0,$2
  40c55c:	00 04 02 00 
  40c560:	05 00 00 00 	beq $4,$0,40c598 <__printf_fp+0x1918>
  40c564:	0c 00 00 04 
  40c568:	28 00 00 00 	lw $2,1480($30)
  40c56c:	c8 05 02 1e 
  40c570:	43 00 00 00 	addiu $3,$2,1
  40c574:	01 00 03 02 
  40c578:	55 00 00 00 	sll $2,$2,0x2
  40c57c:	02 02 02 00 
  40c580:	42 00 00 00 	addu $2,$2,$20
  40c584:	00 02 14 02 
  40c588:	34 00 00 00 	sw $3,1480($30)
  40c58c:	c8 05 03 1e 
  40c590:	34 00 00 00 	sw $4,144($2)
  40c594:	90 00 04 02 
  40c598:	43 00 00 00 	addiu $4,$30,312
  40c59c:	38 01 04 1e 
  40c5a0:	28 00 00 00 	lw $5,1744($30)
  40c5a4:	d0 06 05 1e 
  40c5a8:	28 00 00 00 	lw $2,1464($30)
  40c5ac:	b8 05 02 1e 
  40c5b0:	28 00 00 00 	lw $6,1480($30)
  40c5b4:	c8 05 06 1e 
  40c5b8:	43 00 00 00 	addiu $7,$0,1
  40c5bc:	01 00 07 00 
  40c5c0:	43 00 00 00 	addiu $2,$2,1
  40c5c4:	01 00 02 02 
  40c5c8:	34 00 00 00 	sw $2,1464($30)
  40c5cc:	b8 05 02 1e 
  40c5d0:	02 00 00 00 	jal 410500 <__mpn_lshift>
  40c5d4:	40 41 10 00 
  40c5d8:	28 00 00 00 	lw $3,1480($30)
  40c5dc:	c8 05 03 1e 
  40c5e0:	42 00 00 00 	addu $4,$0,$2
  40c5e4:	00 04 02 00 
  40c5e8:	34 00 00 00 	sw $3,1504($30)
  40c5ec:	e0 05 03 1e 
  40c5f0:	05 00 00 00 	beq $4,$0,40c620 <__printf_fp+0x19a0>
  40c5f4:	0a 00 00 04 
  40c5f8:	43 00 00 00 	addiu $2,$3,1
  40c5fc:	01 00 02 03 
  40c600:	34 00 00 00 	sw $2,1504($30)
  40c604:	e0 05 02 1e 
  40c608:	55 00 00 00 	sll $2,$3,0x2
  40c60c:	02 02 03 00 
  40c610:	42 00 00 00 	addu $2,$2,$20
  40c614:	00 02 14 02 
  40c618:	34 00 00 00 	sw $4,288($2)
  40c61c:	20 01 04 02 
  40c620:	28 00 00 00 	lw $6,1512($30)
  40c624:	e8 05 06 1e 
  40c628:	28 00 00 00 	lw $3,1504($30)
  40c62c:	e0 05 03 1e 
  40c630:	5b 00 00 00 	slt $2,$3,$6
  40c634:	00 02 06 03 
  40c638:	06 00 00 00 	bne $2,$0,40c530 <__printf_fp+0x18b0>
  40c63c:	bc ff 00 02 
  40c640:	05 00 00 00 	beq $6,$3,40c510 <__printf_fp+0x1890>
  40c644:	b2 ff 03 06 
  40c648:	22 00 00 00 	lbu $9,1704($30)
  40c64c:	a8 06 09 1e 
  40c650:	43 00 00 00 	addiu $3,$0,101
  40c654:	65 00 03 00 
  40c658:	55 00 00 00 	sll $2,$9,0x18
  40c65c:	18 02 09 00 
  40c660:	59 00 00 00 	sra $2,$2,0x18
  40c664:	18 02 02 00 
  40c668:	06 00 00 00 	bne $2,$3,40c698 <__printf_fp+0x1a18>
  40c66c:	0a 00 03 02 
  40c670:	28 00 00 00 	lw $2,1520($30)
  40c674:	f0 05 02 1e 
  40c678:	28 00 00 00 	lw $3,1464($30)
  40c67c:	b8 05 03 1e 
  40c680:	43 00 00 00 	addiu $2,$2,-1
  40c684:	ff ff 02 02 
  40c688:	42 00 00 00 	addu $2,$2,$3
  40c68c:	00 02 03 02 
  40c690:	34 00 00 00 	sw $2,1520($30)
  40c694:	f0 05 02 1e 
  40c698:	28 00 00 00 	lw $16,1480($30)
  40c69c:	c8 05 10 1e 
  40c6a0:	28 00 00 00 	lw $3,1520($30)
  40c6a4:	f0 05 03 1e 
  40c6a8:	28 00 00 00 	lw $2,1464($30)
  40c6ac:	b8 05 02 1e 
  40c6b0:	43 00 00 00 	addiu $4,$30,1536
  40c6b4:	00 06 04 1e 
  40c6b8:	43 00 00 00 	addiu $5,$30,168
  40c6bc:	a8 00 05 1e 
  40c6c0:	45 00 00 00 	subu $18,$3,$2
  40c6c4:	00 12 02 03 
  40c6c8:	55 00 00 00 	sll $17,$16,0x2
  40c6cc:	02 11 10 00 
  40c6d0:	42 00 00 00 	addu $6,$0,$17
  40c6d4:	00 06 11 00 
  40c6d8:	02 00 00 00 	jal 40fb00 <memcpy>
  40c6dc:	c0 3e 10 00 
  40c6e0:	07 00 00 00 	blez $18,40c750 <__printf_fp+0x1ad0>
  40c6e4:	1a 00 00 12 
  40c6e8:	42 00 00 00 	addu $17,$17,$20
  40c6ec:	00 11 14 11 
  40c6f0:	42 00 00 00 	addu $4,$0,$21
  40c6f4:	00 04 15 00 
  40c6f8:	42 00 00 00 	addu $5,$0,$21
  40c6fc:	00 05 15 00 
  40c700:	42 00 00 00 	addu $6,$0,$16
  40c704:	00 06 10 00 
  40c708:	43 00 00 00 	addiu $7,$0,10
  40c70c:	0a 00 07 00 
  40c710:	02 00 00 00 	jal 411520 <__mpn_mul_1>
  40c714:	48 45 10 00 
  40c718:	42 00 00 00 	addu $4,$0,$2
  40c71c:	00 04 02 00 
  40c720:	05 00 00 00 	beq $4,$0,40c740 <__printf_fp+0x1ac0>
  40c724:	06 00 00 04 
  40c728:	34 00 00 00 	sw $4,1512($17)
  40c72c:	e8 05 04 11 
  40c730:	43 00 00 00 	addiu $17,$17,4
  40c734:	04 00 11 11 
  40c738:	43 00 00 00 	addiu $16,$16,1
  40c73c:	01 00 10 10 
  40c740:	43 00 00 00 	addiu $18,$18,-1
  40c744:	ff ff 12 12 
  40c748:	08 00 00 00 	bgtz $18,40c6f0 <__printf_fp+0x1a70>
  40c74c:	e8 ff 00 12 
  40c750:	0a 00 00 00 	bgez $18,40c8e0 <__printf_fp+0x1c60>
  40c754:	62 00 00 12 
  40c758:	42 00 00 00 	addu $4,$0,$21
  40c75c:	00 04 15 00 
  40c760:	42 00 00 00 	addu $5,$0,$21
  40c764:	00 05 15 00 
  40c768:	42 00 00 00 	addu $6,$0,$16
  40c76c:	00 06 10 00 
  40c770:	43 00 00 00 	addiu $7,$0,10
  40c774:	0a 00 07 00 
  40c778:	02 00 00 00 	jal 410690 <__mpn_divmod_1>
  40c77c:	a4 41 10 00 
  40c780:	05 00 00 00 	beq $2,$0,40c8a0 <__printf_fp+0x1c20>
  40c784:	46 00 00 02 
  40c788:	42 00 00 00 	addu $4,$0,$16
  40c78c:	00 04 10 00 
  40c790:	28 00 00 00 	lw $3,1536($30)
  40c794:	00 06 03 1e 
  40c798:	43 00 00 00 	addiu $6,$30,1540
  40c79c:	04 06 06 1e 
  40c7a0:	42 00 00 00 	addu $5,$0,$6
  40c7a4:	00 05 06 00 
  40c7a8:	43 00 00 00 	addiu $2,$3,1
  40c7ac:	01 00 02 03 
  40c7b0:	34 00 00 00 	sw $2,1536($30)
  40c7b4:	00 06 02 1e 
  40c7b8:	5d 00 00 00 	sltu $2,$2,$3
  40c7bc:	00 02 03 02 
  40c7c0:	05 00 00 00 	beq $2,$0,40c828 <__printf_fp+0x1ba8>
  40c7c4:	18 00 00 02 
  40c7c8:	43 00 00 00 	addiu $4,$16,-1
  40c7cc:	ff ff 04 10 
  40c7d0:	05 00 00 00 	beq $4,$0,40c818 <__printf_fp+0x1b98>
  40c7d4:	10 00 00 04 
  40c7d8:	28 00 00 00 	lw $2,0($6)
  40c7dc:	00 00 02 06 
  40c7e0:	43 00 00 00 	addiu $3,$2,1
  40c7e4:	01 00 03 02 
  40c7e8:	43 00 00 00 	addiu $6,$6,4
  40c7ec:	04 00 06 06 
  40c7f0:	34 00 00 00 	sw $3,0($5)
  40c7f4:	00 00 03 05 
  40c7f8:	43 00 00 00 	addiu $5,$5,4
  40c7fc:	04 00 05 05 
  40c800:	06 00 00 00 	bne $3,$0,40c828 <__printf_fp+0x1ba8>
  40c804:	08 00 00 03 
  40c808:	43 00 00 00 	addiu $4,$4,-1
  40c80c:	ff ff 04 04 
  40c810:	06 00 00 00 	bne $4,$0,40c7d8 <__printf_fp+0x1b58>
  40c814:	f0 ff 00 04 
  40c818:	43 00 00 00 	addiu $4,$0,1
  40c81c:	01 00 04 00 
  40c820:	01 00 00 00 	j 40c890 <__printf_fp+0x1c10>
  40c824:	24 32 10 00 
  40c828:	05 00 00 00 	beq $5,$6,40c888 <__printf_fp+0x1c08>
  40c82c:	16 00 06 05 
  40c830:	42 00 00 00 	addu $3,$0,$0
  40c834:	00 03 00 00 
  40c838:	43 00 00 00 	addiu $7,$4,-1
  40c83c:	ff ff 07 04 
  40c840:	07 00 00 00 	blez $7,40c888 <__printf_fp+0x1c08>
  40c844:	10 00 00 07 
  40c848:	42 00 00 00 	addu $4,$0,$6
  40c84c:	00 04 06 00 
  40c850:	28 00 00 00 	lw $2,0($4)
  40c854:	00 00 02 04 
  40c858:	43 00 00 00 	addiu $3,$3,1
  40c85c:	01 00 03 03 
  40c860:	34 00 00 00 	sw $2,0($5)
  40c864:	00 00 02 05 
  40c868:	43 00 00 00 	addiu $5,$5,4
  40c86c:	04 00 05 05 
  40c870:	43 00 00 00 	addiu $4,$4,4
  40c874:	04 00 04 04 
  40c878:	5b 00 00 00 	slt $2,$3,$7
  40c87c:	00 02 07 03 
  40c880:	06 00 00 00 	bne $2,$0,40c850 <__printf_fp+0x1bd0>
  40c884:	f2 ff 00 02 
  40c888:	42 00 00 00 	addu $4,$0,$0
  40c88c:	00 04 00 00 
  40c890:	05 00 00 00 	beq $4,$0,40c8a0 <__printf_fp+0x1c20>
  40c894:	02 00 00 04 
  40c898:	02 00 00 00 	jal 411510 <abort>
  40c89c:	44 45 10 00 
  40c8a0:	28 00 00 00 	lw $9,1752($30)
  40c8a4:	d8 06 09 1e 
  40c8a8:	55 00 00 00 	sll $2,$16,0x2
  40c8ac:	02 02 10 00 
  40c8b0:	42 00 00 00 	addu $2,$9,$2
  40c8b4:	00 02 02 09 
  40c8b8:	28 00 00 00 	lw $2,0($2)
  40c8bc:	00 00 02 02 
  40c8c0:	43 00 00 00 	addiu $18,$18,1
  40c8c4:	01 00 12 12 
  40c8c8:	5e 00 00 00 	sltiu $2,$2,1
  40c8cc:	01 00 02 02 
  40c8d0:	45 00 00 00 	subu $16,$16,$2
  40c8d4:	00 10 02 10 
  40c8d8:	09 00 00 00 	bltz $18,40c758 <__printf_fp+0x1ad8>
  40c8dc:	9e ff 00 12 
  40c8e0:	28 00 00 00 	lw $3,1492($30)
  40c8e4:	d4 05 03 1e 
  40c8e8:	5b 00 00 00 	slt $2,$3,$16
  40c8ec:	00 02 10 03 
  40c8f0:	06 00 00 00 	bne $2,$0,40c928 <__printf_fp+0x1ca8>
  40c8f4:	0c 00 00 02 
  40c8f8:	06 00 00 00 	bne $16,$3,40c950 <__printf_fp+0x1cd0>
  40c8fc:	14 00 03 10 
  40c900:	43 00 00 00 	addiu $4,$30,1536
  40c904:	00 06 04 1e 
  40c908:	43 00 00 00 	addiu $5,$30,600
  40c90c:	58 02 05 1e 
  40c910:	42 00 00 00 	addu $6,$0,$16
  40c914:	00 06 10 00 
  40c918:	02 00 00 00 	jal 4105f0 <__mpn_cmp>
  40c91c:	7c 41 10 00 
  40c920:	07 00 00 00 	blez $2,40c950 <__printf_fp+0x1cd0>
  40c924:	0a 00 00 02 
  40c928:	34 00 00 00 	sw $16,1492($30)
  40c92c:	d4 05 10 1e 
  40c930:	43 00 00 00 	addiu $4,$30,600
  40c934:	58 02 04 1e 
  40c938:	43 00 00 00 	addiu $5,$30,1536
  40c93c:	00 06 05 1e 
  40c940:	55 00 00 00 	sll $6,$16,0x2
  40c944:	02 06 10 00 
  40c948:	02 00 00 00 	jal 40fb00 <memcpy>
  40c94c:	c0 3e 10 00 
  40c950:	28 00 00 00 	lw $3,1496($30)
  40c954:	d8 05 03 1e 
  40c958:	5b 00 00 00 	slt $2,$3,$16
  40c95c:	00 02 10 03 
  40c960:	06 00 00 00 	bne $2,$0,40c998 <__printf_fp+0x1d18>
  40c964:	0c 00 00 02 
  40c968:	06 00 00 00 	bne $16,$3,40cd40 <__printf_fp+0x20c0>
  40c96c:	f4 00 03 10 
  40c970:	43 00 00 00 	addiu $4,$30,1536
  40c974:	00 06 04 1e 
  40c978:	43 00 00 00 	addiu $5,$30,744
  40c97c:	e8 02 05 1e 
  40c980:	42 00 00 00 	addu $6,$0,$16
  40c984:	00 06 10 00 
  40c988:	02 00 00 00 	jal 4105f0 <__mpn_cmp>
  40c98c:	7c 41 10 00 
  40c990:	09 00 00 00 	bltz $2,40cd40 <__printf_fp+0x20c0>
  40c994:	ea 00 00 02 
  40c998:	28 00 00 00 	lw $4,1760($30)
  40c99c:	e0 06 04 1e 
  40c9a0:	43 00 00 00 	addiu $5,$30,1536
  40c9a4:	00 06 05 1e 
  40c9a8:	55 00 00 00 	sll $6,$16,0x2
  40c9ac:	02 06 10 00 
  40c9b0:	34 00 00 00 	sw $16,1496($30)
  40c9b4:	d8 05 10 1e 
  40c9b8:	02 00 00 00 	jal 40fb00 <memcpy>
  40c9bc:	c0 3e 10 00 
  40c9c0:	28 00 00 00 	lw $17,1488($30)
  40c9c4:	d0 05 11 1e 
  40c9c8:	28 00 00 00 	lw $16,1496($30)
  40c9cc:	d8 05 10 1e 
  40c9d0:	43 00 00 00 	addiu $2,$0,1
  40c9d4:	01 00 02 00 
  40c9d8:	34 00 00 00 	sw $2,1516($30)
  40c9dc:	ec 05 02 1e 
  40c9e0:	5b 00 00 00 	slt $2,$16,$17
  40c9e4:	00 02 11 10 
  40c9e8:	05 00 00 00 	beq $2,$0,40cb78 <__printf_fp+0x1ef8>
  40c9ec:	62 00 00 02 
  40c9f0:	42 00 00 00 	addu $6,$0,$0
  40c9f4:	00 06 00 00 
  40c9f8:	43 00 00 00 	addiu $19,$30,1320
  40c9fc:	28 05 13 1e 
  40ca00:	43 00 00 00 	addiu $18,$30,1032
  40ca04:	08 04 12 1e 
  40ca08:	05 00 00 00 	beq $16,$0,40ca40 <__printf_fp+0x1dc0>
  40ca0c:	0c 00 00 10 
  40ca10:	42 00 00 00 	addu $4,$0,$19
  40ca14:	00 04 13 00 
  40ca18:	28 00 00 00 	lw $6,1760($30)
  40ca1c:	e0 06 06 1e 
  40ca20:	42 00 00 00 	addu $5,$0,$18
  40ca24:	00 05 12 00 
  40ca28:	42 00 00 00 	addu $7,$0,$16
  40ca2c:	00 07 10 00 
  40ca30:	02 00 00 00 	jal 4115b0 <__mpn_add_n>
  40ca34:	6c 45 10 00 
  40ca38:	42 00 00 00 	addu $6,$0,$2
  40ca3c:	00 06 02 00 
  40ca40:	05 00 00 00 	beq $17,$16,40cb60 <__printf_fp+0x1ee0>
  40ca44:	46 00 10 11 
  40ca48:	55 00 00 00 	sll $2,$16,0x2
  40ca4c:	02 02 10 00 
  40ca50:	42 00 00 00 	addu $5,$2,$18
  40ca54:	00 05 12 02 
  40ca58:	28 00 00 00 	lw $3,0($5)
  40ca5c:	00 00 03 05 
  40ca60:	42 00 00 00 	addu $4,$2,$19
  40ca64:	00 04 13 02 
  40ca68:	45 00 00 00 	subu $7,$17,$16
  40ca6c:	00 07 10 11 
  40ca70:	43 00 00 00 	addiu $5,$5,4
  40ca74:	04 00 05 05 
  40ca78:	42 00 00 00 	addu $2,$6,$3
  40ca7c:	00 02 03 06 
  40ca80:	34 00 00 00 	sw $2,0($4)
  40ca84:	00 00 02 04 
  40ca88:	43 00 00 00 	addiu $4,$4,4
  40ca8c:	04 00 04 04 
  40ca90:	5d 00 00 00 	sltu $2,$2,$3
  40ca94:	00 02 03 02 
  40ca98:	05 00 00 00 	beq $2,$0,40cb00 <__printf_fp+0x1e80>
  40ca9c:	18 00 00 02 
  40caa0:	43 00 00 00 	addiu $7,$7,-1
  40caa4:	ff ff 07 07 
  40caa8:	05 00 00 00 	beq $7,$0,40caf0 <__printf_fp+0x1e70>
  40caac:	10 00 00 07 
  40cab0:	28 00 00 00 	lw $2,0($5)
  40cab4:	00 00 02 05 
  40cab8:	43 00 00 00 	addiu $3,$2,1
  40cabc:	01 00 03 02 
  40cac0:	43 00 00 00 	addiu $5,$5,4
  40cac4:	04 00 05 05 
  40cac8:	34 00 00 00 	sw $3,0($4)
  40cacc:	00 00 03 04 
  40cad0:	43 00 00 00 	addiu $4,$4,4
  40cad4:	04 00 04 04 
  40cad8:	06 00 00 00 	bne $3,$0,40cb00 <__printf_fp+0x1e80>
  40cadc:	08 00 00 03 
  40cae0:	43 00 00 00 	addiu $7,$7,-1
  40cae4:	ff ff 07 07 
  40cae8:	06 00 00 00 	bne $7,$0,40cab0 <__printf_fp+0x1e30>
  40caec:	f0 ff 00 07 
  40caf0:	43 00 00 00 	addiu $6,$0,1
  40caf4:	01 00 06 00 
  40caf8:	01 00 00 00 	j 40cb60 <__printf_fp+0x1ee0>
  40cafc:	d8 32 10 00 
  40cb00:	05 00 00 00 	beq $4,$5,40cb58 <__printf_fp+0x1ed8>
  40cb04:	14 00 05 04 
  40cb08:	42 00 00 00 	addu $3,$0,$0
  40cb0c:	00 03 00 00 
  40cb10:	43 00 00 00 	addiu $7,$7,-1
  40cb14:	ff ff 07 07 
  40cb18:	07 00 00 00 	blez $7,40cb58 <__printf_fp+0x1ed8>
  40cb1c:	0e 00 00 07 
  40cb20:	28 00 00 00 	lw $2,0($5)
  40cb24:	00 00 02 05 
  40cb28:	43 00 00 00 	addiu $3,$3,1
  40cb2c:	01 00 03 03 
  40cb30:	34 00 00 00 	sw $2,0($4)
  40cb34:	00 00 02 04 
  40cb38:	43 00 00 00 	addiu $4,$4,4
  40cb3c:	04 00 04 04 
  40cb40:	43 00 00 00 	addiu $5,$5,4
  40cb44:	04 00 05 05 
  40cb48:	5b 00 00 00 	slt $2,$3,$7
  40cb4c:	00 02 07 03 
  40cb50:	06 00 00 00 	bne $2,$0,40cb20 <__printf_fp+0x1ea0>
  40cb54:	f2 ff 00 02 
  40cb58:	42 00 00 00 	addu $6,$0,$0
  40cb5c:	00 06 00 00 
  40cb60:	28 00 00 00 	lw $2,1488($30)
  40cb64:	d0 05 02 1e 
  40cb68:	42 00 00 00 	addu $4,$0,$6
  40cb6c:	00 04 06 00 
  40cb70:	01 00 00 00 	j 40cd00 <__printf_fp+0x2080>
  40cb74:	40 33 10 00 
  40cb78:	42 00 00 00 	addu $5,$0,$0
  40cb7c:	00 05 00 00 
  40cb80:	43 00 00 00 	addiu $18,$30,1320
  40cb84:	28 05 12 1e 
  40cb88:	05 00 00 00 	beq $17,$0,40cbc0 <__printf_fp+0x1f40>
  40cb8c:	0c 00 00 11 
  40cb90:	42 00 00 00 	addu $4,$0,$18
  40cb94:	00 04 12 00 
  40cb98:	28 00 00 00 	lw $5,1760($30)
  40cb9c:	e0 06 05 1e 
  40cba0:	43 00 00 00 	addiu $6,$30,1032
  40cba4:	08 04 06 1e 
  40cba8:	42 00 00 00 	addu $7,$0,$17
  40cbac:	00 07 11 00 
  40cbb0:	02 00 00 00 	jal 4115b0 <__mpn_add_n>
  40cbb4:	6c 45 10 00 
  40cbb8:	42 00 00 00 	addu $5,$0,$2
  40cbbc:	00 05 02 00 
  40cbc0:	05 00 00 00 	beq $16,$17,40ccf0 <__printf_fp+0x2070>
  40cbc4:	4a 00 11 10 
  40cbc8:	28 00 00 00 	lw $9,1760($30)
  40cbcc:	e0 06 09 1e 
  40cbd0:	55 00 00 00 	sll $2,$17,0x2
  40cbd4:	02 02 11 00 
  40cbd8:	42 00 00 00 	addu $6,$2,$9
  40cbdc:	00 06 09 02 
  40cbe0:	28 00 00 00 	lw $3,0($6)
  40cbe4:	00 00 03 06 
  40cbe8:	42 00 00 00 	addu $4,$2,$18
  40cbec:	00 04 12 02 
  40cbf0:	45 00 00 00 	subu $7,$16,$17
  40cbf4:	00 07 11 10 
  40cbf8:	43 00 00 00 	addiu $6,$6,4
  40cbfc:	04 00 06 06 
  40cc00:	42 00 00 00 	addu $2,$5,$3
  40cc04:	00 02 03 05 
  40cc08:	34 00 00 00 	sw $2,0($4)
  40cc0c:	00 00 02 04 
  40cc10:	43 00 00 00 	addiu $4,$4,4
  40cc14:	04 00 04 04 
  40cc18:	5d 00 00 00 	sltu $2,$2,$3
  40cc1c:	00 02 03 02 
  40cc20:	05 00 00 00 	beq $2,$0,40cc88 <__printf_fp+0x2008>
  40cc24:	18 00 00 02 
  40cc28:	43 00 00 00 	addiu $7,$7,-1
  40cc2c:	ff ff 07 07 
  40cc30:	05 00 00 00 	beq $7,$0,40cc78 <__printf_fp+0x1ff8>
  40cc34:	10 00 00 07 
  40cc38:	28 00 00 00 	lw $2,0($6)
  40cc3c:	00 00 02 06 
  40cc40:	43 00 00 00 	addiu $3,$2,1
  40cc44:	01 00 03 02 
  40cc48:	43 00 00 00 	addiu $6,$6,4
  40cc4c:	04 00 06 06 
  40cc50:	34 00 00 00 	sw $3,0($4)
  40cc54:	00 00 03 04 
  40cc58:	43 00 00 00 	addiu $4,$4,4
  40cc5c:	04 00 04 04 
  40cc60:	06 00 00 00 	bne $3,$0,40cc88 <__printf_fp+0x2008>
  40cc64:	08 00 00 03 
  40cc68:	43 00 00 00 	addiu $7,$7,-1
  40cc6c:	ff ff 07 07 
  40cc70:	06 00 00 00 	bne $7,$0,40cc38 <__printf_fp+0x1fb8>
  40cc74:	f0 ff 00 07 
  40cc78:	43 00 00 00 	addiu $5,$0,1
  40cc7c:	01 00 05 00 
  40cc80:	01 00 00 00 	j 40ccf0 <__printf_fp+0x2070>
  40cc84:	3c 33 10 00 
  40cc88:	05 00 00 00 	beq $4,$6,40cce8 <__printf_fp+0x2068>
  40cc8c:	16 00 06 04 
  40cc90:	42 00 00 00 	addu $5,$0,$0
  40cc94:	00 05 00 00 
  40cc98:	43 00 00 00 	addiu $7,$7,-1
  40cc9c:	ff ff 07 07 
  40cca0:	07 00 00 00 	blez $7,40cce8 <__printf_fp+0x2068>
  40cca4:	10 00 00 07 
  40cca8:	42 00 00 00 	addu $3,$0,$6
  40ccac:	00 03 06 00 
  40ccb0:	28 00 00 00 	lw $2,0($3)
  40ccb4:	00 00 02 03 
  40ccb8:	43 00 00 00 	addiu $5,$5,1
  40ccbc:	01 00 05 05 
  40ccc0:	34 00 00 00 	sw $2,0($4)
  40ccc4:	00 00 02 04 
  40ccc8:	43 00 00 00 	addiu $4,$4,4
  40cccc:	04 00 04 04 
  40ccd0:	43 00 00 00 	addiu $3,$3,4
  40ccd4:	04 00 03 03 
  40ccd8:	5b 00 00 00 	slt $2,$5,$7
  40ccdc:	00 02 07 05 
  40cce0:	06 00 00 00 	bne $2,$0,40ccb0 <__printf_fp+0x2030>
  40cce4:	f2 ff 00 02 
  40cce8:	42 00 00 00 	addu $5,$0,$0
  40ccec:	00 05 00 00 
  40ccf0:	28 00 00 00 	lw $2,1496($30)
  40ccf4:	d8 05 02 1e 
  40ccf8:	42 00 00 00 	addu $4,$0,$5
  40ccfc:	00 04 05 00 
  40cd00:	34 00 00 00 	sw $2,1512($30)
  40cd04:	e8 05 02 1e 
  40cd08:	05 00 00 00 	beq $4,$0,40cd40 <__printf_fp+0x20c0>
  40cd0c:	0c 00 00 04 
  40cd10:	28 00 00 00 	lw $2,1512($30)
  40cd14:	e8 05 02 1e 
  40cd18:	43 00 00 00 	addiu $3,$2,1
  40cd1c:	01 00 03 02 
  40cd20:	55 00 00 00 	sll $2,$2,0x2
  40cd24:	02 02 02 00 
  40cd28:	42 00 00 00 	addu $2,$2,$20
  40cd2c:	00 02 14 02 
  40cd30:	34 00 00 00 	sw $3,1512($30)
  40cd34:	e8 05 03 1e 
  40cd38:	34 00 00 00 	sw $4,1296($2)
  40cd3c:	10 05 04 02 
  40cd40:	28 00 00 00 	lw $6,1512($30)
  40cd44:	e8 05 06 1e 
  40cd48:	28 00 00 00 	lw $3,1504($30)
  40cd4c:	e0 05 03 1e 
  40cd50:	5b 00 00 00 	slt $2,$3,$6
  40cd54:	00 02 06 03 
  40cd58:	06 00 00 00 	bne $2,$0,40c108 <__printf_fp+0x1488>
  40cd5c:	ea fc 00 02 
  40cd60:	06 00 00 00 	bne $6,$3,40cd88 <__printf_fp+0x2108>
  40cd64:	08 00 03 06 
  40cd68:	43 00 00 00 	addiu $4,$30,1320
  40cd6c:	28 05 04 1e 
  40cd70:	43 00 00 00 	addiu $5,$30,312
  40cd74:	38 01 05 1e 
  40cd78:	02 00 00 00 	jal 4105f0 <__mpn_cmp>
  40cd7c:	7c 41 10 00 
  40cd80:	0a 00 00 00 	bgez $2,40c108 <__printf_fp+0x1488>
  40cd84:	e0 fc 00 02 
  40cd88:	43 00 00 00 	addiu $4,$30,1176
  40cd8c:	98 04 04 1e 
  40cd90:	43 00 00 00 	addiu $5,$30,888
  40cd94:	78 03 05 1e 
  40cd98:	28 00 00 00 	lw $2,1464($30)
  40cd9c:	b8 05 02 1e 
  40cda0:	28 00 00 00 	lw $6,1472($30)
  40cda4:	c0 05 06 1e 
  40cda8:	43 00 00 00 	addiu $7,$0,10
  40cdac:	0a 00 07 00 
  40cdb0:	43 00 00 00 	addiu $2,$2,-1
  40cdb4:	ff ff 02 02 
  40cdb8:	34 00 00 00 	sw $2,1464($30)
  40cdbc:	b8 05 02 1e 
  40cdc0:	02 00 00 00 	jal 411520 <__mpn_mul_1>
  40cdc4:	48 45 10 00 
  40cdc8:	28 00 00 00 	lw $3,1472($30)
  40cdcc:	c0 05 03 1e 
  40cdd0:	42 00 00 00 	addu $4,$0,$2
  40cdd4:	00 04 02 00 
  40cdd8:	43 00 00 00 	addiu $17,$30,24
  40cddc:	18 00 11 1e 
  40cde0:	34 00 00 00 	sw $4,1468($30)
  40cde4:	bc 05 04 1e 
  40cde8:	34 00 00 00 	sw $3,1476($30)
  40cdec:	c4 05 03 1e 
  40cdf0:	05 00 00 00 	beq $4,$0,40ce20 <__printf_fp+0x21a0>
  40cdf4:	0a 00 00 04 
  40cdf8:	43 00 00 00 	addiu $2,$3,1
  40cdfc:	01 00 02 03 
  40ce00:	34 00 00 00 	sw $2,1476($30)
  40ce04:	c4 05 02 1e 
  40ce08:	55 00 00 00 	sll $2,$3,0x2
  40ce0c:	02 02 03 00 
  40ce10:	42 00 00 00 	addu $2,$2,$17
  40ce14:	00 02 11 02 
  40ce18:	34 00 00 00 	sw $4,1152($2)
  40ce1c:	80 04 04 02 
  40ce20:	28 00 00 00 	lw $2,1480($30)
  40ce24:	c8 05 02 1e 
  40ce28:	55 00 00 00 	sll $2,$2,0x2
  40ce2c:	02 02 02 00 
  40ce30:	42 00 00 00 	addu $2,$17,$2
  40ce34:	00 02 02 11 
  40ce38:	28 00 00 00 	lw $4,140($2)
  40ce3c:	8c 00 04 02 
  40ce40:	51 00 00 00 	ori $2,$0,65535
  40ce44:	ff ff 02 00 
  40ce48:	5d 00 00 00 	sltu $2,$2,$4
  40ce4c:	00 02 04 02 
  40ce50:	06 00 00 00 	bne $2,$0,40ce78 <__printf_fp+0x21f8>
  40ce54:	08 00 00 02 
  40ce58:	5e 00 00 00 	sltiu $2,$4,256
  40ce5c:	00 01 02 04 
  40ce60:	53 00 00 00 	xori $2,$2,1
  40ce64:	01 00 02 02 
  40ce68:	55 00 00 00 	sll $3,$2,0x3
  40ce6c:	03 03 02 00 
  40ce70:	01 00 00 00 	j 40cea8 <__printf_fp+0x2228>
  40ce74:	aa 33 10 00 
  40ce78:	a2 00 00 00 	lui $2,255
  40ce7c:	ff 00 02 00 
  40ce80:	51 00 00 00 	ori $2,$2,65535
  40ce84:	ff ff 02 02 
  40ce88:	43 00 00 00 	addiu $3,$0,24
  40ce8c:	18 00 03 00 
  40ce90:	5d 00 00 00 	sltu $2,$2,$4
  40ce94:	00 02 04 02 
  40ce98:	06 00 00 00 	bne $2,$0,40cea8 <__printf_fp+0x2228>
  40ce9c:	02 00 00 02 
  40cea0:	43 00 00 00 	addiu $3,$0,16
  40cea4:	10 00 03 00 
  40cea8:	58 00 00 00 	srlv $2,$4,$3
  40ceac:	00 02 04 03 
  40ceb0:	a2 00 00 00 	lui $1,4096
  40ceb4:	00 10 01 00 
  40ceb8:	42 00 00 00 	addu $1,$1,$2
  40cebc:	00 01 02 01 
  40cec0:	22 00 00 00 	lbu $2,7552($1)
  40cec4:	80 1d 02 01 
  40cec8:	42 00 00 00 	addu $2,$2,$3
  40cecc:	00 02 03 02 
  40ced0:	43 00 00 00 	addiu $3,$0,32
  40ced4:	20 00 03 00 
  40ced8:	45 00 00 00 	subu $18,$3,$2
  40cedc:	00 12 02 03 
  40cee0:	05 00 00 00 	beq $18,$0,40d078 <__printf_fp+0x23f8>
  40cee4:	64 00 00 12 
  40cee8:	43 00 00 00 	addiu $5,$17,144
  40ceec:	90 00 05 11 
  40cef0:	28 00 00 00 	lw $6,1456($17)
  40cef4:	b0 05 06 11 
  40cef8:	42 00 00 00 	addu $7,$0,$18
  40cefc:	00 07 12 00 
  40cf00:	42 00 00 00 	addu $20,$0,$29
  40cf04:	00 14 1d 00 
  40cf08:	55 00 00 00 	sll $2,$6,0x2
  40cf0c:	02 02 06 00 
  40cf10:	43 00 00 00 	addiu $2,$2,14
  40cf14:	0e 00 02 02 
  40cf18:	57 00 00 00 	srl $2,$2,0x3
  40cf1c:	03 02 02 00 
  40cf20:	55 00 00 00 	sll $2,$2,0x3
  40cf24:	03 02 02 00 
  40cf28:	45 00 00 00 	subu $29,$29,$2
  40cf2c:	00 1d 02 1d 
  40cf30:	28 00 00 00 	lw $2,0($29)
  40cf34:	00 00 02 1d 
  40cf38:	43 00 00 00 	addiu $19,$29,24
  40cf3c:	18 00 13 1d 
  40cf40:	42 00 00 00 	addu $4,$0,$19
  40cf44:	00 04 13 00 
  40cf48:	02 00 00 00 	jal 410500 <__mpn_lshift>
  40cf4c:	40 41 10 00 
  40cf50:	43 00 00 00 	addiu $16,$17,1152
  40cf54:	80 04 10 11 
  40cf58:	42 00 00 00 	addu $4,$0,$16
  40cf5c:	00 04 10 00 
  40cf60:	28 00 00 00 	lw $6,1452($17)
  40cf64:	ac 05 06 11 
  40cf68:	42 00 00 00 	addu $5,$0,$16
  40cf6c:	00 05 10 00 
  40cf70:	42 00 00 00 	addu $7,$0,$18
  40cf74:	00 07 12 00 
  40cf78:	02 00 00 00 	jal 410500 <__mpn_lshift>
  40cf7c:	40 41 10 00 
  40cf80:	42 00 00 00 	addu $4,$0,$2
  40cf84:	00 04 02 00 
  40cf88:	05 00 00 00 	beq $4,$0,40cfc0 <__printf_fp+0x2340>
  40cf8c:	0c 00 00 04 
  40cf90:	28 00 00 00 	lw $2,1452($17)
  40cf94:	ac 05 02 11 
  40cf98:	43 00 00 00 	addiu $3,$2,1
  40cf9c:	01 00 03 02 
  40cfa0:	55 00 00 00 	sll $2,$2,0x2
  40cfa4:	02 02 02 00 
  40cfa8:	42 00 00 00 	addu $2,$2,$17
  40cfac:	00 02 11 02 
  40cfb0:	34 00 00 00 	sw $3,1452($17)
  40cfb4:	ac 05 03 11 
  40cfb8:	34 00 00 00 	sw $4,1152($2)
  40cfbc:	80 04 04 02 
  40cfc0:	28 00 00 00 	lw $2,1456($17)
  40cfc4:	b0 05 02 11 
  40cfc8:	43 00 00 00 	addiu $4,$17,1296
  40cfcc:	10 05 04 11 
  40cfd0:	34 00 00 00 	sw $2,16($29)
  40cfd4:	10 00 02 1d 
  40cfd8:	28 00 00 00 	lw $6,1452($17)
  40cfdc:	ac 05 06 11 
  40cfe0:	42 00 00 00 	addu $5,$0,$16
  40cfe4:	00 05 10 00 
  40cfe8:	42 00 00 00 	addu $7,$0,$19
  40cfec:	00 07 13 00 
  40cff0:	02 00 00 00 	jal 411650 <__mpn_divmod>
  40cff4:	94 45 10 00 
  40cff8:	28 00 00 00 	lw $3,1452($17)
  40cffc:	ac 05 03 11 
  40d000:	28 00 00 00 	lw $5,1456($17)
  40d004:	b0 05 05 11 
  40d008:	42 00 00 00 	addu $4,$0,$16
  40d00c:	00 04 10 00 
  40d010:	45 00 00 00 	subu $3,$3,$5
  40d014:	00 03 05 03 
  40d018:	55 00 00 00 	sll $3,$3,0x2
  40d01c:	02 03 03 00 
  40d020:	42 00 00 00 	addu $3,$3,$17
  40d024:	00 03 11 03 
  40d028:	34 00 00 00 	sw $2,1296($3)
  40d02c:	10 05 02 03 
  40d030:	28 00 00 00 	lw $6,1456($17)
  40d034:	b0 05 06 11 
  40d038:	42 00 00 00 	addu $7,$0,$18
  40d03c:	00 07 12 00 
  40d040:	42 00 00 00 	addu $5,$0,$4
  40d044:	00 05 04 00 
  40d048:	34 00 00 00 	sw $6,1452($17)
  40d04c:	ac 05 06 11 
  40d050:	02 00 00 00 	jal 412190 <__mpn_rshift>
  40d054:	64 48 10 00 
  40d058:	42 00 00 00 	addu $29,$0,$20
  40d05c:	00 1d 14 00 
  40d060:	01 00 00 00 	j 40d0f0 <__printf_fp+0x2470>
  40d064:	3c 34 10 00 
  40d068:	43 00 00 00 	addiu $2,$4,1
  40d06c:	01 00 02 04 
  40d070:	01 00 00 00 	j 40d160 <__printf_fp+0x24e0>
  40d074:	58 34 10 00 
  40d078:	28 00 00 00 	lw $2,1456($17)
  40d07c:	b0 05 02 11 
  40d080:	43 00 00 00 	addiu $4,$17,1296
  40d084:	10 05 04 11 
  40d088:	34 00 00 00 	sw $2,16($29)
  40d08c:	10 00 02 1d 
  40d090:	28 00 00 00 	lw $6,1452($17)
  40d094:	ac 05 06 11 
  40d098:	43 00 00 00 	addiu $5,$17,1152
  40d09c:	80 04 05 11 
  40d0a0:	43 00 00 00 	addiu $7,$17,144
  40d0a4:	90 00 07 11 
  40d0a8:	02 00 00 00 	jal 411650 <__mpn_divmod>
  40d0ac:	94 45 10 00 
  40d0b0:	28 00 00 00 	lw $3,1452($17)
  40d0b4:	ac 05 03 11 
  40d0b8:	28 00 00 00 	lw $4,1456($17)
  40d0bc:	b0 05 04 11 
  40d0c0:	45 00 00 00 	subu $3,$3,$4
  40d0c4:	00 03 04 03 
  40d0c8:	55 00 00 00 	sll $3,$3,0x2
  40d0cc:	02 03 03 00 
  40d0d0:	42 00 00 00 	addu $3,$3,$17
  40d0d4:	00 03 11 03 
  40d0d8:	34 00 00 00 	sw $2,1296($3)
  40d0dc:	10 05 02 03 
  40d0e0:	28 00 00 00 	lw $2,1456($17)
  40d0e4:	b0 05 02 11 
  40d0e8:	34 00 00 00 	sw $2,1452($17)
  40d0ec:	ac 05 02 11 
  40d0f0:	28 00 00 00 	lw $2,1296($17)
  40d0f4:	10 05 02 11 
  40d0f8:	28 00 00 00 	lw $4,1452($17)
  40d0fc:	ac 05 04 11 
  40d100:	43 00 00 00 	addiu $3,$17,1152
  40d104:	80 04 03 11 
  40d108:	43 00 00 00 	addiu $2,$2,48
  40d10c:	30 00 02 02 
  40d110:	30 00 00 00 	sb $2,1460($17)
  40d114:	b4 05 02 11 
  40d118:	05 00 00 00 	beq $4,$0,40d158 <__printf_fp+0x24d8>
  40d11c:	0e 00 00 04 
  40d120:	55 00 00 00 	sll $2,$4,0x2
  40d124:	02 02 04 00 
  40d128:	42 00 00 00 	addu $3,$2,$3
  40d12c:	00 03 03 02 
  40d130:	43 00 00 00 	addiu $3,$3,-4
  40d134:	fc ff 03 03 
  40d138:	28 00 00 00 	lw $2,0($3)
  40d13c:	00 00 02 03 
  40d140:	43 00 00 00 	addiu $4,$4,-1
  40d144:	ff ff 04 04 
  40d148:	06 00 00 00 	bne $2,$0,40d068 <__printf_fp+0x23e8>
  40d14c:	c6 ff 00 02 
  40d150:	06 00 00 00 	bne $4,$0,40d130 <__printf_fp+0x24b0>
  40d154:	f6 ff 00 04 
  40d158:	42 00 00 00 	addu $2,$0,$0
  40d15c:	00 02 00 00 
  40d160:	34 00 00 00 	sw $2,1452($17)
  40d164:	ac 05 02 11 
  40d168:	06 00 00 00 	bne $2,$0,40d180 <__printf_fp+0x2500>
  40d16c:	04 00 00 02 
  40d170:	43 00 00 00 	addiu $2,$0,1
  40d174:	01 00 02 00 
  40d178:	34 00 00 00 	sw $2,1452($17)
  40d17c:	ac 05 02 11 
  40d180:	43 00 00 00 	addiu $16,$17,864
  40d184:	60 03 10 11 
  40d188:	28 00 00 00 	lw $2,1452($17)
  40d18c:	ac 05 02 11 
  40d190:	42 00 00 00 	addu $4,$0,$16
  40d194:	00 04 10 00 
  40d198:	43 00 00 00 	addiu $5,$17,1152
  40d19c:	80 04 05 11 
  40d1a0:	55 00 00 00 	sll $6,$2,0x2
  40d1a4:	02 06 02 00 
  40d1a8:	34 00 00 00 	sw $2,1448($17)
  40d1ac:	a8 05 02 11 
  40d1b0:	02 00 00 00 	jal 40fb00 <memcpy>
  40d1b4:	c0 3e 10 00 
  40d1b8:	43 00 00 00 	addiu $18,$17,1008
  40d1bc:	f0 03 12 11 
  40d1c0:	42 00 00 00 	addu $4,$0,$18
  40d1c4:	00 04 12 00 
  40d1c8:	28 00 00 00 	lw $6,1448($17)
  40d1cc:	a8 05 06 11 
  40d1d0:	42 00 00 00 	addu $5,$0,$16
  40d1d4:	00 05 10 00 
  40d1d8:	43 00 00 00 	addiu $7,$0,1
  40d1dc:	01 00 07 00 
  40d1e0:	02 00 00 00 	jal 410500 <__mpn_lshift>
  40d1e4:	40 41 10 00 
  40d1e8:	28 00 00 00 	lw $4,1448($17)
  40d1ec:	a8 05 04 11 
  40d1f0:	34 00 00 00 	sw $2,1444($17)
  40d1f4:	a4 05 02 11 
  40d1f8:	28 00 00 00 	lw $2,1444($17)
  40d1fc:	a4 05 02 11 
  40d200:	34 00 00 00 	sw $4,1464($17)
  40d204:	b8 05 04 11 
  40d208:	05 00 00 00 	beq $2,$0,40d240 <__printf_fp+0x25c0>
  40d20c:	0c 00 00 02 
  40d210:	28 00 00 00 	lw $3,1444($17)
  40d214:	a4 05 03 11 
  40d218:	43 00 00 00 	addiu $2,$4,1
  40d21c:	01 00 02 04 
  40d220:	34 00 00 00 	sw $2,1464($17)
  40d224:	b8 05 02 11 
  40d228:	55 00 00 00 	sll $2,$4,0x2
  40d22c:	02 02 04 00 
  40d230:	42 00 00 00 	addu $2,$2,$17
  40d234:	00 02 11 02 
  40d238:	34 00 00 00 	sw $3,1008($2)
  40d23c:	f0 03 03 02 
  40d240:	43 00 00 00 	addiu $16,$17,576
  40d244:	40 02 10 11 
  40d248:	42 00 00 00 	addu $4,$0,$16
  40d24c:	00 04 10 00 
  40d250:	28 00 00 00 	lw $6,1468($17)
  40d254:	bc 05 06 11 
  40d258:	42 00 00 00 	addu $5,$0,$16
  40d25c:	00 05 10 00 
  40d260:	43 00 00 00 	addiu $7,$0,10
  40d264:	0a 00 07 00 
  40d268:	02 00 00 00 	jal 411520 <__mpn_mul_1>
  40d26c:	48 45 10 00 
  40d270:	34 00 00 00 	sw $2,1444($17)
  40d274:	a4 05 02 11 
  40d278:	05 00 00 00 	beq $2,$0,40d2b8 <__printf_fp+0x2638>
  40d27c:	0e 00 00 02 
  40d280:	28 00 00 00 	lw $2,1468($17)
  40d284:	bc 05 02 11 
  40d288:	43 00 00 00 	addiu $3,$2,1
  40d28c:	01 00 03 02 
  40d290:	34 00 00 00 	sw $3,1468($17)
  40d294:	bc 05 03 11 
  40d298:	28 00 00 00 	lw $3,1444($17)
  40d29c:	a4 05 03 11 
  40d2a0:	55 00 00 00 	sll $2,$2,0x2
  40d2a4:	02 02 02 00 
  40d2a8:	42 00 00 00 	addu $2,$2,$17
  40d2ac:	00 02 11 02 
  40d2b0:	34 00 00 00 	sw $3,576($2)
  40d2b4:	40 02 03 02 
  40d2b8:	43 00 00 00 	addiu $4,$17,720
  40d2bc:	d0 02 04 11 
  40d2c0:	28 00 00 00 	lw $6,1472($17)
  40d2c4:	c0 05 06 11 
  40d2c8:	42 00 00 00 	addu $5,$0,$4
  40d2cc:	00 05 04 00 
  40d2d0:	43 00 00 00 	addiu $7,$0,10
  40d2d4:	0a 00 07 00 
  40d2d8:	02 00 00 00 	jal 411520 <__mpn_mul_1>
  40d2dc:	48 45 10 00 
  40d2e0:	34 00 00 00 	sw $2,1444($17)
  40d2e4:	a4 05 02 11 
  40d2e8:	05 00 00 00 	beq $2,$0,40d328 <__printf_fp+0x26a8>
  40d2ec:	0e 00 00 02 
  40d2f0:	28 00 00 00 	lw $2,1472($17)
  40d2f4:	c0 05 02 11 
  40d2f8:	43 00 00 00 	addiu $3,$2,1
  40d2fc:	01 00 03 02 
  40d300:	34 00 00 00 	sw $3,1472($17)
  40d304:	c0 05 03 11 
  40d308:	28 00 00 00 	lw $3,1444($17)
  40d30c:	a4 05 03 11 
  40d310:	55 00 00 00 	sll $2,$2,0x2
  40d314:	02 02 02 00 
  40d318:	42 00 00 00 	addu $2,$2,$17
  40d31c:	00 02 11 02 
  40d320:	34 00 00 00 	sw $3,720($2)
  40d324:	d0 02 03 02 
  40d328:	28 00 00 00 	lw $6,1464($17)
  40d32c:	b8 05 06 11 
  40d330:	28 00 00 00 	lw $3,1468($17)
  40d334:	bc 05 03 11 
  40d338:	42 00 00 00 	addu $19,$0,$0
  40d33c:	00 13 00 00 
  40d340:	5b 00 00 00 	slt $2,$6,$3
  40d344:	00 02 03 06 
  40d348:	06 00 00 00 	bne $2,$0,40d378 <__printf_fp+0x26f8>
  40d34c:	0a 00 00 02 
  40d350:	06 00 00 00 	bne $6,$3,40d380 <__printf_fp+0x2700>
  40d354:	0a 00 03 06 
  40d358:	42 00 00 00 	addu $4,$0,$18
  40d35c:	00 04 12 00 
  40d360:	42 00 00 00 	addu $5,$0,$16
  40d364:	00 05 10 00 
  40d368:	02 00 00 00 	jal 4105f0 <__mpn_cmp>
  40d36c:	7c 41 10 00 
  40d370:	0a 00 00 00 	bgez $2,40d380 <__printf_fp+0x2700>
  40d374:	02 00 00 02 
  40d378:	43 00 00 00 	addiu $19,$0,1
  40d37c:	01 00 13 00 
  40d380:	28 00 00 00 	lw $18,1480($17)
  40d384:	c8 05 12 11 
  40d388:	28 00 00 00 	lw $16,1472($17)
  40d38c:	c0 05 10 11 
  40d390:	34 00 00 00 	sw $19,1476($17)
  40d394:	c4 05 13 11 
  40d398:	5b 00 00 00 	slt $2,$18,$16
  40d39c:	00 02 10 12 
  40d3a0:	05 00 00 00 	beq $2,$0,40d3c0 <__printf_fp+0x2740>
  40d3a4:	06 00 00 02 
  40d3a8:	43 00 00 00 	addiu $2,$0,1
  40d3ac:	01 00 02 00 
  40d3b0:	34 00 00 00 	sw $2,1484($17)
  40d3b4:	cc 05 02 11 
  40d3b8:	01 00 00 00 	j 40d618 <__printf_fp+0x2998>
  40d3bc:	86 35 10 00 
  40d3c0:	42 00 00 00 	addu $6,$0,$0
  40d3c4:	00 06 00 00 
  40d3c8:	43 00 00 00 	addiu $20,$17,1296
  40d3cc:	10 05 14 11 
  40d3d0:	43 00 00 00 	addiu $19,$17,288
  40d3d4:	20 01 13 11 
  40d3d8:	43 00 00 00 	addiu $2,$17,720
  40d3dc:	d0 02 02 11 
  40d3e0:	05 00 00 00 	beq $16,$0,40d418 <__printf_fp+0x2798>
  40d3e4:	0c 00 00 10 
  40d3e8:	42 00 00 00 	addu $4,$0,$20
  40d3ec:	00 04 14 00 
  40d3f0:	42 00 00 00 	addu $5,$0,$19
  40d3f4:	00 05 13 00 
  40d3f8:	42 00 00 00 	addu $6,$0,$2
  40d3fc:	00 06 02 00 
  40d400:	42 00 00 00 	addu $7,$0,$16
  40d404:	00 07 10 00 
  40d408:	02 00 00 00 	jal 412270 <__mpn_sub_n>
  40d40c:	9c 48 10 00 
  40d410:	42 00 00 00 	addu $6,$0,$2
  40d414:	00 06 02 00 
  40d418:	05 00 00 00 	beq $18,$16,40d538 <__printf_fp+0x28b8>
  40d41c:	46 00 10 12 
  40d420:	55 00 00 00 	sll $2,$16,0x2
  40d424:	02 02 10 00 
  40d428:	42 00 00 00 	addu $5,$2,$19
  40d42c:	00 05 13 02 
  40d430:	28 00 00 00 	lw $3,0($5)
  40d434:	00 00 03 05 
  40d438:	42 00 00 00 	addu $4,$2,$20
  40d43c:	00 04 14 02 
  40d440:	45 00 00 00 	subu $7,$18,$16
  40d444:	00 07 10 12 
  40d448:	43 00 00 00 	addiu $5,$5,4
  40d44c:	04 00 05 05 
  40d450:	45 00 00 00 	subu $2,$3,$6
  40d454:	00 02 06 03 
  40d458:	34 00 00 00 	sw $2,0($4)
  40d45c:	00 00 02 04 
  40d460:	43 00 00 00 	addiu $4,$4,4
  40d464:	04 00 04 04 
  40d468:	5d 00 00 00 	sltu $2,$3,$2
  40d46c:	00 02 02 03 
  40d470:	05 00 00 00 	beq $2,$0,40d4d8 <__printf_fp+0x2858>
  40d474:	18 00 00 02 
  40d478:	43 00 00 00 	addiu $7,$7,-1
  40d47c:	ff ff 07 07 
  40d480:	05 00 00 00 	beq $7,$0,40d4c8 <__printf_fp+0x2848>
  40d484:	10 00 00 07 
  40d488:	28 00 00 00 	lw $3,0($5)
  40d48c:	00 00 03 05 
  40d490:	43 00 00 00 	addiu $5,$5,4
  40d494:	04 00 05 05 
  40d498:	43 00 00 00 	addiu $2,$3,-1
  40d49c:	ff ff 02 03 
  40d4a0:	34 00 00 00 	sw $2,0($4)
  40d4a4:	00 00 02 04 
  40d4a8:	43 00 00 00 	addiu $4,$4,4
  40d4ac:	04 00 04 04 
  40d4b0:	06 00 00 00 	bne $3,$0,40d4d8 <__printf_fp+0x2858>
  40d4b4:	08 00 00 03 
  40d4b8:	43 00 00 00 	addiu $7,$7,-1
  40d4bc:	ff ff 07 07 
  40d4c0:	06 00 00 00 	bne $7,$0,40d488 <__printf_fp+0x2808>
  40d4c4:	f0 ff 00 07 
  40d4c8:	43 00 00 00 	addiu $6,$0,1
  40d4cc:	01 00 06 00 
  40d4d0:	01 00 00 00 	j 40d538 <__printf_fp+0x28b8>
  40d4d4:	4e 35 10 00 
  40d4d8:	05 00 00 00 	beq $4,$5,40d530 <__printf_fp+0x28b0>
  40d4dc:	14 00 05 04 
  40d4e0:	42 00 00 00 	addu $3,$0,$0
  40d4e4:	00 03 00 00 
  40d4e8:	43 00 00 00 	addiu $7,$7,-1
  40d4ec:	ff ff 07 07 
  40d4f0:	07 00 00 00 	blez $7,40d530 <__printf_fp+0x28b0>
  40d4f4:	0e 00 00 07 
  40d4f8:	28 00 00 00 	lw $2,0($5)
  40d4fc:	00 00 02 05 
  40d500:	43 00 00 00 	addiu $3,$3,1
  40d504:	01 00 03 03 
  40d508:	34 00 00 00 	sw $2,0($4)
  40d50c:	00 00 02 04 
  40d510:	43 00 00 00 	addiu $4,$4,4
  40d514:	04 00 04 04 
  40d518:	43 00 00 00 	addiu $5,$5,4
  40d51c:	04 00 05 05 
  40d520:	5b 00 00 00 	slt $2,$3,$7
  40d524:	00 02 07 03 
  40d528:	06 00 00 00 	bne $2,$0,40d4f8 <__printf_fp+0x2878>
  40d52c:	f2 ff 00 02 
  40d530:	42 00 00 00 	addu $6,$0,$0
  40d534:	00 06 00 00 
  40d538:	28 00 00 00 	lw $3,1480($17)
  40d53c:	c8 05 03 11 
  40d540:	34 00 00 00 	sw $6,1444($17)
  40d544:	a4 05 06 11 
  40d548:	28 00 00 00 	lw $2,1444($17)
  40d54c:	a4 05 02 11 
  40d550:	42 00 00 00 	addu $16,$0,$0
  40d554:	00 10 00 00 
  40d558:	34 00 00 00 	sw $3,1488($17)
  40d55c:	d0 05 03 11 
  40d560:	06 00 00 00 	bne $2,$0,40d608 <__printf_fp+0x2988>
  40d564:	28 00 00 02 
  40d568:	28 00 00 00 	lw $2,1492($17)
  40d56c:	d4 05 02 11 
  40d570:	05 00 00 00 	beq $2,$0,40d5c8 <__printf_fp+0x2948>
  40d574:	14 00 00 02 
  40d578:	28 00 00 00 	lw $4,1464($17)
  40d57c:	b8 05 04 11 
  40d580:	5b 00 00 00 	slt $2,$3,$4
  40d584:	00 02 04 03 
  40d588:	06 00 00 00 	bne $2,$0,40d608 <__printf_fp+0x2988>
  40d58c:	1e 00 00 02 
  40d590:	06 00 00 00 	bne $4,$3,40d610 <__printf_fp+0x2990>
  40d594:	1e 00 03 04 
  40d598:	43 00 00 00 	addiu $4,$17,1008
  40d59c:	f0 03 04 11 
  40d5a0:	43 00 00 00 	addiu $5,$17,1296
  40d5a4:	10 05 05 11 
  40d5a8:	42 00 00 00 	addu $6,$0,$3
  40d5ac:	00 06 03 00 
  40d5b0:	02 00 00 00 	jal 4105f0 <__mpn_cmp>
  40d5b4:	7c 41 10 00 
  40d5b8:	0a 00 00 00 	bgez $2,40d608 <__printf_fp+0x2988>
  40d5bc:	12 00 00 02 
  40d5c0:	01 00 00 00 	j 40d610 <__printf_fp+0x2990>
  40d5c4:	84 35 10 00 
  40d5c8:	28 00 00 00 	lw $6,1464($17)
  40d5cc:	b8 05 06 11 
  40d5d0:	5b 00 00 00 	slt $2,$3,$6
  40d5d4:	00 02 06 03 
  40d5d8:	06 00 00 00 	bne $2,$0,40d608 <__printf_fp+0x2988>
  40d5dc:	0a 00 00 02 
  40d5e0:	06 00 00 00 	bne $6,$3,40d610 <__printf_fp+0x2990>
  40d5e4:	0a 00 03 06 
  40d5e8:	43 00 00 00 	addiu $4,$17,1008
  40d5ec:	f0 03 04 11 
  40d5f0:	43 00 00 00 	addiu $5,$17,1296
  40d5f4:	10 05 05 11 
  40d5f8:	02 00 00 00 	jal 4105f0 <__mpn_cmp>
  40d5fc:	7c 41 10 00 
  40d600:	07 00 00 00 	blez $2,40d610 <__printf_fp+0x2990>
  40d604:	02 00 00 02 
  40d608:	43 00 00 00 	addiu $16,$0,1
  40d60c:	01 00 10 00 
  40d610:	34 00 00 00 	sw $16,1484($17)
  40d614:	cc 05 10 11 
  40d618:	28 00 00 00 	lw $2,1476($17)
  40d61c:	c4 05 02 11 
  40d620:	06 00 00 00 	bne $2,$0,40d650 <__printf_fp+0x29d0>
  40d624:	0a 00 00 02 
  40d628:	28 00 00 00 	lw $2,1484($17)
  40d62c:	cc 05 02 11 
  40d630:	06 00 00 00 	bne $2,$0,40d660 <__printf_fp+0x29e0>
  40d634:	0a 00 00 02 
  40d638:	28 00 00 00 	lw $3,1440($17)
  40d63c:	a0 05 03 11 
  40d640:	28 00 00 00 	lw $2,1496($17)
  40d644:	d8 05 02 11 
  40d648:	06 00 00 00 	bne $3,$2,40d6e0 <__printf_fp+0x2a60>
  40d64c:	24 00 02 03 
  40d650:	28 00 00 00 	lw $2,1484($17)
  40d654:	cc 05 02 11 
  40d658:	05 00 00 00 	beq $2,$0,40d6e0 <__printf_fp+0x2a60>
  40d65c:	20 00 00 02 
  40d660:	28 00 00 00 	lw $2,1476($17)
  40d664:	c4 05 02 11 
  40d668:	05 00 00 00 	beq $2,$0,40d6c8 <__printf_fp+0x2a48>
  40d66c:	16 00 00 02 
  40d670:	28 00 00 00 	lw $2,1484($17)
  40d674:	cc 05 02 11 
  40d678:	05 00 00 00 	beq $2,$0,40d6e0 <__printf_fp+0x2a60>
  40d67c:	18 00 00 02 
  40d680:	28 00 00 00 	lw $6,1464($17)
  40d684:	b8 05 06 11 
  40d688:	28 00 00 00 	lw $3,1456($17)
  40d68c:	b0 05 03 11 
  40d690:	5b 00 00 00 	slt $2,$3,$6
  40d694:	00 02 06 03 
  40d698:	06 00 00 00 	bne $2,$0,40d6c8 <__printf_fp+0x2a48>
  40d69c:	0a 00 00 02 
  40d6a0:	06 00 00 00 	bne $6,$3,40d6e0 <__printf_fp+0x2a60>
  40d6a4:	0e 00 03 06 
  40d6a8:	43 00 00 00 	addiu $4,$17,1008
  40d6ac:	f0 03 04 11 
  40d6b0:	43 00 00 00 	addiu $5,$17,144
  40d6b4:	90 00 05 11 
  40d6b8:	02 00 00 00 	jal 4105f0 <__mpn_cmp>
  40d6bc:	7c 41 10 00 
  40d6c0:	07 00 00 00 	blez $2,40d6e0 <__printf_fp+0x2a60>
  40d6c4:	06 00 00 02 
  40d6c8:	22 00 00 00 	lbu $2,1460($17)
  40d6cc:	b4 05 02 11 
  40d6d0:	43 00 00 00 	addiu $2,$2,1
  40d6d4:	01 00 02 02 
  40d6d8:	30 00 00 00 	sb $2,1460($17)
  40d6dc:	b4 05 02 11 
  40d6e0:	22 00 00 00 	lbu $9,1704($30)
  40d6e4:	a8 06 09 1e 
  40d6e8:	43 00 00 00 	addiu $3,$0,101
  40d6ec:	65 00 03 00 
  40d6f0:	55 00 00 00 	sll $2,$9,0x18
  40d6f4:	18 02 09 00 
  40d6f8:	59 00 00 00 	sra $2,$2,0x18
  40d6fc:	18 02 02 00 
  40d700:	06 00 00 00 	bne $2,$3,40e4d0 <__printf_fp+0x3850>
  40d704:	72 03 03 02 
  40d708:	28 00 00 00 	lw $9,1464($30)
  40d70c:	b8 05 09 1e 
  40d710:	34 00 00 00 	sw $9,1768($30)
  40d714:	e8 06 09 1e 
  40d718:	57 00 00 00 	srl $9,$9,0x1f
  40d71c:	1f 09 09 00 
  40d720:	34 00 00 00 	sw $9,1776($30)
  40d724:	f0 06 09 1e 
  40d728:	05 00 00 00 	beq $9,$0,40d748 <__printf_fp+0x2ac8>
  40d72c:	06 00 00 09 
  40d730:	28 00 00 00 	lw $9,1768($30)
  40d734:	e8 06 09 1e 
  40d738:	45 00 00 00 	subu $9,$0,$9
  40d73c:	00 09 09 00 
  40d740:	34 00 00 00 	sw $9,1768($30)
  40d744:	e8 06 09 1e 
  40d748:	28 00 00 00 	lw $9,1768($30)
  40d74c:	e8 06 09 1e 
  40d750:	43 00 00 00 	addiu $21,$0,10
  40d754:	0a 00 15 00 
  40d758:	5c 00 00 00 	slti $2,$9,10
  40d75c:	0a 00 02 09 
  40d760:	06 00 00 00 	bne $2,$0,40d798 <__printf_fp+0x2b18>
  40d764:	0c 00 00 02 
  40d768:	55 00 00 00 	sll $2,$21,0x2
  40d76c:	02 02 15 00 
  40d770:	28 00 00 00 	lw $9,1768($30)
  40d774:	e8 06 09 1e 
  40d778:	42 00 00 00 	addu $2,$2,$21
  40d77c:	00 02 15 02 
  40d780:	55 00 00 00 	sll $21,$2,0x1
  40d784:	01 15 02 00 
  40d788:	5b 00 00 00 	slt $2,$9,$21
  40d78c:	00 02 15 09 
  40d790:	05 00 00 00 	beq $2,$0,40d768 <__printf_fp+0x2ae8>
  40d794:	f4 ff 00 02 
  40d798:	22 00 00 00 	lbu $2,1484($30)
  40d79c:	cc 05 02 1e 
  40d7a0:	30 00 00 00 	sb $2,0($23)
  40d7a4:	00 00 02 17 
  40d7a8:	28 00 00 00 	lw $2,1500($30)
  40d7ac:	dc 05 02 1e 
  40d7b0:	43 00 00 00 	addiu $23,$23,1
  40d7b4:	01 00 17 17 
  40d7b8:	06 00 00 00 	bne $2,$0,40d7e8 <__printf_fp+0x2b68>
  40d7bc:	0a 00 00 02 
  40d7c0:	28 00 00 00 	lw $2,1508($30)
  40d7c4:	e4 05 02 1e 
  40d7c8:	06 00 00 00 	bne $2,$0,40d7e8 <__printf_fp+0x2b68>
  40d7cc:	06 00 00 02 
  40d7d0:	28 00 00 00 	lw $3,1464($30)
  40d7d4:	b8 05 03 1e 
  40d7d8:	28 00 00 00 	lw $2,1520($30)
  40d7dc:	f0 05 02 1e 
  40d7e0:	06 00 00 00 	bne $3,$2,40d880 <__printf_fp+0x2c00>
  40d7e4:	26 00 02 03 
  40d7e8:	28 00 00 00 	lw $9,1680($30)
  40d7ec:	90 06 09 1e 
  40d7f0:	22 00 00 00 	lbu $2,8($9)
  40d7f4:	08 00 02 09 
  40d7f8:	28 00 00 00 	lw $3,-32572($28)
  40d7fc:	c4 80 03 1c 
  40d800:	55 00 00 00 	sll $2,$2,0x1
  40d804:	01 02 02 00 
  40d808:	42 00 00 00 	addu $2,$2,$3
  40d80c:	00 02 03 02 
  40d810:	24 00 00 00 	lh $3,0($2)
  40d814:	00 00 03 02 
  40d818:	43 00 00 00 	addiu $2,$0,103
  40d81c:	67 00 02 00 
  40d820:	05 00 00 00 	beq $3,$2,40d838 <__printf_fp+0x2bb8>
  40d824:	04 00 02 03 
  40d828:	28 00 00 00 	lw $9,1712($30)
  40d82c:	b0 06 09 1e 
  40d830:	08 00 00 00 	bgtz $9,40d858 <__printf_fp+0x2bd8>
  40d834:	08 00 00 09 
  40d838:	28 00 00 00 	lw $9,1680($30)
  40d83c:	90 06 09 1e 
  40d840:	28 00 00 00 	lw $2,8($9)
  40d844:	08 00 02 09 
  40d848:	4f 00 00 00 	andi $2,$2,2048
  40d84c:	00 08 02 02 
  40d850:	05 00 00 00 	beq $2,$0,40e250 <__printf_fp+0x35d0>
  40d854:	7e 02 00 02 
  40d858:	28 00 00 00 	lw $9,1696($30)
  40d85c:	a0 06 09 1e 
  40d860:	22 00 00 00 	lbu $2,0($9)
  40d864:	00 00 02 09 
  40d868:	30 00 00 00 	sb $2,0($23)
  40d86c:	00 00 02 17 
  40d870:	43 00 00 00 	addiu $23,$23,1
  40d874:	01 00 17 17 
  40d878:	01 00 00 00 	j 40e250 <__printf_fp+0x35d0>
  40d87c:	94 38 10 00 
  40d880:	43 00 00 00 	addiu $9,$30,1176
  40d884:	98 04 09 1e 
  40d888:	34 00 00 00 	sw $9,1784($30)
  40d88c:	f8 06 09 1e 
  40d890:	43 00 00 00 	addiu $9,$30,888
  40d894:	78 03 09 1e 
  40d898:	34 00 00 00 	sw $9,1792($30)
  40d89c:	00 07 09 1e 
  40d8a0:	28 00 00 00 	lw $9,1696($30)
  40d8a4:	a0 06 09 1e 
  40d8a8:	22 00 00 00 	lbu $2,0($9)
  40d8ac:	00 00 02 09 
  40d8b0:	43 00 00 00 	addiu $16,$30,24
  40d8b4:	18 00 10 1e 
  40d8b8:	43 00 00 00 	addiu $9,$30,1032
  40d8bc:	08 04 09 1e 
  40d8c0:	34 00 00 00 	sw $9,1800($30)
  40d8c4:	08 07 09 1e 
  40d8c8:	43 00 00 00 	addiu $9,$30,600
  40d8cc:	58 02 09 1e 
  40d8d0:	34 00 00 00 	sw $9,1808($30)
  40d8d4:	10 07 09 1e 
  40d8d8:	30 00 00 00 	sb $2,0($23)
  40d8dc:	00 00 02 17 
  40d8e0:	43 00 00 00 	addiu $23,$23,1
  40d8e4:	01 00 17 17 
  40d8e8:	43 00 00 00 	addiu $4,$30,1176
  40d8ec:	98 04 04 1e 
  40d8f0:	43 00 00 00 	addiu $5,$30,888
  40d8f4:	78 03 05 1e 
  40d8f8:	28 00 00 00 	lw $2,1464($30)
  40d8fc:	b8 05 02 1e 
  40d900:	28 00 00 00 	lw $6,1472($30)
  40d904:	c0 05 06 1e 
  40d908:	43 00 00 00 	addiu $7,$0,10
  40d90c:	0a 00 07 00 
  40d910:	43 00 00 00 	addiu $2,$2,-1
  40d914:	ff ff 02 02 
  40d918:	34 00 00 00 	sw $2,1464($30)
  40d91c:	b8 05 02 1e 
  40d920:	02 00 00 00 	jal 411520 <__mpn_mul_1>
  40d924:	48 45 10 00 
  40d928:	28 00 00 00 	lw $3,1472($30)
  40d92c:	c0 05 03 1e 
  40d930:	42 00 00 00 	addu $4,$0,$2
  40d934:	00 04 02 00 
  40d938:	34 00 00 00 	sw $4,1468($30)
  40d93c:	bc 05 04 1e 
  40d940:	34 00 00 00 	sw $3,1476($30)
  40d944:	c4 05 03 1e 
  40d948:	05 00 00 00 	beq $4,$0,40d978 <__printf_fp+0x2cf8>
  40d94c:	0a 00 00 04 
  40d950:	43 00 00 00 	addiu $2,$3,1
  40d954:	01 00 02 03 
  40d958:	34 00 00 00 	sw $2,1476($30)
  40d95c:	c4 05 02 1e 
  40d960:	55 00 00 00 	sll $2,$3,0x2
  40d964:	02 02 03 00 
  40d968:	42 00 00 00 	addu $2,$2,$16
  40d96c:	00 02 10 02 
  40d970:	34 00 00 00 	sw $4,1152($2)
  40d974:	80 04 04 02 
  40d978:	28 00 00 00 	lw $2,1480($30)
  40d97c:	c8 05 02 1e 
  40d980:	55 00 00 00 	sll $2,$2,0x2
  40d984:	02 02 02 00 
  40d988:	42 00 00 00 	addu $2,$16,$2
  40d98c:	00 02 02 10 
  40d990:	28 00 00 00 	lw $4,140($2)
  40d994:	8c 00 04 02 
  40d998:	51 00 00 00 	ori $2,$0,65535
  40d99c:	ff ff 02 00 
  40d9a0:	5d 00 00 00 	sltu $2,$2,$4
  40d9a4:	00 02 04 02 
  40d9a8:	06 00 00 00 	bne $2,$0,40d9d0 <__printf_fp+0x2d50>
  40d9ac:	08 00 00 02 
  40d9b0:	5e 00 00 00 	sltiu $2,$4,256
  40d9b4:	00 01 02 04 
  40d9b8:	53 00 00 00 	xori $2,$2,1
  40d9bc:	01 00 02 02 
  40d9c0:	55 00 00 00 	sll $3,$2,0x3
  40d9c4:	03 03 02 00 
  40d9c8:	01 00 00 00 	j 40da00 <__printf_fp+0x2d80>
  40d9cc:	80 36 10 00 
  40d9d0:	a2 00 00 00 	lui $2,255
  40d9d4:	ff 00 02 00 
  40d9d8:	51 00 00 00 	ori $2,$2,65535
  40d9dc:	ff ff 02 02 
  40d9e0:	43 00 00 00 	addiu $3,$0,24
  40d9e4:	18 00 03 00 
  40d9e8:	5d 00 00 00 	sltu $2,$2,$4
  40d9ec:	00 02 04 02 
  40d9f0:	06 00 00 00 	bne $2,$0,40da00 <__printf_fp+0x2d80>
  40d9f4:	02 00 00 02 
  40d9f8:	43 00 00 00 	addiu $3,$0,16
  40d9fc:	10 00 03 00 
  40da00:	58 00 00 00 	srlv $2,$4,$3
  40da04:	00 02 04 03 
  40da08:	a2 00 00 00 	lui $1,4096
  40da0c:	00 10 01 00 
  40da10:	42 00 00 00 	addu $1,$1,$2
  40da14:	00 01 02 01 
  40da18:	22 00 00 00 	lbu $2,7552($1)
  40da1c:	80 1d 02 01 
  40da20:	42 00 00 00 	addu $2,$2,$3
  40da24:	00 02 03 02 
  40da28:	43 00 00 00 	addiu $3,$0,32
  40da2c:	20 00 03 00 
  40da30:	45 00 00 00 	subu $17,$3,$2
  40da34:	00 11 02 03 
  40da38:	05 00 00 00 	beq $17,$0,40dbc8 <__printf_fp+0x2f48>
  40da3c:	62 00 00 11 
  40da40:	43 00 00 00 	addiu $5,$16,144
  40da44:	90 00 05 10 
  40da48:	28 00 00 00 	lw $6,1456($16)
  40da4c:	b0 05 06 10 
  40da50:	42 00 00 00 	addu $7,$0,$17
  40da54:	00 07 11 00 
  40da58:	42 00 00 00 	addu $19,$0,$29
  40da5c:	00 13 1d 00 
  40da60:	55 00 00 00 	sll $2,$6,0x2
  40da64:	02 02 06 00 
  40da68:	43 00 00 00 	addiu $2,$2,14
  40da6c:	0e 00 02 02 
  40da70:	57 00 00 00 	srl $2,$2,0x3
  40da74:	03 02 02 00 
  40da78:	55 00 00 00 	sll $2,$2,0x3
  40da7c:	03 02 02 00 
  40da80:	45 00 00 00 	subu $29,$29,$2
  40da84:	00 1d 02 1d 
  40da88:	28 00 00 00 	lw $2,0($29)
  40da8c:	00 00 02 1d 
  40da90:	43 00 00 00 	addiu $18,$29,24
  40da94:	18 00 12 1d 
  40da98:	42 00 00 00 	addu $4,$0,$18
  40da9c:	00 04 12 00 
  40daa0:	02 00 00 00 	jal 410500 <__mpn_lshift>
  40daa4:	40 41 10 00 
  40daa8:	28 00 00 00 	lw $4,1784($30)
  40daac:	f8 06 04 1e 
  40dab0:	28 00 00 00 	lw $6,1452($16)
  40dab4:	ac 05 06 10 
  40dab8:	28 00 00 00 	lw $5,1784($30)
  40dabc:	f8 06 05 1e 
  40dac0:	42 00 00 00 	addu $7,$0,$17
  40dac4:	00 07 11 00 
  40dac8:	02 00 00 00 	jal 410500 <__mpn_lshift>
  40dacc:	40 41 10 00 
  40dad0:	42 00 00 00 	addu $4,$0,$2
  40dad4:	00 04 02 00 
  40dad8:	05 00 00 00 	beq $4,$0,40db10 <__printf_fp+0x2e90>
  40dadc:	0c 00 00 04 
  40dae0:	28 00 00 00 	lw $2,1452($16)
  40dae4:	ac 05 02 10 
  40dae8:	43 00 00 00 	addiu $3,$2,1
  40daec:	01 00 03 02 
  40daf0:	55 00 00 00 	sll $2,$2,0x2
  40daf4:	02 02 02 00 
  40daf8:	42 00 00 00 	addu $2,$2,$16
  40dafc:	00 02 10 02 
  40db00:	34 00 00 00 	sw $3,1452($16)
  40db04:	ac 05 03 10 
  40db08:	34 00 00 00 	sw $4,1152($2)
  40db0c:	80 04 04 02 
  40db10:	28 00 00 00 	lw $2,1456($16)
  40db14:	b0 05 02 10 
  40db18:	34 00 00 00 	sw $2,16($29)
  40db1c:	10 00 02 1d 
  40db20:	28 00 00 00 	lw $6,1452($16)
  40db24:	ac 05 06 10 
  40db28:	28 00 00 00 	lw $5,1784($30)
  40db2c:	f8 06 05 1e 
  40db30:	43 00 00 00 	addiu $4,$16,1296
  40db34:	10 05 04 10 
  40db38:	42 00 00 00 	addu $7,$0,$18
  40db3c:	00 07 12 00 
  40db40:	02 00 00 00 	jal 411650 <__mpn_divmod>
  40db44:	94 45 10 00 
  40db48:	28 00 00 00 	lw $3,1452($16)
  40db4c:	ac 05 03 10 
  40db50:	28 00 00 00 	lw $5,1456($16)
  40db54:	b0 05 05 10 
  40db58:	28 00 00 00 	lw $4,1784($30)
  40db5c:	f8 06 04 1e 
  40db60:	45 00 00 00 	subu $3,$3,$5
  40db64:	00 03 05 03 
  40db68:	55 00 00 00 	sll $3,$3,0x2
  40db6c:	02 03 03 00 
  40db70:	42 00 00 00 	addu $3,$3,$16
  40db74:	00 03 10 03 
  40db78:	34 00 00 00 	sw $2,1296($3)
  40db7c:	10 05 02 03 
  40db80:	28 00 00 00 	lw $6,1456($16)
  40db84:	b0 05 06 10 
  40db88:	28 00 00 00 	lw $5,1784($30)
  40db8c:	f8 06 05 1e 
  40db90:	42 00 00 00 	addu $7,$0,$17
  40db94:	00 07 11 00 
  40db98:	34 00 00 00 	sw $6,1452($16)
  40db9c:	ac 05 06 10 
  40dba0:	02 00 00 00 	jal 412190 <__mpn_rshift>
  40dba4:	64 48 10 00 
  40dba8:	42 00 00 00 	addu $29,$0,$19
  40dbac:	00 1d 13 00 
  40dbb0:	01 00 00 00 	j 40dc40 <__printf_fp+0x2fc0>
  40dbb4:	10 37 10 00 
  40dbb8:	43 00 00 00 	addiu $2,$4,1
  40dbbc:	01 00 02 04 
  40dbc0:	01 00 00 00 	j 40dcb0 <__printf_fp+0x3030>
  40dbc4:	2c 37 10 00 
  40dbc8:	28 00 00 00 	lw $2,1456($16)
  40dbcc:	b0 05 02 10 
  40dbd0:	43 00 00 00 	addiu $4,$16,1296
  40dbd4:	10 05 04 10 
  40dbd8:	34 00 00 00 	sw $2,16($29)
  40dbdc:	10 00 02 1d 
  40dbe0:	28 00 00 00 	lw $6,1452($16)
  40dbe4:	ac 05 06 10 
  40dbe8:	43 00 00 00 	addiu $5,$16,1152
  40dbec:	80 04 05 10 
  40dbf0:	43 00 00 00 	addiu $7,$16,144
  40dbf4:	90 00 07 10 
  40dbf8:	02 00 00 00 	jal 411650 <__mpn_divmod>
  40dbfc:	94 45 10 00 
  40dc00:	28 00 00 00 	lw $3,1452($16)
  40dc04:	ac 05 03 10 
  40dc08:	28 00 00 00 	lw $4,1456($16)
  40dc0c:	b0 05 04 10 
  40dc10:	45 00 00 00 	subu $3,$3,$4
  40dc14:	00 03 04 03 
  40dc18:	55 00 00 00 	sll $3,$3,0x2
  40dc1c:	02 03 03 00 
  40dc20:	42 00 00 00 	addu $3,$3,$16
  40dc24:	00 03 10 03 
  40dc28:	34 00 00 00 	sw $2,1296($3)
  40dc2c:	10 05 02 03 
  40dc30:	28 00 00 00 	lw $2,1456($16)
  40dc34:	b0 05 02 10 
  40dc38:	34 00 00 00 	sw $2,1452($16)
  40dc3c:	ac 05 02 10 
  40dc40:	28 00 00 00 	lw $2,1296($16)
  40dc44:	10 05 02 10 
  40dc48:	28 00 00 00 	lw $4,1452($16)
  40dc4c:	ac 05 04 10 
  40dc50:	43 00 00 00 	addiu $3,$16,1152
  40dc54:	80 04 03 10 
  40dc58:	43 00 00 00 	addiu $2,$2,48
  40dc5c:	30 00 02 02 
  40dc60:	30 00 00 00 	sb $2,1460($16)
  40dc64:	b4 05 02 10 
  40dc68:	05 00 00 00 	beq $4,$0,40dca8 <__printf_fp+0x3028>
  40dc6c:	0e 00 00 04 
  40dc70:	55 00 00 00 	sll $2,$4,0x2
  40dc74:	02 02 04 00 
  40dc78:	42 00 00 00 	addu $3,$2,$3
  40dc7c:	00 03 03 02 
  40dc80:	43 00 00 00 	addiu $3,$3,-4
  40dc84:	fc ff 03 03 
  40dc88:	28 00 00 00 	lw $2,0($3)
  40dc8c:	00 00 02 03 
  40dc90:	43 00 00 00 	addiu $4,$4,-1
  40dc94:	ff ff 04 04 
  40dc98:	06 00 00 00 	bne $2,$0,40dbb8 <__printf_fp+0x2f38>
  40dc9c:	c6 ff 00 02 
  40dca0:	06 00 00 00 	bne $4,$0,40dc80 <__printf_fp+0x3000>
  40dca4:	f6 ff 00 04 
  40dca8:	42 00 00 00 	addu $2,$0,$0
  40dcac:	00 02 00 00 
  40dcb0:	34 00 00 00 	sw $2,1452($16)
  40dcb4:	ac 05 02 10 
  40dcb8:	06 00 00 00 	bne $2,$0,40dcd0 <__printf_fp+0x3050>
  40dcbc:	04 00 00 02 
  40dcc0:	43 00 00 00 	addiu $2,$0,1
  40dcc4:	01 00 02 00 
  40dcc8:	34 00 00 00 	sw $2,1452($16)
  40dccc:	ac 05 02 10 
  40dcd0:	28 00 00 00 	lw $2,1452($16)
  40dcd4:	ac 05 02 10 
  40dcd8:	28 00 00 00 	lw $4,1792($30)
  40dcdc:	00 07 04 1e 
  40dce0:	43 00 00 00 	addiu $5,$16,1152
  40dce4:	80 04 05 10 
  40dce8:	55 00 00 00 	sll $6,$2,0x2
  40dcec:	02 06 02 00 
  40dcf0:	34 00 00 00 	sw $2,1448($16)
  40dcf4:	a8 05 02 10 
  40dcf8:	02 00 00 00 	jal 40fb00 <memcpy>
  40dcfc:	c0 3e 10 00 
  40dd00:	28 00 00 00 	lw $4,1800($30)
  40dd04:	08 07 04 1e 
  40dd08:	28 00 00 00 	lw $6,1448($16)
  40dd0c:	a8 05 06 10 
  40dd10:	28 00 00 00 	lw $5,1792($30)
  40dd14:	00 07 05 1e 
  40dd18:	43 00 00 00 	addiu $7,$0,1
  40dd1c:	01 00 07 00 
  40dd20:	02 00 00 00 	jal 410500 <__mpn_lshift>
  40dd24:	40 41 10 00 
  40dd28:	28 00 00 00 	lw $4,1448($16)
  40dd2c:	a8 05 04 10 
  40dd30:	34 00 00 00 	sw $2,1444($16)
  40dd34:	a4 05 02 10 
  40dd38:	28 00 00 00 	lw $2,1444($16)
  40dd3c:	a4 05 02 10 
  40dd40:	34 00 00 00 	sw $4,1464($16)
  40dd44:	b8 05 04 10 
  40dd48:	05 00 00 00 	beq $2,$0,40dd80 <__printf_fp+0x3100>
  40dd4c:	0c 00 00 02 
  40dd50:	28 00 00 00 	lw $3,1444($16)
  40dd54:	a4 05 03 10 
  40dd58:	43 00 00 00 	addiu $2,$4,1
  40dd5c:	01 00 02 04 
  40dd60:	34 00 00 00 	sw $2,1464($16)
  40dd64:	b8 05 02 10 
  40dd68:	55 00 00 00 	sll $2,$4,0x2
  40dd6c:	02 02 04 00 
  40dd70:	42 00 00 00 	addu $2,$2,$16
  40dd74:	00 02 10 02 
  40dd78:	34 00 00 00 	sw $3,1008($2)
  40dd7c:	f0 03 03 02 
  40dd80:	28 00 00 00 	lw $4,1808($30)
  40dd84:	10 07 04 1e 
  40dd88:	28 00 00 00 	lw $6,1468($16)
  40dd8c:	bc 05 06 10 
  40dd90:	28 00 00 00 	lw $5,1808($30)
  40dd94:	10 07 05 1e 
  40dd98:	43 00 00 00 	addiu $7,$0,10
  40dd9c:	0a 00 07 00 
  40dda0:	02 00 00 00 	jal 411520 <__mpn_mul_1>
  40dda4:	48 45 10 00 
  40dda8:	34 00 00 00 	sw $2,1444($16)
  40ddac:	a4 05 02 10 
  40ddb0:	05 00 00 00 	beq $2,$0,40ddf0 <__printf_fp+0x3170>
  40ddb4:	0e 00 00 02 
  40ddb8:	28 00 00 00 	lw $2,1468($16)
  40ddbc:	bc 05 02 10 
  40ddc0:	43 00 00 00 	addiu $3,$2,1
  40ddc4:	01 00 03 02 
  40ddc8:	34 00 00 00 	sw $3,1468($16)
  40ddcc:	bc 05 03 10 
  40ddd0:	28 00 00 00 	lw $3,1444($16)
  40ddd4:	a4 05 03 10 
  40ddd8:	55 00 00 00 	sll $2,$2,0x2
  40dddc:	02 02 02 00 
  40dde0:	42 00 00 00 	addu $2,$2,$16
  40dde4:	00 02 10 02 
  40dde8:	34 00 00 00 	sw $3,576($2)
  40ddec:	40 02 03 02 
  40ddf0:	43 00 00 00 	addiu $4,$16,720
  40ddf4:	d0 02 04 10 
  40ddf8:	28 00 00 00 	lw $6,1472($16)
  40ddfc:	c0 05 06 10 
  40de00:	42 00 00 00 	addu $5,$0,$4
  40de04:	00 05 04 00 
  40de08:	43 00 00 00 	addiu $7,$0,10
  40de0c:	0a 00 07 00 
  40de10:	02 00 00 00 	jal 411520 <__mpn_mul_1>
  40de14:	48 45 10 00 
  40de18:	34 00 00 00 	sw $2,1444($16)
  40de1c:	a4 05 02 10 
  40de20:	05 00 00 00 	beq $2,$0,40de60 <__printf_fp+0x31e0>
  40de24:	0e 00 00 02 
  40de28:	28 00 00 00 	lw $2,1472($16)
  40de2c:	c0 05 02 10 
  40de30:	43 00 00 00 	addiu $3,$2,1
  40de34:	01 00 03 02 
  40de38:	34 00 00 00 	sw $3,1472($16)
  40de3c:	c0 05 03 10 
  40de40:	28 00 00 00 	lw $3,1444($16)
  40de44:	a4 05 03 10 
  40de48:	55 00 00 00 	sll $2,$2,0x2
  40de4c:	02 02 02 00 
  40de50:	42 00 00 00 	addu $2,$2,$16
  40de54:	00 02 10 02 
  40de58:	34 00 00 00 	sw $3,720($2)
  40de5c:	d0 02 03 02 
  40de60:	28 00 00 00 	lw $6,1464($16)
  40de64:	b8 05 06 10 
  40de68:	28 00 00 00 	lw $3,1468($16)
  40de6c:	bc 05 03 10 
  40de70:	42 00 00 00 	addu $19,$0,$0
  40de74:	00 13 00 00 
  40de78:	5b 00 00 00 	slt $2,$6,$3
  40de7c:	00 02 03 06 
  40de80:	06 00 00 00 	bne $2,$0,40deb0 <__printf_fp+0x3230>
  40de84:	0a 00 00 02 
  40de88:	06 00 00 00 	bne $6,$3,40deb8 <__printf_fp+0x3238>
  40de8c:	0a 00 03 06 
  40de90:	28 00 00 00 	lw $4,1800($30)
  40de94:	08 07 04 1e 
  40de98:	28 00 00 00 	lw $5,1808($30)
  40de9c:	10 07 05 1e 
  40dea0:	02 00 00 00 	jal 4105f0 <__mpn_cmp>
  40dea4:	7c 41 10 00 
  40dea8:	0a 00 00 00 	bgez $2,40deb8 <__printf_fp+0x3238>
  40deac:	02 00 00 02 
  40deb0:	43 00 00 00 	addiu $19,$0,1
  40deb4:	01 00 13 00 
  40deb8:	28 00 00 00 	lw $18,1480($16)
  40debc:	c8 05 12 10 
  40dec0:	28 00 00 00 	lw $17,1472($16)
  40dec4:	c0 05 11 10 
  40dec8:	34 00 00 00 	sw $19,1476($16)
  40decc:	c4 05 13 10 
  40ded0:	5b 00 00 00 	slt $2,$18,$17
  40ded4:	00 02 11 12 
  40ded8:	05 00 00 00 	beq $2,$0,40def8 <__printf_fp+0x3278>
  40dedc:	06 00 00 02 
  40dee0:	43 00 00 00 	addiu $2,$0,1
  40dee4:	01 00 02 00 
  40dee8:	34 00 00 00 	sw $2,1484($16)
  40deec:	cc 05 02 10 
  40def0:	01 00 00 00 	j 40e150 <__printf_fp+0x34d0>
  40def4:	54 38 10 00 
  40def8:	42 00 00 00 	addu $6,$0,$0
  40defc:	00 06 00 00 
  40df00:	43 00 00 00 	addiu $20,$16,1296
  40df04:	10 05 14 10 
  40df08:	43 00 00 00 	addiu $19,$16,288
  40df0c:	20 01 13 10 
  40df10:	43 00 00 00 	addiu $2,$16,720
  40df14:	d0 02 02 10 
  40df18:	05 00 00 00 	beq $17,$0,40df50 <__printf_fp+0x32d0>
  40df1c:	0c 00 00 11 
  40df20:	42 00 00 00 	addu $4,$0,$20
  40df24:	00 04 14 00 
  40df28:	42 00 00 00 	addu $5,$0,$19
  40df2c:	00 05 13 00 
  40df30:	42 00 00 00 	addu $6,$0,$2
  40df34:	00 06 02 00 
  40df38:	42 00 00 00 	addu $7,$0,$17
  40df3c:	00 07 11 00 
  40df40:	02 00 00 00 	jal 412270 <__mpn_sub_n>
  40df44:	9c 48 10 00 
  40df48:	42 00 00 00 	addu $6,$0,$2
  40df4c:	00 06 02 00 
  40df50:	05 00 00 00 	beq $18,$17,40e070 <__printf_fp+0x33f0>
  40df54:	46 00 11 12 
  40df58:	55 00 00 00 	sll $2,$17,0x2
  40df5c:	02 02 11 00 
  40df60:	42 00 00 00 	addu $5,$2,$19
  40df64:	00 05 13 02 
  40df68:	28 00 00 00 	lw $3,0($5)
  40df6c:	00 00 03 05 
  40df70:	42 00 00 00 	addu $4,$2,$20
  40df74:	00 04 14 02 
  40df78:	45 00 00 00 	subu $7,$18,$17
  40df7c:	00 07 11 12 
  40df80:	43 00 00 00 	addiu $5,$5,4
  40df84:	04 00 05 05 
  40df88:	45 00 00 00 	subu $2,$3,$6
  40df8c:	00 02 06 03 
  40df90:	34 00 00 00 	sw $2,0($4)
  40df94:	00 00 02 04 
  40df98:	43 00 00 00 	addiu $4,$4,4
  40df9c:	04 00 04 04 
  40dfa0:	5d 00 00 00 	sltu $2,$3,$2
  40dfa4:	00 02 02 03 
  40dfa8:	05 00 00 00 	beq $2,$0,40e010 <__printf_fp+0x3390>
  40dfac:	18 00 00 02 
  40dfb0:	43 00 00 00 	addiu $7,$7,-1
  40dfb4:	ff ff 07 07 
  40dfb8:	05 00 00 00 	beq $7,$0,40e000 <__printf_fp+0x3380>
  40dfbc:	10 00 00 07 
  40dfc0:	28 00 00 00 	lw $3,0($5)
  40dfc4:	00 00 03 05 
  40dfc8:	43 00 00 00 	addiu $5,$5,4
  40dfcc:	04 00 05 05 
  40dfd0:	43 00 00 00 	addiu $2,$3,-1
  40dfd4:	ff ff 02 03 
  40dfd8:	34 00 00 00 	sw $2,0($4)
  40dfdc:	00 00 02 04 
  40dfe0:	43 00 00 00 	addiu $4,$4,4
  40dfe4:	04 00 04 04 
  40dfe8:	06 00 00 00 	bne $3,$0,40e010 <__printf_fp+0x3390>
  40dfec:	08 00 00 03 
  40dff0:	43 00 00 00 	addiu $7,$7,-1
  40dff4:	ff ff 07 07 
  40dff8:	06 00 00 00 	bne $7,$0,40dfc0 <__printf_fp+0x3340>
  40dffc:	f0 ff 00 07 
  40e000:	43 00 00 00 	addiu $6,$0,1
  40e004:	01 00 06 00 
  40e008:	01 00 00 00 	j 40e070 <__printf_fp+0x33f0>
  40e00c:	1c 38 10 00 
  40e010:	05 00 00 00 	beq $4,$5,40e068 <__printf_fp+0x33e8>
  40e014:	14 00 05 04 
  40e018:	42 00 00 00 	addu $3,$0,$0
  40e01c:	00 03 00 00 
  40e020:	43 00 00 00 	addiu $7,$7,-1
  40e024:	ff ff 07 07 
  40e028:	07 00 00 00 	blez $7,40e068 <__printf_fp+0x33e8>
  40e02c:	0e 00 00 07 
  40e030:	28 00 00 00 	lw $2,0($5)
  40e034:	00 00 02 05 
  40e038:	43 00 00 00 	addiu $3,$3,1
  40e03c:	01 00 03 03 
  40e040:	34 00 00 00 	sw $2,0($4)
  40e044:	00 00 02 04 
  40e048:	43 00 00 00 	addiu $4,$4,4
  40e04c:	04 00 04 04 
  40e050:	43 00 00 00 	addiu $5,$5,4
  40e054:	04 00 05 05 
  40e058:	5b 00 00 00 	slt $2,$3,$7
  40e05c:	00 02 07 03 
  40e060:	06 00 00 00 	bne $2,$0,40e030 <__printf_fp+0x33b0>
  40e064:	f2 ff 00 02 
  40e068:	42 00 00 00 	addu $6,$0,$0
  40e06c:	00 06 00 00 
  40e070:	28 00 00 00 	lw $7,1480($16)
  40e074:	c8 05 07 10 
  40e078:	34 00 00 00 	sw $6,1444($16)
  40e07c:	a4 05 06 10 
  40e080:	28 00 00 00 	lw $2,1444($16)
  40e084:	a4 05 02 10 
  40e088:	42 00 00 00 	addu $17,$0,$0
  40e08c:	00 11 00 00 
  40e090:	34 00 00 00 	sw $7,1488($16)
  40e094:	d0 05 07 10 
  40e098:	06 00 00 00 	bne $2,$0,40e140 <__printf_fp+0x34c0>
  40e09c:	28 00 00 02 
  40e0a0:	28 00 00 00 	lw $2,1492($16)
  40e0a4:	d4 05 02 10 
  40e0a8:	05 00 00 00 	beq $2,$0,40e100 <__printf_fp+0x3480>
  40e0ac:	14 00 00 02 
  40e0b0:	28 00 00 00 	lw $3,1464($16)
  40e0b4:	b8 05 03 10 
  40e0b8:	5b 00 00 00 	slt $2,$7,$3
  40e0bc:	00 02 03 07 
  40e0c0:	06 00 00 00 	bne $2,$0,40e140 <__printf_fp+0x34c0>
  40e0c4:	1e 00 00 02 
  40e0c8:	06 00 00 00 	bne $3,$7,40e148 <__printf_fp+0x34c8>
  40e0cc:	1e 00 07 03 
  40e0d0:	43 00 00 00 	addiu $4,$16,1008
  40e0d4:	f0 03 04 10 
  40e0d8:	43 00 00 00 	addiu $5,$16,1296
  40e0dc:	10 05 05 10 
  40e0e0:	42 00 00 00 	addu $6,$0,$7
  40e0e4:	00 06 07 00 
  40e0e8:	02 00 00 00 	jal 4105f0 <__mpn_cmp>
  40e0ec:	7c 41 10 00 
  40e0f0:	0a 00 00 00 	bgez $2,40e140 <__printf_fp+0x34c0>
  40e0f4:	12 00 00 02 
  40e0f8:	01 00 00 00 	j 40e148 <__printf_fp+0x34c8>
  40e0fc:	52 38 10 00 
  40e100:	28 00 00 00 	lw $6,1464($16)
  40e104:	b8 05 06 10 
  40e108:	5b 00 00 00 	slt $2,$7,$6
  40e10c:	00 02 06 07 
  40e110:	06 00 00 00 	bne $2,$0,40e140 <__printf_fp+0x34c0>
  40e114:	0a 00 00 02 
  40e118:	06 00 00 00 	bne $6,$7,40e148 <__printf_fp+0x34c8>
  40e11c:	0a 00 07 06 
  40e120:	43 00 00 00 	addiu $4,$16,1008
  40e124:	f0 03 04 10 
  40e128:	43 00 00 00 	addiu $5,$16,1296
  40e12c:	10 05 05 10 
  40e130:	02 00 00 00 	jal 4105f0 <__mpn_cmp>
  40e134:	7c 41 10 00 
  40e138:	07 00 00 00 	blez $2,40e148 <__printf_fp+0x34c8>
  40e13c:	02 00 00 02 
  40e140:	43 00 00 00 	addiu $17,$0,1
  40e144:	01 00 11 00 
  40e148:	34 00 00 00 	sw $17,1484($16)
  40e14c:	cc 05 11 10 
  40e150:	28 00 00 00 	lw $2,1476($16)
  40e154:	c4 05 02 10 
  40e158:	06 00 00 00 	bne $2,$0,40e188 <__printf_fp+0x3508>
  40e15c:	0a 00 00 02 
  40e160:	28 00 00 00 	lw $2,1484($16)
  40e164:	cc 05 02 10 
  40e168:	06 00 00 00 	bne $2,$0,40e198 <__printf_fp+0x3518>
  40e16c:	0a 00 00 02 
  40e170:	28 00 00 00 	lw $3,1440($16)
  40e174:	a0 05 03 10 
  40e178:	28 00 00 00 	lw $2,1496($16)
  40e17c:	d8 05 02 10 
  40e180:	06 00 00 00 	bne $3,$2,40e228 <__printf_fp+0x35a8>
  40e184:	28 00 02 03 
  40e188:	28 00 00 00 	lw $2,1484($16)
  40e18c:	cc 05 02 10 
  40e190:	05 00 00 00 	beq $2,$0,40e218 <__printf_fp+0x3598>
  40e194:	20 00 00 02 
  40e198:	28 00 00 00 	lw $2,1476($16)
  40e19c:	c4 05 02 10 
  40e1a0:	05 00 00 00 	beq $2,$0,40e200 <__printf_fp+0x3580>
  40e1a4:	16 00 00 02 
  40e1a8:	28 00 00 00 	lw $2,1484($16)
  40e1ac:	cc 05 02 10 
  40e1b0:	05 00 00 00 	beq $2,$0,40e218 <__printf_fp+0x3598>
  40e1b4:	18 00 00 02 
  40e1b8:	28 00 00 00 	lw $6,1464($16)
  40e1bc:	b8 05 06 10 
  40e1c0:	28 00 00 00 	lw $3,1456($16)
  40e1c4:	b0 05 03 10 
  40e1c8:	5b 00 00 00 	slt $2,$3,$6
  40e1cc:	00 02 06 03 
  40e1d0:	06 00 00 00 	bne $2,$0,40e200 <__printf_fp+0x3580>
  40e1d4:	0a 00 00 02 
  40e1d8:	06 00 00 00 	bne $6,$3,40e218 <__printf_fp+0x3598>
  40e1dc:	0e 00 03 06 
  40e1e0:	43 00 00 00 	addiu $4,$16,1008
  40e1e4:	f0 03 04 10 
  40e1e8:	43 00 00 00 	addiu $5,$16,144
  40e1ec:	90 00 05 10 
  40e1f0:	02 00 00 00 	jal 4105f0 <__mpn_cmp>
  40e1f4:	7c 41 10 00 
  40e1f8:	07 00 00 00 	blez $2,40e218 <__printf_fp+0x3598>
  40e1fc:	06 00 00 02 
  40e200:	22 00 00 00 	lbu $2,1460($16)
  40e204:	b4 05 02 10 
  40e208:	43 00 00 00 	addiu $2,$2,1
  40e20c:	01 00 02 02 
  40e210:	30 00 00 00 	sb $2,1460($16)
  40e214:	b4 05 02 10 
  40e218:	43 00 00 00 	addiu $3,$0,1
  40e21c:	01 00 03 00 
  40e220:	01 00 00 00 	j 40e230 <__printf_fp+0x35b0>
  40e224:	8c 38 10 00 
  40e228:	42 00 00 00 	addu $3,$0,$0
  40e22c:	00 03 00 00 
  40e230:	22 00 00 00 	lbu $2,1484($30)
  40e234:	cc 05 02 1e 
  40e238:	30 00 00 00 	sb $2,0($23)
  40e23c:	00 00 02 17 
  40e240:	43 00 00 00 	addiu $23,$23,1
  40e244:	01 00 17 17 
  40e248:	05 00 00 00 	beq $3,$0,40d8e8 <__printf_fp+0x2c68>
  40e24c:	a6 fd 00 03 
  40e250:	28 00 00 00 	lw $9,1680($30)
  40e254:	90 06 09 1e 
  40e258:	22 00 00 00 	lbu $2,8($9)
  40e25c:	08 00 02 09 
  40e260:	28 00 00 00 	lw $3,-32572($28)
  40e264:	c4 80 03 1c 
  40e268:	55 00 00 00 	sll $2,$2,0x1
  40e26c:	01 02 02 00 
  40e270:	42 00 00 00 	addu $2,$2,$3
  40e274:	00 02 03 02 
  40e278:	24 00 00 00 	lh $3,0($2)
  40e27c:	00 00 03 02 
  40e280:	43 00 00 00 	addiu $2,$0,103
  40e284:	67 00 02 00 
  40e288:	06 00 00 00 	bne $3,$2,40e2a8 <__printf_fp+0x3628>
  40e28c:	06 00 02 03 
  40e290:	28 00 00 00 	lw $2,8($9)
  40e294:	08 00 02 09 
  40e298:	4f 00 00 00 	andi $2,$2,2048
  40e29c:	00 08 02 02 
  40e2a0:	05 00 00 00 	beq $2,$0,40e320 <__printf_fp+0x36a0>
  40e2a4:	1e 00 00 02 
  40e2a8:	28 00 00 00 	lw $2,1464($30)
  40e2ac:	b8 05 02 1e 
  40e2b0:	28 00 00 00 	lw $3,1520($30)
  40e2b4:	f0 05 03 1e 
  40e2b8:	43 00 00 00 	addiu $2,$2,-1
  40e2bc:	ff ff 02 02 
  40e2c0:	34 00 00 00 	sw $2,1464($30)
  40e2c4:	b8 05 02 1e 
  40e2c8:	5b 00 00 00 	slt $2,$2,$3
  40e2cc:	00 02 03 02 
  40e2d0:	06 00 00 00 	bne $2,$0,40e320 <__printf_fp+0x36a0>
  40e2d4:	12 00 00 02 
  40e2d8:	43 00 00 00 	addiu $4,$0,48
  40e2dc:	30 00 04 00 
  40e2e0:	30 00 00 00 	sb $4,0($23)
  40e2e4:	00 00 04 17 
  40e2e8:	28 00 00 00 	lw $2,1464($30)
  40e2ec:	b8 05 02 1e 
  40e2f0:	28 00 00 00 	lw $3,1520($30)
  40e2f4:	f0 05 03 1e 
  40e2f8:	43 00 00 00 	addiu $23,$23,1
  40e2fc:	01 00 17 17 
  40e300:	43 00 00 00 	addiu $2,$2,-1
  40e304:	ff ff 02 02 
  40e308:	34 00 00 00 	sw $2,1464($30)
  40e30c:	b8 05 02 1e 
  40e310:	5b 00 00 00 	slt $2,$2,$3
  40e314:	00 02 03 02 
  40e318:	05 00 00 00 	beq $2,$0,40e2e0 <__printf_fp+0x3660>
  40e31c:	f0 ff 00 02 
  40e320:	28 00 00 00 	lw $9,1680($30)
  40e324:	90 06 09 1e 
  40e328:	22 00 00 00 	lbu $2,8($9)
  40e32c:	08 00 02 09 
  40e330:	28 00 00 00 	lw $3,-32576($28)
  40e334:	c0 80 03 1c 
  40e338:	42 00 00 00 	addu $4,$0,$23
  40e33c:	00 04 17 00 
  40e340:	55 00 00 00 	sll $2,$2,0x1
  40e344:	01 02 02 00 
  40e348:	42 00 00 00 	addu $2,$2,$3
  40e34c:	00 02 03 02 
  40e350:	26 00 00 00 	lhu $2,0($2)
  40e354:	00 00 02 02 
  40e358:	43 00 00 00 	addiu $23,$23,1
  40e35c:	01 00 17 17 
  40e360:	43 00 00 00 	addiu $3,$0,101
  40e364:	65 00 03 00 
  40e368:	4f 00 00 00 	andi $2,$2,1
  40e36c:	01 00 02 02 
  40e370:	05 00 00 00 	beq $2,$0,40e380 <__printf_fp+0x3700>
  40e374:	02 00 00 02 
  40e378:	43 00 00 00 	addiu $3,$0,69
  40e37c:	45 00 03 00 
  40e380:	30 00 00 00 	sb $3,0($4)
  40e384:	00 00 03 04 
  40e388:	42 00 00 00 	addu $3,$0,$23
  40e38c:	00 03 17 00 
  40e390:	28 00 00 00 	lw $9,1776($30)
  40e394:	f0 06 09 1e 
  40e398:	43 00 00 00 	addiu $23,$23,1
  40e39c:	01 00 17 17 
  40e3a0:	43 00 00 00 	addiu $2,$0,43
  40e3a4:	2b 00 02 00 
  40e3a8:	05 00 00 00 	beq $9,$0,40e3b8 <__printf_fp+0x3738>
  40e3ac:	02 00 00 09 
  40e3b0:	43 00 00 00 	addiu $2,$0,45
  40e3b4:	2d 00 02 00 
  40e3b8:	30 00 00 00 	sb $2,0($3)
  40e3bc:	00 00 02 03 
  40e3c0:	28 00 00 00 	lw $9,1768($30)
  40e3c4:	e8 06 09 1e 
  40e3c8:	5c 00 00 00 	slti $2,$9,10
  40e3cc:	0a 00 02 09 
  40e3d0:	05 00 00 00 	beq $2,$0,40e3f0 <__printf_fp+0x3770>
  40e3d4:	06 00 00 02 
  40e3d8:	43 00 00 00 	addiu $2,$0,48
  40e3dc:	30 00 02 00 
  40e3e0:	30 00 00 00 	sb $2,0($23)
  40e3e4:	00 00 02 17 
  40e3e8:	43 00 00 00 	addiu $23,$23,1
  40e3ec:	01 00 17 17 
  40e3f0:	a2 00 00 00 	lui $5,26214
  40e3f4:	66 66 05 00 
  40e3f8:	51 00 00 00 	ori $5,$5,26215
  40e3fc:	67 66 05 05 
  40e400:	46 00 00 00 	mult $21,$5
  40e404:	00 00 05 15 
  40e408:	4a 00 00 00 	mfhi $3
  40e40c:	00 03 00 00 
  40e410:	4c 00 00 00 	mflo $2
  40e414:	00 02 00 00 
  40e418:	28 00 00 00 	lw $9,1768($30)
  40e41c:	e8 06 09 1e 
  40e420:	57 00 00 00 	srl $2,$3,0x0
  40e424:	00 02 03 00 
  40e428:	42 00 00 00 	addu $3,$0,$0
  40e42c:	00 03 00 00 
  40e430:	59 00 00 00 	sra $2,$2,0x2
  40e434:	02 02 02 00 
  40e438:	59 00 00 00 	sra $4,$21,0x1f
  40e43c:	1f 04 15 00 
  40e440:	45 00 00 00 	subu $21,$2,$4
  40e444:	00 15 04 02 
  40e448:	48 00 00 00 	div $0,$9,$21
  40e44c:	00 00 15 09 
  40e450:	06 00 00 00 	bne $21,$0,40e460 <__printf_fp+0x37e0>
  40e454:	02 00 00 15 
  40e458:	a1 00 00 00 	break 
  40e45c:	07 00 00 00 
  40e460:	43 00 00 00 	addiu $1,$0,-1
  40e464:	ff ff 01 00 
  40e468:	06 00 00 00 	bne $21,$1,40e488 <__printf_fp+0x3808>
  40e46c:	06 00 01 15 
  40e470:	a2 00 00 00 	lui $1,32768
  40e474:	00 80 01 00 
  40e478:	06 00 00 00 	bne $9,$1,40e488 <__printf_fp+0x3808>
  40e47c:	02 00 01 09 
  40e480:	a1 00 00 00 	break 
  40e484:	06 00 00 00 
  40e488:	4c 00 00 00 	mflo $2
  40e48c:	00 02 00 00 
  40e490:	4a 00 00 00 	mfhi $3
  40e494:	00 03 00 00 
  40e498:	43 00 00 00 	addiu $2,$2,48
  40e49c:	30 00 02 02 
  40e4a0:	30 00 00 00 	sb $2,0($23)
  40e4a4:	00 00 02 17 
  40e4a8:	43 00 00 00 	addiu $23,$23,1
  40e4ac:	01 00 17 17 
  40e4b0:	5c 00 00 00 	slti $2,$21,2
  40e4b4:	02 00 02 15 
  40e4b8:	34 00 00 00 	sw $3,1768($30)
  40e4bc:	e8 06 03 1e 
  40e4c0:	05 00 00 00 	beq $2,$0,40e400 <__printf_fp+0x3780>
  40e4c4:	ce ff 00 02 
  40e4c8:	01 00 00 00 	j 40f118 <__printf_fp+0x4498>
  40e4cc:	46 3c 10 00 
  40e4d0:	28 00 00 00 	lw $2,1464($30)
  40e4d4:	b8 05 02 1e 
  40e4d8:	0a 00 00 00 	bgez $2,40e5a0 <__printf_fp+0x3920>
  40e4dc:	30 00 00 02 
  40e4e0:	43 00 00 00 	addiu $2,$0,48
  40e4e4:	30 00 02 00 
  40e4e8:	30 00 00 00 	sb $2,0($23)
  40e4ec:	00 00 02 17 
  40e4f0:	28 00 00 00 	lw $9,1712($30)
  40e4f4:	b0 06 09 1e 
  40e4f8:	43 00 00 00 	addiu $23,$23,1
  40e4fc:	01 00 17 17 
  40e500:	08 00 00 00 	bgtz $9,40e528 <__printf_fp+0x38a8>
  40e504:	08 00 00 09 
  40e508:	28 00 00 00 	lw $9,1680($30)
  40e50c:	90 06 09 1e 
  40e510:	28 00 00 00 	lw $2,8($9)
  40e514:	08 00 02 09 
  40e518:	4f 00 00 00 	andi $2,$2,2048
  40e51c:	00 08 02 02 
  40e520:	05 00 00 00 	beq $2,$0,40e548 <__printf_fp+0x38c8>
  40e524:	08 00 00 02 
  40e528:	28 00 00 00 	lw $9,1696($30)
  40e52c:	a0 06 09 1e 
  40e530:	22 00 00 00 	lbu $2,0($9)
  40e534:	00 00 02 09 
  40e538:	30 00 00 00 	sb $2,0($23)
  40e53c:	00 00 02 17 
  40e540:	43 00 00 00 	addiu $23,$23,1
  40e544:	01 00 17 17 
  40e548:	28 00 00 00 	lw $2,1464($30)
  40e54c:	b8 05 02 1e 
  40e550:	43 00 00 00 	addiu $21,$0,-1
  40e554:	ff ff 15 00 
  40e558:	5c 00 00 00 	slti $2,$2,-1
  40e55c:	ff ff 02 02 
  40e560:	05 00 00 00 	beq $2,$0,40e5a0 <__printf_fp+0x3920>
  40e564:	0e 00 00 02 
  40e568:	43 00 00 00 	addiu $3,$0,48
  40e56c:	30 00 03 00 
  40e570:	30 00 00 00 	sb $3,0($23)
  40e574:	00 00 03 17 
  40e578:	28 00 00 00 	lw $2,1464($30)
  40e57c:	b8 05 02 1e 
  40e580:	43 00 00 00 	addiu $23,$23,1
  40e584:	01 00 17 17 
  40e588:	43 00 00 00 	addiu $21,$21,-1
  40e58c:	ff ff 15 15 
  40e590:	5b 00 00 00 	slt $2,$2,$21
  40e594:	00 02 15 02 
  40e598:	06 00 00 00 	bne $2,$0,40e570 <__printf_fp+0x38f0>
  40e59c:	f4 ff 00 02 
  40e5a0:	22 00 00 00 	lbu $2,1484($30)
  40e5a4:	cc 05 02 1e 
  40e5a8:	30 00 00 00 	sb $2,0($23)
  40e5ac:	00 00 02 17 
  40e5b0:	28 00 00 00 	lw $2,1500($30)
  40e5b4:	dc 05 02 1e 
  40e5b8:	43 00 00 00 	addiu $23,$23,1
  40e5bc:	01 00 17 17 
  40e5c0:	06 00 00 00 	bne $2,$0,40efd0 <__printf_fp+0x4350>
  40e5c4:	82 02 00 02 
  40e5c8:	28 00 00 00 	lw $2,1508($30)
  40e5cc:	e4 05 02 1e 
  40e5d0:	06 00 00 00 	bne $2,$0,40efd0 <__printf_fp+0x4350>
  40e5d4:	7e 02 00 02 
  40e5d8:	28 00 00 00 	lw $3,1464($30)
  40e5dc:	b8 05 03 1e 
  40e5e0:	28 00 00 00 	lw $2,1520($30)
  40e5e4:	f0 05 02 1e 
  40e5e8:	05 00 00 00 	beq $3,$2,40efd0 <__printf_fp+0x4350>
  40e5ec:	78 02 02 03 
  40e5f0:	43 00 00 00 	addiu $16,$30,24
  40e5f4:	18 00 10 1e 
  40e5f8:	43 00 00 00 	addiu $21,$30,1176
  40e5fc:	98 04 15 1e 
  40e600:	43 00 00 00 	addiu $9,$30,888
  40e604:	78 03 09 1e 
  40e608:	34 00 00 00 	sw $9,1816($30)
  40e60c:	18 07 09 1e 
  40e610:	43 00 00 00 	addiu $9,$30,1032
  40e614:	08 04 09 1e 
  40e618:	34 00 00 00 	sw $9,1824($30)
  40e61c:	20 07 09 1e 
  40e620:	43 00 00 00 	addiu $9,$30,600
  40e624:	58 02 09 1e 
  40e628:	34 00 00 00 	sw $9,1832($30)
  40e62c:	28 07 09 1e 
  40e630:	43 00 00 00 	addiu $4,$30,1176
  40e634:	98 04 04 1e 
  40e638:	43 00 00 00 	addiu $5,$30,888
  40e63c:	78 03 05 1e 
  40e640:	28 00 00 00 	lw $2,1464($30)
  40e644:	b8 05 02 1e 
  40e648:	28 00 00 00 	lw $6,1472($30)
  40e64c:	c0 05 06 1e 
  40e650:	43 00 00 00 	addiu $7,$0,10
  40e654:	0a 00 07 00 
  40e658:	43 00 00 00 	addiu $2,$2,-1
  40e65c:	ff ff 02 02 
  40e660:	34 00 00 00 	sw $2,1464($30)
  40e664:	b8 05 02 1e 
  40e668:	02 00 00 00 	jal 411520 <__mpn_mul_1>
  40e66c:	48 45 10 00 
  40e670:	28 00 00 00 	lw $3,1472($30)
  40e674:	c0 05 03 1e 
  40e678:	42 00 00 00 	addu $4,$0,$2
  40e67c:	00 04 02 00 
  40e680:	34 00 00 00 	sw $4,1468($30)
  40e684:	bc 05 04 1e 
  40e688:	34 00 00 00 	sw $3,1476($30)
  40e68c:	c4 05 03 1e 
  40e690:	05 00 00 00 	beq $4,$0,40e6c0 <__printf_fp+0x3a40>
  40e694:	0a 00 00 04 
  40e698:	43 00 00 00 	addiu $2,$3,1
  40e69c:	01 00 02 03 
  40e6a0:	34 00 00 00 	sw $2,1476($30)
  40e6a4:	c4 05 02 1e 
  40e6a8:	55 00 00 00 	sll $2,$3,0x2
  40e6ac:	02 02 03 00 
  40e6b0:	42 00 00 00 	addu $2,$2,$16
  40e6b4:	00 02 10 02 
  40e6b8:	34 00 00 00 	sw $4,1152($2)
  40e6bc:	80 04 04 02 
  40e6c0:	28 00 00 00 	lw $2,1480($30)
  40e6c4:	c8 05 02 1e 
  40e6c8:	55 00 00 00 	sll $2,$2,0x2
  40e6cc:	02 02 02 00 
  40e6d0:	42 00 00 00 	addu $2,$16,$2
  40e6d4:	00 02 02 10 
  40e6d8:	28 00 00 00 	lw $4,140($2)
  40e6dc:	8c 00 04 02 
  40e6e0:	51 00 00 00 	ori $2,$0,65535
  40e6e4:	ff ff 02 00 
  40e6e8:	5d 00 00 00 	sltu $2,$2,$4
  40e6ec:	00 02 04 02 
  40e6f0:	06 00 00 00 	bne $2,$0,40e718 <__printf_fp+0x3a98>
  40e6f4:	08 00 00 02 
  40e6f8:	5e 00 00 00 	sltiu $2,$4,256
  40e6fc:	00 01 02 04 
  40e700:	53 00 00 00 	xori $2,$2,1
  40e704:	01 00 02 02 
  40e708:	55 00 00 00 	sll $3,$2,0x3
  40e70c:	03 03 02 00 
  40e710:	01 00 00 00 	j 40e748 <__printf_fp+0x3ac8>
  40e714:	d2 39 10 00 
  40e718:	a2 00 00 00 	lui $2,255
  40e71c:	ff 00 02 00 
  40e720:	51 00 00 00 	ori $2,$2,65535
  40e724:	ff ff 02 02 
  40e728:	43 00 00 00 	addiu $3,$0,24
  40e72c:	18 00 03 00 
  40e730:	5d 00 00 00 	sltu $2,$2,$4
  40e734:	00 02 04 02 
  40e738:	06 00 00 00 	bne $2,$0,40e748 <__printf_fp+0x3ac8>
  40e73c:	02 00 00 02 
  40e740:	43 00 00 00 	addiu $3,$0,16
  40e744:	10 00 03 00 
  40e748:	58 00 00 00 	srlv $2,$4,$3
  40e74c:	00 02 04 03 
  40e750:	a2 00 00 00 	lui $1,4096
  40e754:	00 10 01 00 
  40e758:	42 00 00 00 	addu $1,$1,$2
  40e75c:	00 01 02 01 
  40e760:	22 00 00 00 	lbu $2,7552($1)
  40e764:	80 1d 02 01 
  40e768:	42 00 00 00 	addu $2,$2,$3
  40e76c:	00 02 03 02 
  40e770:	43 00 00 00 	addiu $3,$0,32
  40e774:	20 00 03 00 
  40e778:	45 00 00 00 	subu $17,$3,$2
  40e77c:	00 11 02 03 
  40e780:	05 00 00 00 	beq $17,$0,40e910 <__printf_fp+0x3c90>
  40e784:	62 00 00 11 
  40e788:	43 00 00 00 	addiu $5,$16,144
  40e78c:	90 00 05 10 
  40e790:	28 00 00 00 	lw $6,1456($16)
  40e794:	b0 05 06 10 
  40e798:	42 00 00 00 	addu $7,$0,$17
  40e79c:	00 07 11 00 
  40e7a0:	42 00 00 00 	addu $19,$0,$29
  40e7a4:	00 13 1d 00 
  40e7a8:	55 00 00 00 	sll $2,$6,0x2
  40e7ac:	02 02 06 00 
  40e7b0:	43 00 00 00 	addiu $2,$2,14
  40e7b4:	0e 00 02 02 
  40e7b8:	57 00 00 00 	srl $2,$2,0x3
  40e7bc:	03 02 02 00 
  40e7c0:	55 00 00 00 	sll $2,$2,0x3
  40e7c4:	03 02 02 00 
  40e7c8:	45 00 00 00 	subu $29,$29,$2
  40e7cc:	00 1d 02 1d 
  40e7d0:	28 00 00 00 	lw $2,0($29)
  40e7d4:	00 00 02 1d 
  40e7d8:	43 00 00 00 	addiu $18,$29,24
  40e7dc:	18 00 12 1d 
  40e7e0:	42 00 00 00 	addu $4,$0,$18
  40e7e4:	00 04 12 00 
  40e7e8:	02 00 00 00 	jal 410500 <__mpn_lshift>
  40e7ec:	40 41 10 00 
  40e7f0:	42 00 00 00 	addu $4,$0,$21
  40e7f4:	00 04 15 00 
  40e7f8:	28 00 00 00 	lw $6,1452($16)
  40e7fc:	ac 05 06 10 
  40e800:	42 00 00 00 	addu $5,$0,$21
  40e804:	00 05 15 00 
  40e808:	42 00 00 00 	addu $7,$0,$17
  40e80c:	00 07 11 00 
  40e810:	02 00 00 00 	jal 410500 <__mpn_lshift>
  40e814:	40 41 10 00 
  40e818:	42 00 00 00 	addu $4,$0,$2
  40e81c:	00 04 02 00 
  40e820:	05 00 00 00 	beq $4,$0,40e858 <__printf_fp+0x3bd8>
  40e824:	0c 00 00 04 
  40e828:	28 00 00 00 	lw $2,1452($16)
  40e82c:	ac 05 02 10 
  40e830:	43 00 00 00 	addiu $3,$2,1
  40e834:	01 00 03 02 
  40e838:	55 00 00 00 	sll $2,$2,0x2
  40e83c:	02 02 02 00 
  40e840:	42 00 00 00 	addu $2,$2,$16
  40e844:	00 02 10 02 
  40e848:	34 00 00 00 	sw $3,1452($16)
  40e84c:	ac 05 03 10 
  40e850:	34 00 00 00 	sw $4,1152($2)
  40e854:	80 04 04 02 
  40e858:	28 00 00 00 	lw $2,1456($16)
  40e85c:	b0 05 02 10 
  40e860:	43 00 00 00 	addiu $4,$16,1296
  40e864:	10 05 04 10 
  40e868:	34 00 00 00 	sw $2,16($29)
  40e86c:	10 00 02 1d 
  40e870:	28 00 00 00 	lw $6,1452($16)
  40e874:	ac 05 06 10 
  40e878:	42 00 00 00 	addu $5,$0,$21
  40e87c:	00 05 15 00 
  40e880:	42 00 00 00 	addu $7,$0,$18
  40e884:	00 07 12 00 
  40e888:	02 00 00 00 	jal 411650 <__mpn_divmod>
  40e88c:	94 45 10 00 
  40e890:	28 00 00 00 	lw $3,1452($16)
  40e894:	ac 05 03 10 
  40e898:	28 00 00 00 	lw $5,1456($16)
  40e89c:	b0 05 05 10 
  40e8a0:	42 00 00 00 	addu $4,$0,$21
  40e8a4:	00 04 15 00 
  40e8a8:	45 00 00 00 	subu $3,$3,$5
  40e8ac:	00 03 05 03 
  40e8b0:	55 00 00 00 	sll $3,$3,0x2
  40e8b4:	02 03 03 00 
  40e8b8:	42 00 00 00 	addu $3,$3,$16
  40e8bc:	00 03 10 03 
  40e8c0:	34 00 00 00 	sw $2,1296($3)
  40e8c4:	10 05 02 03 
  40e8c8:	28 00 00 00 	lw $6,1456($16)
  40e8cc:	b0 05 06 10 
  40e8d0:	42 00 00 00 	addu $7,$0,$17
  40e8d4:	00 07 11 00 
  40e8d8:	42 00 00 00 	addu $5,$0,$21
  40e8dc:	00 05 15 00 
  40e8e0:	34 00 00 00 	sw $6,1452($16)
  40e8e4:	ac 05 06 10 
  40e8e8:	02 00 00 00 	jal 412190 <__mpn_rshift>
  40e8ec:	64 48 10 00 
  40e8f0:	42 00 00 00 	addu $29,$0,$19
  40e8f4:	00 1d 13 00 
  40e8f8:	01 00 00 00 	j 40e988 <__printf_fp+0x3d08>
  40e8fc:	62 3a 10 00 
  40e900:	43 00 00 00 	addiu $2,$4,1
  40e904:	01 00 02 04 
  40e908:	01 00 00 00 	j 40e9f8 <__printf_fp+0x3d78>
  40e90c:	7e 3a 10 00 
  40e910:	28 00 00 00 	lw $2,1456($16)
  40e914:	b0 05 02 10 
  40e918:	43 00 00 00 	addiu $4,$16,1296
  40e91c:	10 05 04 10 
  40e920:	34 00 00 00 	sw $2,16($29)
  40e924:	10 00 02 1d 
  40e928:	28 00 00 00 	lw $6,1452($16)
  40e92c:	ac 05 06 10 
  40e930:	43 00 00 00 	addiu $5,$16,1152
  40e934:	80 04 05 10 
  40e938:	43 00 00 00 	addiu $7,$16,144
  40e93c:	90 00 07 10 
  40e940:	02 00 00 00 	jal 411650 <__mpn_divmod>
  40e944:	94 45 10 00 
  40e948:	28 00 00 00 	lw $3,1452($16)
  40e94c:	ac 05 03 10 
  40e950:	28 00 00 00 	lw $4,1456($16)
  40e954:	b0 05 04 10 
  40e958:	45 00 00 00 	subu $3,$3,$4
  40e95c:	00 03 04 03 
  40e960:	55 00 00 00 	sll $3,$3,0x2
  40e964:	02 03 03 00 
  40e968:	42 00 00 00 	addu $3,$3,$16
  40e96c:	00 03 10 03 
  40e970:	34 00 00 00 	sw $2,1296($3)
  40e974:	10 05 02 03 
  40e978:	28 00 00 00 	lw $2,1456($16)
  40e97c:	b0 05 02 10 
  40e980:	34 00 00 00 	sw $2,1452($16)
  40e984:	ac 05 02 10 
  40e988:	28 00 00 00 	lw $2,1296($16)
  40e98c:	10 05 02 10 
  40e990:	28 00 00 00 	lw $4,1452($16)
  40e994:	ac 05 04 10 
  40e998:	43 00 00 00 	addiu $3,$16,1152
  40e99c:	80 04 03 10 
  40e9a0:	43 00 00 00 	addiu $2,$2,48
  40e9a4:	30 00 02 02 
  40e9a8:	30 00 00 00 	sb $2,1460($16)
  40e9ac:	b4 05 02 10 
  40e9b0:	05 00 00 00 	beq $4,$0,40e9f0 <__printf_fp+0x3d70>
  40e9b4:	0e 00 00 04 
  40e9b8:	55 00 00 00 	sll $2,$4,0x2
  40e9bc:	02 02 04 00 
  40e9c0:	42 00 00 00 	addu $3,$2,$3
  40e9c4:	00 03 03 02 
  40e9c8:	43 00 00 00 	addiu $3,$3,-4
  40e9cc:	fc ff 03 03 
  40e9d0:	28 00 00 00 	lw $2,0($3)
  40e9d4:	00 00 02 03 
  40e9d8:	43 00 00 00 	addiu $4,$4,-1
  40e9dc:	ff ff 04 04 
  40e9e0:	06 00 00 00 	bne $2,$0,40e900 <__printf_fp+0x3c80>
  40e9e4:	c6 ff 00 02 
  40e9e8:	06 00 00 00 	bne $4,$0,40e9c8 <__printf_fp+0x3d48>
  40e9ec:	f6 ff 00 04 
  40e9f0:	42 00 00 00 	addu $2,$0,$0
  40e9f4:	00 02 00 00 
  40e9f8:	34 00 00 00 	sw $2,1452($16)
  40e9fc:	ac 05 02 10 
  40ea00:	06 00 00 00 	bne $2,$0,40ea18 <__printf_fp+0x3d98>
  40ea04:	04 00 00 02 
  40ea08:	43 00 00 00 	addiu $2,$0,1
  40ea0c:	01 00 02 00 
  40ea10:	34 00 00 00 	sw $2,1452($16)
  40ea14:	ac 05 02 10 
  40ea18:	28 00 00 00 	lw $2,1452($16)
  40ea1c:	ac 05 02 10 
  40ea20:	28 00 00 00 	lw $4,1816($30)
  40ea24:	18 07 04 1e 
  40ea28:	43 00 00 00 	addiu $5,$16,1152
  40ea2c:	80 04 05 10 
  40ea30:	55 00 00 00 	sll $6,$2,0x2
  40ea34:	02 06 02 00 
  40ea38:	34 00 00 00 	sw $2,1448($16)
  40ea3c:	a8 05 02 10 
  40ea40:	02 00 00 00 	jal 40fb00 <memcpy>
  40ea44:	c0 3e 10 00 
  40ea48:	28 00 00 00 	lw $4,1824($30)
  40ea4c:	20 07 04 1e 
  40ea50:	28 00 00 00 	lw $6,1448($16)
  40ea54:	a8 05 06 10 
  40ea58:	28 00 00 00 	lw $5,1816($30)
  40ea5c:	18 07 05 1e 
  40ea60:	43 00 00 00 	addiu $7,$0,1
  40ea64:	01 00 07 00 
  40ea68:	02 00 00 00 	jal 410500 <__mpn_lshift>
  40ea6c:	40 41 10 00 
  40ea70:	28 00 00 00 	lw $4,1448($16)
  40ea74:	a8 05 04 10 
  40ea78:	34 00 00 00 	sw $2,1444($16)
  40ea7c:	a4 05 02 10 
  40ea80:	28 00 00 00 	lw $2,1444($16)
  40ea84:	a4 05 02 10 
  40ea88:	34 00 00 00 	sw $4,1464($16)
  40ea8c:	b8 05 04 10 
  40ea90:	05 00 00 00 	beq $2,$0,40eac8 <__printf_fp+0x3e48>
  40ea94:	0c 00 00 02 
  40ea98:	28 00 00 00 	lw $3,1444($16)
  40ea9c:	a4 05 03 10 
  40eaa0:	43 00 00 00 	addiu $2,$4,1
  40eaa4:	01 00 02 04 
  40eaa8:	34 00 00 00 	sw $2,1464($16)
  40eaac:	b8 05 02 10 
  40eab0:	55 00 00 00 	sll $2,$4,0x2
  40eab4:	02 02 04 00 
  40eab8:	42 00 00 00 	addu $2,$2,$16
  40eabc:	00 02 10 02 
  40eac0:	34 00 00 00 	sw $3,1008($2)
  40eac4:	f0 03 03 02 
  40eac8:	28 00 00 00 	lw $4,1832($30)
  40eacc:	28 07 04 1e 
  40ead0:	28 00 00 00 	lw $6,1468($16)
  40ead4:	bc 05 06 10 
  40ead8:	28 00 00 00 	lw $5,1832($30)
  40eadc:	28 07 05 1e 
  40eae0:	43 00 00 00 	addiu $7,$0,10
  40eae4:	0a 00 07 00 
  40eae8:	02 00 00 00 	jal 411520 <__mpn_mul_1>
  40eaec:	48 45 10 00 
  40eaf0:	34 00 00 00 	sw $2,1444($16)
  40eaf4:	a4 05 02 10 
  40eaf8:	05 00 00 00 	beq $2,$0,40eb38 <__printf_fp+0x3eb8>
  40eafc:	0e 00 00 02 
  40eb00:	28 00 00 00 	lw $2,1468($16)
  40eb04:	bc 05 02 10 
  40eb08:	43 00 00 00 	addiu $3,$2,1
  40eb0c:	01 00 03 02 
  40eb10:	34 00 00 00 	sw $3,1468($16)
  40eb14:	bc 05 03 10 
  40eb18:	28 00 00 00 	lw $3,1444($16)
  40eb1c:	a4 05 03 10 
  40eb20:	55 00 00 00 	sll $2,$2,0x2
  40eb24:	02 02 02 00 
  40eb28:	42 00 00 00 	addu $2,$2,$16
  40eb2c:	00 02 10 02 
  40eb30:	34 00 00 00 	sw $3,576($2)
  40eb34:	40 02 03 02 
  40eb38:	43 00 00 00 	addiu $4,$16,720
  40eb3c:	d0 02 04 10 
  40eb40:	28 00 00 00 	lw $6,1472($16)
  40eb44:	c0 05 06 10 
  40eb48:	42 00 00 00 	addu $5,$0,$4
  40eb4c:	00 05 04 00 
  40eb50:	43 00 00 00 	addiu $7,$0,10
  40eb54:	0a 00 07 00 
  40eb58:	02 00 00 00 	jal 411520 <__mpn_mul_1>
  40eb5c:	48 45 10 00 
  40eb60:	34 00 00 00 	sw $2,1444($16)
  40eb64:	a4 05 02 10 
  40eb68:	05 00 00 00 	beq $2,$0,40eba8 <__printf_fp+0x3f28>
  40eb6c:	0e 00 00 02 
  40eb70:	28 00 00 00 	lw $2,1472($16)
  40eb74:	c0 05 02 10 
  40eb78:	43 00 00 00 	addiu $3,$2,1
  40eb7c:	01 00 03 02 
  40eb80:	34 00 00 00 	sw $3,1472($16)
  40eb84:	c0 05 03 10 
  40eb88:	28 00 00 00 	lw $3,1444($16)
  40eb8c:	a4 05 03 10 
  40eb90:	55 00 00 00 	sll $2,$2,0x2
  40eb94:	02 02 02 00 
  40eb98:	42 00 00 00 	addu $2,$2,$16
  40eb9c:	00 02 10 02 
  40eba0:	34 00 00 00 	sw $3,720($2)
  40eba4:	d0 02 03 02 
  40eba8:	28 00 00 00 	lw $6,1464($16)
  40ebac:	b8 05 06 10 
  40ebb0:	28 00 00 00 	lw $3,1468($16)
  40ebb4:	bc 05 03 10 
  40ebb8:	42 00 00 00 	addu $19,$0,$0
  40ebbc:	00 13 00 00 
  40ebc0:	5b 00 00 00 	slt $2,$6,$3
  40ebc4:	00 02 03 06 
  40ebc8:	06 00 00 00 	bne $2,$0,40ebf8 <__printf_fp+0x3f78>
  40ebcc:	0a 00 00 02 
  40ebd0:	06 00 00 00 	bne $6,$3,40ec00 <__printf_fp+0x3f80>
  40ebd4:	0a 00 03 06 
  40ebd8:	28 00 00 00 	lw $4,1824($30)
  40ebdc:	20 07 04 1e 
  40ebe0:	28 00 00 00 	lw $5,1832($30)
  40ebe4:	28 07 05 1e 
  40ebe8:	02 00 00 00 	jal 4105f0 <__mpn_cmp>
  40ebec:	7c 41 10 00 
  40ebf0:	0a 00 00 00 	bgez $2,40ec00 <__printf_fp+0x3f80>
  40ebf4:	02 00 00 02 
  40ebf8:	43 00 00 00 	addiu $19,$0,1
  40ebfc:	01 00 13 00 
  40ec00:	28 00 00 00 	lw $18,1480($16)
  40ec04:	c8 05 12 10 
  40ec08:	28 00 00 00 	lw $17,1472($16)
  40ec0c:	c0 05 11 10 
  40ec10:	34 00 00 00 	sw $19,1476($16)
  40ec14:	c4 05 13 10 
  40ec18:	5b 00 00 00 	slt $2,$18,$17
  40ec1c:	00 02 11 12 
  40ec20:	05 00 00 00 	beq $2,$0,40ec40 <__printf_fp+0x3fc0>
  40ec24:	06 00 00 02 
  40ec28:	43 00 00 00 	addiu $2,$0,1
  40ec2c:	01 00 02 00 
  40ec30:	34 00 00 00 	sw $2,1484($16)
  40ec34:	cc 05 02 10 
  40ec38:	01 00 00 00 	j 40ee98 <__printf_fp+0x4218>
  40ec3c:	a6 3b 10 00 
  40ec40:	42 00 00 00 	addu $6,$0,$0
  40ec44:	00 06 00 00 
  40ec48:	43 00 00 00 	addiu $20,$16,1296
  40ec4c:	10 05 14 10 
  40ec50:	43 00 00 00 	addiu $19,$16,288
  40ec54:	20 01 13 10 
  40ec58:	43 00 00 00 	addiu $2,$16,720
  40ec5c:	d0 02 02 10 
  40ec60:	05 00 00 00 	beq $17,$0,40ec98 <__printf_fp+0x4018>
  40ec64:	0c 00 00 11 
  40ec68:	42 00 00 00 	addu $4,$0,$20
  40ec6c:	00 04 14 00 
  40ec70:	42 00 00 00 	addu $5,$0,$19
  40ec74:	00 05 13 00 
  40ec78:	42 00 00 00 	addu $6,$0,$2
  40ec7c:	00 06 02 00 
  40ec80:	42 00 00 00 	addu $7,$0,$17
  40ec84:	00 07 11 00 
  40ec88:	02 00 00 00 	jal 412270 <__mpn_sub_n>
  40ec8c:	9c 48 10 00 
  40ec90:	42 00 00 00 	addu $6,$0,$2
  40ec94:	00 06 02 00 
  40ec98:	05 00 00 00 	beq $18,$17,40edb8 <__printf_fp+0x4138>
  40ec9c:	46 00 11 12 
  40eca0:	55 00 00 00 	sll $2,$17,0x2
  40eca4:	02 02 11 00 
  40eca8:	42 00 00 00 	addu $5,$2,$19
  40ecac:	00 05 13 02 
  40ecb0:	28 00 00 00 	lw $3,0($5)
  40ecb4:	00 00 03 05 
  40ecb8:	42 00 00 00 	addu $4,$2,$20
  40ecbc:	00 04 14 02 
  40ecc0:	45 00 00 00 	subu $7,$18,$17
  40ecc4:	00 07 11 12 
  40ecc8:	43 00 00 00 	addiu $5,$5,4
  40eccc:	04 00 05 05 
  40ecd0:	45 00 00 00 	subu $2,$3,$6
  40ecd4:	00 02 06 03 
  40ecd8:	34 00 00 00 	sw $2,0($4)
  40ecdc:	00 00 02 04 
  40ece0:	43 00 00 00 	addiu $4,$4,4
  40ece4:	04 00 04 04 
  40ece8:	5d 00 00 00 	sltu $2,$3,$2
  40ecec:	00 02 02 03 
  40ecf0:	05 00 00 00 	beq $2,$0,40ed58 <__printf_fp+0x40d8>
  40ecf4:	18 00 00 02 
  40ecf8:	43 00 00 00 	addiu $7,$7,-1
  40ecfc:	ff ff 07 07 
  40ed00:	05 00 00 00 	beq $7,$0,40ed48 <__printf_fp+0x40c8>
  40ed04:	10 00 00 07 
  40ed08:	28 00 00 00 	lw $3,0($5)
  40ed0c:	00 00 03 05 
  40ed10:	43 00 00 00 	addiu $5,$5,4
  40ed14:	04 00 05 05 
  40ed18:	43 00 00 00 	addiu $2,$3,-1
  40ed1c:	ff ff 02 03 
  40ed20:	34 00 00 00 	sw $2,0($4)
  40ed24:	00 00 02 04 
  40ed28:	43 00 00 00 	addiu $4,$4,4
  40ed2c:	04 00 04 04 
  40ed30:	06 00 00 00 	bne $3,$0,40ed58 <__printf_fp+0x40d8>
  40ed34:	08 00 00 03 
  40ed38:	43 00 00 00 	addiu $7,$7,-1
  40ed3c:	ff ff 07 07 
  40ed40:	06 00 00 00 	bne $7,$0,40ed08 <__printf_fp+0x4088>
  40ed44:	f0 ff 00 07 
  40ed48:	43 00 00 00 	addiu $6,$0,1
  40ed4c:	01 00 06 00 
  40ed50:	01 00 00 00 	j 40edb8 <__printf_fp+0x4138>
  40ed54:	6e 3b 10 00 
  40ed58:	05 00 00 00 	beq $4,$5,40edb0 <__printf_fp+0x4130>
  40ed5c:	14 00 05 04 
  40ed60:	42 00 00 00 	addu $3,$0,$0
  40ed64:	00 03 00 00 
  40ed68:	43 00 00 00 	addiu $7,$7,-1
  40ed6c:	ff ff 07 07 
  40ed70:	07 00 00 00 	blez $7,40edb0 <__printf_fp+0x4130>
  40ed74:	0e 00 00 07 
  40ed78:	28 00 00 00 	lw $2,0($5)
  40ed7c:	00 00 02 05 
  40ed80:	43 00 00 00 	addiu $3,$3,1
  40ed84:	01 00 03 03 
  40ed88:	34 00 00 00 	sw $2,0($4)
  40ed8c:	00 00 02 04 
  40ed90:	43 00 00 00 	addiu $4,$4,4
  40ed94:	04 00 04 04 
  40ed98:	43 00 00 00 	addiu $5,$5,4
  40ed9c:	04 00 05 05 
  40eda0:	5b 00 00 00 	slt $2,$3,$7
  40eda4:	00 02 07 03 
  40eda8:	06 00 00 00 	bne $2,$0,40ed78 <__printf_fp+0x40f8>
  40edac:	f2 ff 00 02 
  40edb0:	42 00 00 00 	addu $6,$0,$0
  40edb4:	00 06 00 00 
  40edb8:	28 00 00 00 	lw $7,1480($16)
  40edbc:	c8 05 07 10 
  40edc0:	34 00 00 00 	sw $6,1444($16)
  40edc4:	a4 05 06 10 
  40edc8:	28 00 00 00 	lw $2,1444($16)
  40edcc:	a4 05 02 10 
  40edd0:	42 00 00 00 	addu $17,$0,$0
  40edd4:	00 11 00 00 
  40edd8:	34 00 00 00 	sw $7,1488($16)
  40eddc:	d0 05 07 10 
  40ede0:	06 00 00 00 	bne $2,$0,40ee88 <__printf_fp+0x4208>
  40ede4:	28 00 00 02 
  40ede8:	28 00 00 00 	lw $2,1492($16)
  40edec:	d4 05 02 10 
  40edf0:	05 00 00 00 	beq $2,$0,40ee48 <__printf_fp+0x41c8>
  40edf4:	14 00 00 02 
  40edf8:	28 00 00 00 	lw $3,1464($16)
  40edfc:	b8 05 03 10 
  40ee00:	5b 00 00 00 	slt $2,$7,$3
  40ee04:	00 02 03 07 
  40ee08:	06 00 00 00 	bne $2,$0,40ee88 <__printf_fp+0x4208>
  40ee0c:	1e 00 00 02 
  40ee10:	06 00 00 00 	bne $3,$7,40ee90 <__printf_fp+0x4210>
  40ee14:	1e 00 07 03 
  40ee18:	43 00 00 00 	addiu $4,$16,1008
  40ee1c:	f0 03 04 10 
  40ee20:	43 00 00 00 	addiu $5,$16,1296
  40ee24:	10 05 05 10 
  40ee28:	42 00 00 00 	addu $6,$0,$7
  40ee2c:	00 06 07 00 
  40ee30:	02 00 00 00 	jal 4105f0 <__mpn_cmp>
  40ee34:	7c 41 10 00 
  40ee38:	0a 00 00 00 	bgez $2,40ee88 <__printf_fp+0x4208>
  40ee3c:	12 00 00 02 
  40ee40:	01 00 00 00 	j 40ee90 <__printf_fp+0x4210>
  40ee44:	a4 3b 10 00 
  40ee48:	28 00 00 00 	lw $6,1464($16)
  40ee4c:	b8 05 06 10 
  40ee50:	5b 00 00 00 	slt $2,$7,$6
  40ee54:	00 02 06 07 
  40ee58:	06 00 00 00 	bne $2,$0,40ee88 <__printf_fp+0x4208>
  40ee5c:	0a 00 00 02 
  40ee60:	06 00 00 00 	bne $6,$7,40ee90 <__printf_fp+0x4210>
  40ee64:	0a 00 07 06 
  40ee68:	43 00 00 00 	addiu $4,$16,1008
  40ee6c:	f0 03 04 10 
  40ee70:	43 00 00 00 	addiu $5,$16,1296
  40ee74:	10 05 05 10 
  40ee78:	02 00 00 00 	jal 4105f0 <__mpn_cmp>
  40ee7c:	7c 41 10 00 
  40ee80:	07 00 00 00 	blez $2,40ee90 <__printf_fp+0x4210>
  40ee84:	02 00 00 02 
  40ee88:	43 00 00 00 	addiu $17,$0,1
  40ee8c:	01 00 11 00 
  40ee90:	34 00 00 00 	sw $17,1484($16)
  40ee94:	cc 05 11 10 
  40ee98:	28 00 00 00 	lw $2,1476($16)
  40ee9c:	c4 05 02 10 
  40eea0:	06 00 00 00 	bne $2,$0,40eed0 <__printf_fp+0x4250>
  40eea4:	0a 00 00 02 
  40eea8:	28 00 00 00 	lw $2,1484($16)
  40eeac:	cc 05 02 10 
  40eeb0:	06 00 00 00 	bne $2,$0,40eee0 <__printf_fp+0x4260>
  40eeb4:	0a 00 00 02 
  40eeb8:	28 00 00 00 	lw $3,1440($16)
  40eebc:	a0 05 03 10 
  40eec0:	28 00 00 00 	lw $2,1496($16)
  40eec4:	d8 05 02 10 
  40eec8:	06 00 00 00 	bne $3,$2,40ef70 <__printf_fp+0x42f0>
  40eecc:	28 00 02 03 
  40eed0:	28 00 00 00 	lw $2,1484($16)
  40eed4:	cc 05 02 10 
  40eed8:	05 00 00 00 	beq $2,$0,40ef60 <__printf_fp+0x42e0>
  40eedc:	20 00 00 02 
  40eee0:	28 00 00 00 	lw $2,1476($16)
  40eee4:	c4 05 02 10 
  40eee8:	05 00 00 00 	beq $2,$0,40ef48 <__printf_fp+0x42c8>
  40eeec:	16 00 00 02 
  40eef0:	28 00 00 00 	lw $2,1484($16)
  40eef4:	cc 05 02 10 
  40eef8:	05 00 00 00 	beq $2,$0,40ef60 <__printf_fp+0x42e0>
  40eefc:	18 00 00 02 
  40ef00:	28 00 00 00 	lw $6,1464($16)
  40ef04:	b8 05 06 10 
  40ef08:	28 00 00 00 	lw $3,1456($16)
  40ef0c:	b0 05 03 10 
  40ef10:	5b 00 00 00 	slt $2,$3,$6
  40ef14:	00 02 06 03 
  40ef18:	06 00 00 00 	bne $2,$0,40ef48 <__printf_fp+0x42c8>
  40ef1c:	0a 00 00 02 
  40ef20:	06 00 00 00 	bne $6,$3,40ef60 <__printf_fp+0x42e0>
  40ef24:	0e 00 03 06 
  40ef28:	43 00 00 00 	addiu $4,$16,1008
  40ef2c:	f0 03 04 10 
  40ef30:	43 00 00 00 	addiu $5,$16,144
  40ef34:	90 00 05 10 
  40ef38:	02 00 00 00 	jal 4105f0 <__mpn_cmp>
  40ef3c:	7c 41 10 00 
  40ef40:	07 00 00 00 	blez $2,40ef60 <__printf_fp+0x42e0>
  40ef44:	06 00 00 02 
  40ef48:	22 00 00 00 	lbu $2,1460($16)
  40ef4c:	b4 05 02 10 
  40ef50:	43 00 00 00 	addiu $2,$2,1
  40ef54:	01 00 02 02 
  40ef58:	30 00 00 00 	sb $2,1460($16)
  40ef5c:	b4 05 02 10 
  40ef60:	43 00 00 00 	addiu $4,$0,1
  40ef64:	01 00 04 00 
  40ef68:	01 00 00 00 	j 40ef78 <__printf_fp+0x42f8>
  40ef6c:	de 3b 10 00 
  40ef70:	42 00 00 00 	addu $4,$0,$0
  40ef74:	00 04 00 00 
  40ef78:	28 00 00 00 	lw $3,1464($30)
  40ef7c:	b8 05 03 1e 
  40ef80:	43 00 00 00 	addiu $2,$0,-1
  40ef84:	ff ff 02 00 
  40ef88:	06 00 00 00 	bne $3,$2,40efb0 <__printf_fp+0x4330>
  40ef8c:	08 00 02 03 
  40ef90:	28 00 00 00 	lw $9,1696($30)
  40ef94:	a0 06 09 1e 
  40ef98:	22 00 00 00 	lbu $2,0($9)
  40ef9c:	00 00 02 09 
  40efa0:	30 00 00 00 	sb $2,0($23)
  40efa4:	00 00 02 17 
  40efa8:	43 00 00 00 	addiu $23,$23,1
  40efac:	01 00 17 17 
  40efb0:	22 00 00 00 	lbu $2,1484($30)
  40efb4:	cc 05 02 1e 
  40efb8:	30 00 00 00 	sb $2,0($23)
  40efbc:	00 00 02 17 
  40efc0:	43 00 00 00 	addiu $23,$23,1
  40efc4:	01 00 17 17 
  40efc8:	05 00 00 00 	beq $4,$0,40e630 <__printf_fp+0x39b0>
  40efcc:	98 fd 00 04 
  40efd0:	28 00 00 00 	lw $2,1464($30)
  40efd4:	b8 05 02 1e 
  40efd8:	07 00 00 00 	blez $2,40f018 <__printf_fp+0x4398>
  40efdc:	0e 00 00 02 
  40efe0:	43 00 00 00 	addiu $3,$0,48
  40efe4:	30 00 03 00 
  40efe8:	30 00 00 00 	sb $3,0($23)
  40efec:	00 00 03 17 
  40eff0:	28 00 00 00 	lw $2,1464($30)
  40eff4:	b8 05 02 1e 
  40eff8:	43 00 00 00 	addiu $23,$23,1
  40effc:	01 00 17 17 
  40f000:	43 00 00 00 	addiu $2,$2,-1
  40f004:	ff ff 02 02 
  40f008:	34 00 00 00 	sw $2,1464($30)
  40f00c:	b8 05 02 1e 
  40f010:	08 00 00 00 	bgtz $2,40efe8 <__printf_fp+0x4368>
  40f014:	f4 ff 00 02 
  40f018:	22 00 00 00 	lbu $9,1704($30)
  40f01c:	a8 06 09 1e 
  40f020:	43 00 00 00 	addiu $3,$0,103
  40f024:	67 00 03 00 
  40f028:	55 00 00 00 	sll $2,$9,0x18
  40f02c:	18 02 09 00 
  40f030:	59 00 00 00 	sra $2,$2,0x18
  40f034:	18 02 02 00 
  40f038:	05 00 00 00 	beq $2,$3,40f050 <__printf_fp+0x43d0>
  40f03c:	04 00 03 02 
  40f040:	28 00 00 00 	lw $9,1712($30)
  40f044:	b0 06 09 1e 
  40f048:	08 00 00 00 	bgtz $9,40f070 <__printf_fp+0x43f0>
  40f04c:	08 00 00 09 
  40f050:	28 00 00 00 	lw $9,1680($30)
  40f054:	90 06 09 1e 
  40f058:	28 00 00 00 	lw $2,8($9)
  40f05c:	08 00 02 09 
  40f060:	4f 00 00 00 	andi $2,$2,2048
  40f064:	00 08 02 02 
  40f068:	05 00 00 00 	beq $2,$0,40f118 <__printf_fp+0x4498>
  40f06c:	2a 00 00 02 
  40f070:	28 00 00 00 	lw $2,1464($30)
  40f074:	b8 05 02 1e 
  40f078:	06 00 00 00 	bne $2,$0,40f0a0 <__printf_fp+0x4420>
  40f07c:	08 00 00 02 
  40f080:	28 00 00 00 	lw $9,1696($30)
  40f084:	a0 06 09 1e 
  40f088:	22 00 00 00 	lbu $2,0($9)
  40f08c:	00 00 02 09 
  40f090:	30 00 00 00 	sb $2,0($23)
  40f094:	00 00 02 17 
  40f098:	43 00 00 00 	addiu $23,$23,1
  40f09c:	01 00 17 17 
  40f0a0:	28 00 00 00 	lw $2,1464($30)
  40f0a4:	b8 05 02 1e 
  40f0a8:	28 00 00 00 	lw $9,1712($30)
  40f0ac:	b0 06 09 1e 
  40f0b0:	43 00 00 00 	addiu $3,$2,-1
  40f0b4:	ff ff 03 02 
  40f0b8:	45 00 00 00 	subu $4,$0,$9
  40f0bc:	00 04 09 00 
  40f0c0:	5b 00 00 00 	slt $2,$4,$2
  40f0c4:	00 02 02 04 
  40f0c8:	34 00 00 00 	sw $3,1464($30)
  40f0cc:	b8 05 03 1e 
  40f0d0:	05 00 00 00 	beq $2,$0,40f118 <__printf_fp+0x4498>
  40f0d4:	10 00 00 02 
  40f0d8:	43 00 00 00 	addiu $5,$0,48
  40f0dc:	30 00 05 00 
  40f0e0:	30 00 00 00 	sb $5,0($23)
  40f0e4:	00 00 05 17 
  40f0e8:	28 00 00 00 	lw $3,1464($30)
  40f0ec:	b8 05 03 1e 
  40f0f0:	43 00 00 00 	addiu $23,$23,1
  40f0f4:	01 00 17 17 
  40f0f8:	43 00 00 00 	addiu $2,$3,-1
  40f0fc:	ff ff 02 03 
  40f100:	5b 00 00 00 	slt $3,$4,$3
  40f104:	00 03 03 04 
  40f108:	34 00 00 00 	sw $2,1464($30)
  40f10c:	b8 05 02 1e 
  40f110:	06 00 00 00 	bne $3,$0,40f0e0 <__printf_fp+0x4460>
  40f114:	f2 ff 00 03 
  40f118:	28 00 00 00 	lw $2,1528($30)
  40f11c:	f8 05 02 1e 
  40f120:	06 00 00 00 	bne $2,$0,40f148 <__printf_fp+0x44c8>
  40f124:	08 00 00 02 
  40f128:	28 00 00 00 	lw $9,1680($30)
  40f12c:	90 06 09 1e 
  40f130:	28 00 00 00 	lw $2,8($9)
  40f134:	08 00 02 09 
  40f138:	4f 00 00 00 	andi $2,$2,20480
  40f13c:	00 50 02 02 
  40f140:	05 00 00 00 	beq $2,$0,40f160 <__printf_fp+0x44e0>
  40f144:	06 00 00 02 
  40f148:	28 00 00 00 	lw $9,1720($30)
  40f14c:	b8 06 09 1e 
  40f150:	43 00 00 00 	addiu $9,$9,-1
  40f154:	ff ff 09 09 
  40f158:	34 00 00 00 	sw $9,1720($30)
  40f15c:	b8 06 09 1e 
  40f160:	28 00 00 00 	lw $9,1728($30)
  40f164:	c0 06 09 1e 
  40f168:	45 00 00 00 	subu $2,$23,$9
  40f16c:	00 02 09 17 
  40f170:	28 00 00 00 	lw $9,1720($30)
  40f174:	b8 06 09 1e 
  40f178:	45 00 00 00 	subu $9,$9,$2
  40f17c:	00 09 02 09 
  40f180:	34 00 00 00 	sw $9,1720($30)
  40f184:	b8 06 09 1e 
  40f188:	28 00 00 00 	lw $9,1680($30)
  40f18c:	90 06 09 1e 
  40f190:	28 00 00 00 	lw $3,8($9)
  40f194:	08 00 03 09 
  40f198:	a2 00 00 00 	lui $2,255
  40f19c:	ff 00 02 00 
  40f1a0:	51 00 00 00 	ori $2,$2,8192
  40f1a4:	00 20 02 02 
  40f1a8:	4e 00 00 00 	and $3,$3,$2
  40f1ac:	00 03 02 03 
  40f1b0:	a2 00 00 00 	lui $2,32
  40f1b4:	20 00 02 00 
  40f1b8:	06 00 00 00 	bne $3,$2,40f298 <__printf_fp+0x4618>
  40f1bc:	36 00 02 03 
  40f1c0:	28 00 00 00 	lw $2,1720($30)
  40f1c4:	b8 06 02 1e 
  40f1c8:	42 00 00 00 	addu $9,$0,$2
  40f1cc:	00 09 02 00 
  40f1d0:	43 00 00 00 	addiu $9,$9,-1
  40f1d4:	ff ff 09 09 
  40f1d8:	34 00 00 00 	sw $9,1720($30)
  40f1dc:	b8 06 09 1e 
  40f1e0:	07 00 00 00 	blez $2,40f298 <__printf_fp+0x4618>
  40f1e4:	2c 00 00 02 
  40f1e8:	43 00 00 00 	addiu $17,$0,-1
  40f1ec:	ff ff 11 00 
  40f1f0:	43 00 00 00 	addiu $16,$0,32
  40f1f4:	20 00 10 00 
  40f1f8:	28 00 00 00 	lw $3,4($22)
  40f1fc:	04 00 03 16 
  40f200:	28 00 00 00 	lw $2,12($22)
  40f204:	0c 00 02 16 
  40f208:	5d 00 00 00 	sltu $2,$3,$2
  40f20c:	00 02 02 03 
  40f210:	06 00 00 00 	bne $2,$0,40f240 <__printf_fp+0x45c0>
  40f214:	0a 00 00 02 
  40f218:	42 00 00 00 	addu $4,$0,$22
  40f21c:	00 04 16 00 
  40f220:	43 00 00 00 	addiu $5,$0,32
  40f224:	20 00 05 00 
  40f228:	02 00 00 00 	jal 408380 <__flshfp>
  40f22c:	e0 20 10 00 
  40f230:	06 00 00 00 	bne $2,$17,40f258 <__printf_fp+0x45d8>
  40f234:	08 00 11 02 
  40f238:	01 00 00 00 	j 40afa0 <__printf_fp+0x320>
  40f23c:	e8 2b 10 00 
  40f240:	43 00 00 00 	addiu $2,$3,1
  40f244:	01 00 02 03 
  40f248:	34 00 00 00 	sw $2,4($22)
  40f24c:	04 00 02 16 
  40f250:	30 00 00 00 	sb $16,0($3)
  40f254:	00 00 10 03 
  40f258:	28 00 00 00 	lw $9,1688($30)
  40f25c:	98 06 09 1e 
  40f260:	43 00 00 00 	addiu $9,$9,1
  40f264:	01 00 09 09 
  40f268:	34 00 00 00 	sw $9,1688($30)
  40f26c:	98 06 09 1e 
  40f270:	28 00 00 00 	lw $2,1720($30)
  40f274:	b8 06 02 1e 
  40f278:	42 00 00 00 	addu $9,$0,$2
  40f27c:	00 09 02 00 
  40f280:	43 00 00 00 	addiu $9,$9,-1
  40f284:	ff ff 09 09 
  40f288:	34 00 00 00 	sw $9,1720($30)
  40f28c:	b8 06 09 1e 
  40f290:	08 00 00 00 	bgtz $2,40f1f8 <__printf_fp+0x4578>
  40f294:	d8 ff 00 02 
  40f298:	28 00 00 00 	lw $2,1528($30)
  40f29c:	f8 05 02 1e 
  40f2a0:	05 00 00 00 	beq $2,$0,40f300 <__printf_fp+0x4680>
  40f2a4:	16 00 00 02 
  40f2a8:	28 00 00 00 	lw $3,4($22)
  40f2ac:	04 00 03 16 
  40f2b0:	28 00 00 00 	lw $2,12($22)
  40f2b4:	0c 00 02 16 
  40f2b8:	5d 00 00 00 	sltu $2,$3,$2
  40f2bc:	00 02 02 03 
  40f2c0:	06 00 00 00 	bne $2,$0,40f2e0 <__printf_fp+0x4660>
  40f2c4:	06 00 00 02 
  40f2c8:	42 00 00 00 	addu $4,$0,$22
  40f2cc:	00 04 16 00 
  40f2d0:	43 00 00 00 	addiu $5,$0,45
  40f2d4:	2d 00 05 00 
  40f2d8:	01 00 00 00 	j 40f3b8 <__printf_fp+0x4738>
  40f2dc:	ee 3c 10 00 
  40f2e0:	43 00 00 00 	addiu $2,$3,1
  40f2e4:	01 00 02 03 
  40f2e8:	34 00 00 00 	sw $2,4($22)
  40f2ec:	04 00 02 16 
  40f2f0:	43 00 00 00 	addiu $2,$0,45
  40f2f4:	2d 00 02 00 
  40f2f8:	01 00 00 00 	j 40f3f0 <__printf_fp+0x4770>
  40f2fc:	fc 3c 10 00 
  40f300:	28 00 00 00 	lw $9,1680($30)
  40f304:	90 06 09 1e 
  40f308:	28 00 00 00 	lw $3,8($9)
  40f30c:	08 00 03 09 
  40f310:	4f 00 00 00 	andi $2,$3,16384
  40f314:	00 40 02 03 
  40f318:	05 00 00 00 	beq $2,$0,40f378 <__printf_fp+0x46f8>
  40f31c:	16 00 00 02 
  40f320:	28 00 00 00 	lw $3,4($22)
  40f324:	04 00 03 16 
  40f328:	28 00 00 00 	lw $2,12($22)
  40f32c:	0c 00 02 16 
  40f330:	5d 00 00 00 	sltu $2,$3,$2
  40f334:	00 02 02 03 
  40f338:	06 00 00 00 	bne $2,$0,40f358 <__printf_fp+0x46d8>
  40f33c:	06 00 00 02 
  40f340:	42 00 00 00 	addu $4,$0,$22
  40f344:	00 04 16 00 
  40f348:	43 00 00 00 	addiu $5,$0,43
  40f34c:	2b 00 05 00 
  40f350:	01 00 00 00 	j 40f3b8 <__printf_fp+0x4738>
  40f354:	ee 3c 10 00 
  40f358:	43 00 00 00 	addiu $2,$3,1
  40f35c:	01 00 02 03 
  40f360:	34 00 00 00 	sw $2,4($22)
  40f364:	04 00 02 16 
  40f368:	43 00 00 00 	addiu $2,$0,43
  40f36c:	2b 00 02 00 
  40f370:	01 00 00 00 	j 40f3f0 <__printf_fp+0x4770>
  40f374:	fc 3c 10 00 
  40f378:	4f 00 00 00 	andi $2,$3,4096
  40f37c:	00 10 02 03 
  40f380:	05 00 00 00 	beq $2,$0,40f410 <__printf_fp+0x4790>
  40f384:	22 00 00 02 
  40f388:	28 00 00 00 	lw $3,4($22)
  40f38c:	04 00 03 16 
  40f390:	28 00 00 00 	lw $2,12($22)
  40f394:	0c 00 02 16 
  40f398:	5d 00 00 00 	sltu $2,$3,$2
  40f39c:	00 02 02 03 
  40f3a0:	06 00 00 00 	bne $2,$0,40f3d8 <__printf_fp+0x4758>
  40f3a4:	0c 00 00 02 
  40f3a8:	42 00 00 00 	addu $4,$0,$22
  40f3ac:	00 04 16 00 
  40f3b0:	43 00 00 00 	addiu $5,$0,32
  40f3b4:	20 00 05 00 
  40f3b8:	02 00 00 00 	jal 408380 <__flshfp>
  40f3bc:	e0 20 10 00 
  40f3c0:	43 00 00 00 	addiu $3,$0,-1
  40f3c4:	ff ff 03 00 
  40f3c8:	06 00 00 00 	bne $2,$3,40f3f8 <__printf_fp+0x4778>
  40f3cc:	0a 00 03 02 
  40f3d0:	01 00 00 00 	j 40afa0 <__printf_fp+0x320>
  40f3d4:	e8 2b 10 00 
  40f3d8:	43 00 00 00 	addiu $2,$3,1
  40f3dc:	01 00 02 03 
  40f3e0:	34 00 00 00 	sw $2,4($22)
  40f3e4:	04 00 02 16 
  40f3e8:	43 00 00 00 	addiu $2,$0,32
  40f3ec:	20 00 02 00 
  40f3f0:	30 00 00 00 	sb $2,0($3)
  40f3f4:	00 00 02 03 
  40f3f8:	28 00 00 00 	lw $9,1688($30)
  40f3fc:	98 06 09 1e 
  40f400:	43 00 00 00 	addiu $9,$9,1
  40f404:	01 00 09 09 
  40f408:	34 00 00 00 	sw $9,1688($30)
  40f40c:	98 06 09 1e 
  40f410:	28 00 00 00 	lw $9,1680($30)
  40f414:	90 06 09 1e 
  40f418:	28 00 00 00 	lw $2,8($9)
  40f41c:	08 00 02 09 
  40f420:	a2 00 00 00 	lui $3,255
  40f424:	ff 00 03 00 
  40f428:	51 00 00 00 	ori $3,$3,8192
  40f42c:	00 20 03 03 
  40f430:	4e 00 00 00 	and $2,$2,$3
  40f434:	00 02 03 02 
  40f438:	a2 00 00 00 	lui $3,48
  40f43c:	30 00 03 00 
  40f440:	06 00 00 00 	bne $2,$3,40f520 <__printf_fp+0x48a0>
  40f444:	36 00 03 02 
  40f448:	28 00 00 00 	lw $2,1720($30)
  40f44c:	b8 06 02 1e 
  40f450:	42 00 00 00 	addu $9,$0,$2
  40f454:	00 09 02 00 
  40f458:	43 00 00 00 	addiu $9,$9,-1
  40f45c:	ff ff 09 09 
  40f460:	34 00 00 00 	sw $9,1720($30)
  40f464:	b8 06 09 1e 
  40f468:	07 00 00 00 	blez $2,40f520 <__printf_fp+0x48a0>
  40f46c:	2c 00 00 02 
  40f470:	43 00 00 00 	addiu $17,$0,-1
  40f474:	ff ff 11 00 
  40f478:	43 00 00 00 	addiu $16,$0,48
  40f47c:	30 00 10 00 
  40f480:	28 00 00 00 	lw $3,4($22)
  40f484:	04 00 03 16 
  40f488:	28 00 00 00 	lw $2,12($22)
  40f48c:	0c 00 02 16 
  40f490:	5d 00 00 00 	sltu $2,$3,$2
  40f494:	00 02 02 03 
  40f498:	06 00 00 00 	bne $2,$0,40f4c8 <__printf_fp+0x4848>
  40f49c:	0a 00 00 02 
  40f4a0:	42 00 00 00 	addu $4,$0,$22
  40f4a4:	00 04 16 00 
  40f4a8:	43 00 00 00 	addiu $5,$0,48
  40f4ac:	30 00 05 00 
  40f4b0:	02 00 00 00 	jal 408380 <__flshfp>
  40f4b4:	e0 20 10 00 
  40f4b8:	06 00 00 00 	bne $2,$17,40f4e0 <__printf_fp+0x4860>
  40f4bc:	08 00 11 02 
  40f4c0:	01 00 00 00 	j 40afa0 <__printf_fp+0x320>
  40f4c4:	e8 2b 10 00 
  40f4c8:	43 00 00 00 	addiu $2,$3,1
  40f4cc:	01 00 02 03 
  40f4d0:	34 00 00 00 	sw $2,4($22)
  40f4d4:	04 00 02 16 
  40f4d8:	30 00 00 00 	sb $16,0($3)
  40f4dc:	00 00 10 03 
  40f4e0:	28 00 00 00 	lw $9,1688($30)
  40f4e4:	98 06 09 1e 
  40f4e8:	43 00 00 00 	addiu $9,$9,1
  40f4ec:	01 00 09 09 
  40f4f0:	34 00 00 00 	sw $9,1688($30)
  40f4f4:	98 06 09 1e 
  40f4f8:	28 00 00 00 	lw $2,1720($30)
  40f4fc:	b8 06 02 1e 
  40f500:	42 00 00 00 	addu $9,$0,$2
  40f504:	00 09 02 00 
  40f508:	43 00 00 00 	addiu $9,$9,-1
  40f50c:	ff ff 09 09 
  40f510:	34 00 00 00 	sw $9,1720($30)
  40f514:	b8 06 09 1e 
  40f518:	08 00 00 00 	bgtz $2,40f480 <__printf_fp+0x4800>
  40f51c:	d8 ff 00 02 
  40f520:	28 00 00 00 	lw $4,1728($30)
  40f524:	c0 06 04 1e 
  40f528:	43 00 00 00 	addiu $6,$0,1
  40f52c:	01 00 06 00 
  40f530:	42 00 00 00 	addu $7,$0,$22
  40f534:	00 07 16 00 
  40f538:	45 00 00 00 	subu $16,$23,$4
  40f53c:	00 10 04 17 
  40f540:	42 00 00 00 	addu $5,$0,$16
  40f544:	00 05 10 00 
  40f548:	02 00 00 00 	jal 40a400 <fwrite>
  40f54c:	00 29 10 00 
  40f550:	43 00 00 00 	addiu $3,$0,1
  40f554:	01 00 03 00 
  40f558:	06 00 00 00 	bne $2,$3,40afa0 <__printf_fp+0x320>
  40f55c:	90 ee 03 02 
  40f560:	28 00 00 00 	lw $9,1680($30)
  40f564:	90 06 09 1e 
  40f568:	28 00 00 00 	lw $2,8($9)
  40f56c:	08 00 02 09 
  40f570:	28 00 00 00 	lw $9,1688($30)
  40f574:	98 06 09 1e 
  40f578:	4f 00 00 00 	andi $2,$2,8192
  40f57c:	00 20 02 02 
  40f580:	42 00 00 00 	addu $9,$9,$16
  40f584:	00 09 10 09 
  40f588:	34 00 00 00 	sw $9,1688($30)
  40f58c:	98 06 09 1e 
  40f590:	05 00 00 00 	beq $2,$0,40f670 <__printf_fp+0x49f0>
  40f594:	36 00 00 02 
  40f598:	28 00 00 00 	lw $2,1720($30)
  40f59c:	b8 06 02 1e 
  40f5a0:	42 00 00 00 	addu $9,$0,$2
  40f5a4:	00 09 02 00 
  40f5a8:	43 00 00 00 	addiu $9,$9,-1
  40f5ac:	ff ff 09 09 
  40f5b0:	34 00 00 00 	sw $9,1720($30)
  40f5b4:	b8 06 09 1e 
  40f5b8:	07 00 00 00 	blez $2,40f670 <__printf_fp+0x49f0>
  40f5bc:	2c 00 00 02 
  40f5c0:	43 00 00 00 	addiu $17,$0,-1
  40f5c4:	ff ff 11 00 
  40f5c8:	43 00 00 00 	addiu $16,$0,32
  40f5cc:	20 00 10 00 
  40f5d0:	28 00 00 00 	lw $3,4($22)
  40f5d4:	04 00 03 16 
  40f5d8:	28 00 00 00 	lw $2,12($22)
  40f5dc:	0c 00 02 16 
  40f5e0:	5d 00 00 00 	sltu $2,$3,$2
  40f5e4:	00 02 02 03 
  40f5e8:	06 00 00 00 	bne $2,$0,40f618 <__printf_fp+0x4998>
  40f5ec:	0a 00 00 02 
  40f5f0:	42 00 00 00 	addu $4,$0,$22
  40f5f4:	00 04 16 00 
  40f5f8:	43 00 00 00 	addiu $5,$0,32
  40f5fc:	20 00 05 00 
  40f600:	02 00 00 00 	jal 408380 <__flshfp>
  40f604:	e0 20 10 00 
  40f608:	06 00 00 00 	bne $2,$17,40f630 <__printf_fp+0x49b0>
  40f60c:	08 00 11 02 
  40f610:	01 00 00 00 	j 40afa0 <__printf_fp+0x320>
  40f614:	e8 2b 10 00 
  40f618:	43 00 00 00 	addiu $2,$3,1
  40f61c:	01 00 02 03 
  40f620:	34 00 00 00 	sw $2,4($22)
  40f624:	04 00 02 16 
  40f628:	30 00 00 00 	sb $16,0($3)
  40f62c:	00 00 10 03 
  40f630:	28 00 00 00 	lw $9,1688($30)
  40f634:	98 06 09 1e 
  40f638:	43 00 00 00 	addiu $9,$9,1
  40f63c:	01 00 09 09 
  40f640:	34 00 00 00 	sw $9,1688($30)
  40f644:	98 06 09 1e 
  40f648:	28 00 00 00 	lw $2,1720($30)
  40f64c:	b8 06 02 1e 
  40f650:	42 00 00 00 	addu $9,$0,$2
  40f654:	00 09 02 00 
  40f658:	43 00 00 00 	addiu $9,$9,-1
  40f65c:	ff ff 09 09 
  40f660:	34 00 00 00 	sw $9,1720($30)
  40f664:	b8 06 09 1e 
  40f668:	08 00 00 00 	bgtz $2,40f5d0 <__printf_fp+0x4950>
  40f66c:	d8 ff 00 02 
  40f670:	28 00 00 00 	lw $2,1688($30)
  40f674:	98 06 02 1e 
  40f678:	42 00 00 00 	addu $29,$0,$30
  40f67c:	00 1d 1e 00 
  40f680:	28 00 00 00 	lw $31,1956($29)
  40f684:	a4 07 1f 1d 
  40f688:	28 00 00 00 	lw $30,1952($29)
  40f68c:	a0 07 1e 1d 
  40f690:	28 00 00 00 	lw $23,1948($29)
  40f694:	9c 07 17 1d 
  40f698:	28 00 00 00 	lw $22,1944($29)
  40f69c:	98 07 16 1d 
  40f6a0:	28 00 00 00 	lw $21,1940($29)
  40f6a4:	94 07 15 1d 
  40f6a8:	28 00 00 00 	lw $20,1936($29)
  40f6ac:	90 07 14 1d 
  40f6b0:	28 00 00 00 	lw $19,1932($29)
  40f6b4:	8c 07 13 1d 
  40f6b8:	28 00 00 00 	lw $18,1928($29)
  40f6bc:	88 07 12 1d 
  40f6c0:	28 00 00 00 	lw $17,1924($29)
  40f6c4:	84 07 11 1d 
  40f6c8:	28 00 00 00 	lw $16,1920($29)
  40f6cc:	80 07 10 1d 
  40f6d0:	2a 00 00 00 	l.s $f20,1960($29)
  40f6d4:	a8 07 14 1d 
  40f6d8:	2a 00 00 00 	l.s $f21,1964($29)
  40f6dc:	ac 07 15 1d 
  40f6e0:	43 00 00 00 	addiu $29,$29,1968
  40f6e4:	b0 07 1d 1d 
  40f6e8:	03 00 00 00 	jr $31
  40f6ec:	00 00 00 1f 

0040f6f0 <sprintf>:
  40f6f0:	34 00 00 00 	sw $5,4($29)
  40f6f4:	04 00 05 1d 
  40f6f8:	34 00 00 00 	sw $6,8($29)
  40f6fc:	08 00 06 1d 
  40f700:	34 00 00 00 	sw $7,12($29)
  40f704:	0c 00 07 1d 
  40f708:	43 00 00 00 	addiu $29,$29,-24
  40f70c:	e8 ff 1d 1d 
  40f710:	43 00 00 00 	addiu $6,$29,32
  40f714:	20 00 06 1d 
  40f718:	34 00 00 00 	sw $31,16($29)
  40f71c:	10 00 1f 1d 
  40f720:	02 00 00 00 	jal 412310 <vsprintf>
  40f724:	c4 48 10 00 
  40f728:	28 00 00 00 	lw $31,16($29)
  40f72c:	10 00 1f 1d 
  40f730:	43 00 00 00 	addiu $29,$29,24
  40f734:	18 00 1d 1d 
  40f738:	03 00 00 00 	jr $31
  40f73c:	00 00 00 1f 

0040f740 <fflush>:
  40f740:	43 00 00 00 	addiu $29,$29,-40
  40f744:	d8 ff 1d 1d 
  40f748:	34 00 00 00 	sw $16,16($29)
  40f74c:	10 00 10 1d 
  40f750:	42 00 00 00 	addu $16,$0,$4
  40f754:	00 10 04 00 
  40f758:	34 00 00 00 	sw $31,36($29)
  40f75c:	24 00 1f 1d 
  40f760:	34 00 00 00 	sw $20,32($29)
  40f764:	20 00 14 1d 
  40f768:	34 00 00 00 	sw $19,28($29)
  40f76c:	1c 00 13 1d 
  40f770:	34 00 00 00 	sw $18,24($29)
  40f774:	18 00 12 1d 
  40f778:	34 00 00 00 	sw $17,20($29)
  40f77c:	14 00 11 1d 
  40f780:	06 00 00 00 	bne $16,$0,40f858 <fflush+0x118>
  40f784:	34 00 00 10 
  40f788:	28 00 00 00 	lw $16,-32708($28)
  40f78c:	3c 80 10 1c 
  40f790:	42 00 00 00 	addu $17,$0,$0
  40f794:	00 11 00 00 
  40f798:	05 00 00 00 	beq $16,$0,40f840 <fflush+0x100>
  40f79c:	28 00 00 10 
  40f7a0:	a2 00 00 00 	lui $19,65261
  40f7a4:	ed fe 13 00 
  40f7a8:	51 00 00 00 	ori $19,$19,47806
  40f7ac:	be ba 13 13 
  40f7b0:	a2 00 00 00 	lui $18,65242
  40f7b4:	da fe 12 00 
  40f7b8:	51 00 00 00 	ori $18,$18,48875
  40f7bc:	eb be 12 12 
  40f7c0:	43 00 00 00 	addiu $20,$0,-1
  40f7c4:	ff ff 14 00 
  40f7c8:	28 00 00 00 	lw $2,0($16)
  40f7cc:	00 00 02 10 
  40f7d0:	06 00 00 00 	bne $2,$19,40f7e8 <fflush+0xa8>
  40f7d4:	04 00 13 02 
  40f7d8:	28 00 00 00 	lw $2,4($16)
  40f7dc:	04 00 02 10 
  40f7e0:	28 00 00 00 	lw $16,0($2)
  40f7e4:	00 00 10 02 
  40f7e8:	28 00 00 00 	lw $2,0($16)
  40f7ec:	00 00 02 10 
  40f7f0:	06 00 00 00 	bne $2,$18,40f830 <fflush+0xf0>
  40f7f4:	0e 00 12 02 
  40f7f8:	28 00 00 00 	lw $2,28($16)
  40f7fc:	1c 00 02 10 
  40f800:	4f 00 00 00 	andi $2,$2,2
  40f804:	02 00 02 02 
  40f808:	05 00 00 00 	beq $2,$0,40f830 <fflush+0xf0>
  40f80c:	08 00 00 02 
  40f810:	42 00 00 00 	addu $4,$0,$16
  40f814:	00 04 10 00 
  40f818:	02 00 00 00 	jal 40f740 <fflush>
  40f81c:	d0 3d 10 00 
  40f820:	06 00 00 00 	bne $2,$20,40f830 <fflush+0xf0>
  40f824:	02 00 14 02 
  40f828:	51 00 00 00 	ori $17,$17,1
  40f82c:	01 00 11 11 
  40f830:	28 00 00 00 	lw $16,68($16)
  40f834:	44 00 10 10 
  40f838:	06 00 00 00 	bne $16,$0,40f7c8 <fflush+0x88>
  40f83c:	e2 ff 00 10 
  40f840:	5d 00 00 00 	sltu $2,$0,$17
  40f844:	00 02 11 00 
  40f848:	45 00 00 00 	subu $2,$0,$2
  40f84c:	00 02 02 00 
  40f850:	01 00 00 00 	j 40f8f8 <fflush+0x1b8>
  40f854:	3e 3e 10 00 
  40f858:	28 00 00 00 	lw $3,0($16)
  40f85c:	00 00 03 10 
  40f860:	a2 00 00 00 	lui $2,65261
  40f864:	ed fe 02 00 
  40f868:	51 00 00 00 	ori $2,$2,47806
  40f86c:	be ba 02 02 
  40f870:	06 00 00 00 	bne $3,$2,40f888 <fflush+0x148>
  40f874:	04 00 02 03 
  40f878:	28 00 00 00 	lw $2,4($16)
  40f87c:	04 00 02 10 
  40f880:	28 00 00 00 	lw $16,0($2)
  40f884:	00 00 10 02 
  40f888:	28 00 00 00 	lw $3,0($16)
  40f88c:	00 00 03 10 
  40f890:	a2 00 00 00 	lui $2,65242
  40f894:	da fe 02 00 
  40f898:	51 00 00 00 	ori $2,$2,48875
  40f89c:	eb be 02 02 
  40f8a0:	06 00 00 00 	bne $3,$2,40f8c0 <fflush+0x180>
  40f8a4:	06 00 02 03 
  40f8a8:	28 00 00 00 	lw $2,28($16)
  40f8ac:	1c 00 02 10 
  40f8b0:	4f 00 00 00 	andi $2,$2,2
  40f8b4:	02 00 02 02 
  40f8b8:	06 00 00 00 	bne $2,$0,40f8e0 <fflush+0x1a0>
  40f8bc:	08 00 00 02 
  40f8c0:	43 00 00 00 	addiu $2,$0,22
  40f8c4:	16 00 02 00 
  40f8c8:	34 00 00 00 	sw $2,-32416($28)
  40f8cc:	60 81 02 1c 
  40f8d0:	43 00 00 00 	addiu $2,$0,-1
  40f8d4:	ff ff 02 00 
  40f8d8:	01 00 00 00 	j 40f8f8 <fflush+0x1b8>
  40f8dc:	3e 3e 10 00 
  40f8e0:	42 00 00 00 	addu $4,$0,$16
  40f8e4:	00 04 10 00 
  40f8e8:	43 00 00 00 	addiu $5,$0,-1
  40f8ec:	ff ff 05 00 
  40f8f0:	02 00 00 00 	jal 408380 <__flshfp>
  40f8f4:	e0 20 10 00 
  40f8f8:	28 00 00 00 	lw $31,36($29)
  40f8fc:	24 00 1f 1d 
  40f900:	28 00 00 00 	lw $20,32($29)
  40f904:	20 00 14 1d 
  40f908:	28 00 00 00 	lw $19,28($29)
  40f90c:	1c 00 13 1d 
  40f910:	28 00 00 00 	lw $18,24($29)
  40f914:	18 00 12 1d 
  40f918:	28 00 00 00 	lw $17,20($29)
  40f91c:	14 00 11 1d 
  40f920:	28 00 00 00 	lw $16,16($29)
  40f924:	10 00 10 1d 
  40f928:	43 00 00 00 	addiu $29,$29,40
  40f92c:	28 00 1d 1d 
  40f930:	03 00 00 00 	jr $31
  40f934:	00 00 00 1f 
	...

0040f940 <__default_morecore>:
  40f940:	43 00 00 00 	addiu $29,$29,-24
  40f944:	e8 ff 1d 1d 
  40f948:	34 00 00 00 	sw $31,16($29)
  40f94c:	10 00 1f 1d 
  40f950:	02 00 00 00 	jal 412460 <__sbrk>
  40f954:	18 49 10 00 
  40f958:	54 00 00 00 	nor $3,$0,$2
  40f95c:	00 03 02 00 
  40f960:	5d 00 00 00 	sltu $3,$0,$3
  40f964:	00 03 03 00 
  40f968:	45 00 00 00 	subu $3,$0,$3
  40f96c:	00 03 03 00 
  40f970:	4e 00 00 00 	and $2,$2,$3
  40f974:	00 02 03 02 
  40f978:	28 00 00 00 	lw $31,16($29)
  40f97c:	10 00 1f 1d 
  40f980:	43 00 00 00 	addiu $29,$29,24
  40f984:	18 00 1d 1d 
  40f988:	03 00 00 00 	jr $31
  40f98c:	00 00 00 1f 

0040f990 <memset>:
  40f990:	42 00 00 00 	addu $8,$0,$4
  40f994:	00 08 04 00 
  40f998:	5e 00 00 00 	sltiu $2,$6,8
  40f99c:	08 00 02 06 
  40f9a0:	06 00 00 00 	bne $2,$0,40fac0 <memset+0x130>
  40f9a4:	46 00 00 02 
  40f9a8:	4f 00 00 00 	andi $7,$5,255
  40f9ac:	ff 00 07 05 
  40f9b0:	55 00 00 00 	sll $2,$7,0x8
  40f9b4:	08 02 07 00 
  40f9b8:	50 00 00 00 	or $7,$7,$2
  40f9bc:	00 07 02 07 
  40f9c0:	55 00 00 00 	sll $2,$7,0x10
  40f9c4:	10 02 07 00 
  40f9c8:	50 00 00 00 	or $7,$7,$2
  40f9cc:	00 07 02 07 
  40f9d0:	4f 00 00 00 	andi $2,$4,3
  40f9d4:	03 00 02 04 
  40f9d8:	05 00 00 00 	beq $2,$0,40fa08 <memset+0x78>
  40f9dc:	0a 00 00 02 
  40f9e0:	30 00 00 00 	sb $5,0($8)
  40f9e4:	00 00 05 08 
  40f9e8:	43 00 00 00 	addiu $8,$8,1
  40f9ec:	01 00 08 08 
  40f9f0:	43 00 00 00 	addiu $6,$6,-1
  40f9f4:	ff ff 06 06 
  40f9f8:	4f 00 00 00 	andi $2,$8,3
  40f9fc:	03 00 02 08 
  40fa00:	06 00 00 00 	bne $2,$0,40f9e0 <memset+0x50>
  40fa04:	f6 ff 00 02 
  40fa08:	57 00 00 00 	srl $3,$6,0x5
  40fa0c:	05 03 06 00 
  40fa10:	05 00 00 00 	beq $3,$0,40fa80 <memset+0xf0>
  40fa14:	1a 00 00 03 
  40fa18:	43 00 00 00 	addiu $2,$8,28
  40fa1c:	1c 00 02 08 
  40fa20:	34 00 00 00 	sw $7,0($8)
  40fa24:	00 00 07 08 
  40fa28:	34 00 00 00 	sw $7,-24($2)
  40fa2c:	e8 ff 07 02 
  40fa30:	34 00 00 00 	sw $7,-20($2)
  40fa34:	ec ff 07 02 
  40fa38:	34 00 00 00 	sw $7,-16($2)
  40fa3c:	f0 ff 07 02 
  40fa40:	34 00 00 00 	sw $7,-12($2)
  40fa44:	f4 ff 07 02 
  40fa48:	34 00 00 00 	sw $7,-8($2)
  40fa4c:	f8 ff 07 02 
  40fa50:	34 00 00 00 	sw $7,-4($2)
  40fa54:	fc ff 07 02 
  40fa58:	34 00 00 00 	sw $7,0($2)
  40fa5c:	00 00 07 02 
  40fa60:	43 00 00 00 	addiu $2,$2,32
  40fa64:	20 00 02 02 
  40fa68:	43 00 00 00 	addiu $8,$8,32
  40fa6c:	20 00 08 08 
  40fa70:	43 00 00 00 	addiu $3,$3,-1
  40fa74:	ff ff 03 03 
  40fa78:	06 00 00 00 	bne $3,$0,40fa20 <memset+0x90>
  40fa7c:	e8 ff 00 03 
  40fa80:	4f 00 00 00 	andi $6,$6,31
  40fa84:	1f 00 06 06 
  40fa88:	57 00 00 00 	srl $3,$6,0x2
  40fa8c:	02 03 06 00 
  40fa90:	05 00 00 00 	beq $3,$0,40fab8 <memset+0x128>
  40fa94:	08 00 00 03 
  40fa98:	34 00 00 00 	sw $7,0($8)
  40fa9c:	00 00 07 08 
  40faa0:	43 00 00 00 	addiu $8,$8,4
  40faa4:	04 00 08 08 
  40faa8:	43 00 00 00 	addiu $3,$3,-1
  40faac:	ff ff 03 03 
  40fab0:	06 00 00 00 	bne $3,$0,40fa98 <memset+0x108>
  40fab4:	f8 ff 00 03 
  40fab8:	4f 00 00 00 	andi $6,$6,3
  40fabc:	03 00 06 06 
  40fac0:	05 00 00 00 	beq $6,$0,40fae8 <memset+0x158>
  40fac4:	08 00 00 06 
  40fac8:	30 00 00 00 	sb $5,0($8)
  40facc:	00 00 05 08 
  40fad0:	43 00 00 00 	addiu $8,$8,1
  40fad4:	01 00 08 08 
  40fad8:	43 00 00 00 	addiu $6,$6,-1
  40fadc:	ff ff 06 06 
  40fae0:	06 00 00 00 	bne $6,$0,40fac8 <memset+0x138>
  40fae4:	f8 ff 00 06 
  40fae8:	42 00 00 00 	addu $2,$0,$4
  40faec:	00 02 04 00 
  40faf0:	03 00 00 00 	jr $31
  40faf4:	00 00 00 1f 
	...

0040fb00 <memcpy>:
  40fb00:	43 00 00 00 	addiu $29,$29,-40
  40fb04:	d8 ff 1d 1d 
  40fb08:	34 00 00 00 	sw $19,28($29)
  40fb0c:	1c 00 13 1d 
  40fb10:	42 00 00 00 	addu $19,$0,$4
  40fb14:	00 13 04 00 
  40fb18:	34 00 00 00 	sw $18,24($29)
  40fb1c:	18 00 12 1d 
  40fb20:	42 00 00 00 	addu $18,$0,$6
  40fb24:	00 12 06 00 
  40fb28:	34 00 00 00 	sw $17,20($29)
  40fb2c:	14 00 11 1d 
  40fb30:	42 00 00 00 	addu $17,$0,$19
  40fb34:	00 11 13 00 
  40fb38:	34 00 00 00 	sw $16,16($29)
  40fb3c:	10 00 10 1d 
  40fb40:	42 00 00 00 	addu $16,$0,$5
  40fb44:	00 10 05 00 
  40fb48:	5e 00 00 00 	sltiu $2,$18,16
  40fb4c:	10 00 02 12 
  40fb50:	34 00 00 00 	sw $31,32($29)
  40fb54:	20 00 1f 1d 
  40fb58:	06 00 00 00 	bne $2,$0,40fc38 <memcpy+0x138>
  40fb5c:	36 00 00 02 
  40fb60:	45 00 00 00 	subu $2,$0,$19
  40fb64:	00 02 13 00 
  40fb68:	4f 00 00 00 	andi $2,$2,3
  40fb6c:	03 00 02 02 
  40fb70:	45 00 00 00 	subu $18,$18,$2
  40fb74:	00 12 02 12 
  40fb78:	42 00 00 00 	addu $3,$0,$2
  40fb7c:	00 03 02 00 
  40fb80:	05 00 00 00 	beq $3,$0,40fbb8 <memcpy+0xb8>
  40fb84:	0c 00 00 03 
  40fb88:	22 00 00 00 	lbu $2,0($16)
  40fb8c:	00 00 02 10 
  40fb90:	43 00 00 00 	addiu $3,$3,-1
  40fb94:	ff ff 03 03 
  40fb98:	43 00 00 00 	addiu $16,$16,1
  40fb9c:	01 00 10 10 
  40fba0:	30 00 00 00 	sb $2,0($17)
  40fba4:	00 00 02 11 
  40fba8:	43 00 00 00 	addiu $17,$17,1
  40fbac:	01 00 11 11 
  40fbb0:	06 00 00 00 	bne $3,$0,40fb88 <memcpy+0x88>
  40fbb4:	f4 ff 00 03 
  40fbb8:	4f 00 00 00 	andi $2,$16,3
  40fbbc:	03 00 02 10 
  40fbc0:	06 00 00 00 	bne $2,$0,40fbf0 <memcpy+0xf0>
  40fbc4:	0a 00 00 02 
  40fbc8:	42 00 00 00 	addu $4,$0,$17
  40fbcc:	00 04 11 00 
  40fbd0:	42 00 00 00 	addu $5,$0,$16
  40fbd4:	00 05 10 00 
  40fbd8:	57 00 00 00 	srl $6,$18,0x2
  40fbdc:	02 06 12 00 
  40fbe0:	02 00 00 00 	jal 4124f0 <_wordcopy_fwd_aligned>
  40fbe4:	3c 49 10 00 
  40fbe8:	01 00 00 00 	j 40fc10 <memcpy+0x110>
  40fbec:	04 3f 10 00 
  40fbf0:	42 00 00 00 	addu $4,$0,$17
  40fbf4:	00 04 11 00 
  40fbf8:	42 00 00 00 	addu $5,$0,$16
  40fbfc:	00 05 10 00 
  40fc00:	57 00 00 00 	srl $6,$18,0x2
  40fc04:	02 06 12 00 
  40fc08:	02 00 00 00 	jal 412700 <_wordcopy_fwd_dest_aligned>
  40fc0c:	c0 49 10 00 
  40fc10:	43 00 00 00 	addiu $2,$0,-4
  40fc14:	fc ff 02 00 
  40fc18:	4e 00 00 00 	and $2,$18,$2
  40fc1c:	00 02 02 12 
  40fc20:	42 00 00 00 	addu $16,$16,$2
  40fc24:	00 10 02 10 
  40fc28:	42 00 00 00 	addu $17,$17,$2
  40fc2c:	00 11 02 11 
  40fc30:	4f 00 00 00 	andi $18,$18,3
  40fc34:	03 00 12 12 
  40fc38:	42 00 00 00 	addu $6,$0,$18
  40fc3c:	00 06 12 00 
  40fc40:	05 00 00 00 	beq $6,$0,40fc78 <memcpy+0x178>
  40fc44:	0c 00 00 06 
  40fc48:	22 00 00 00 	lbu $2,0($16)
  40fc4c:	00 00 02 10 
  40fc50:	43 00 00 00 	addiu $6,$6,-1
  40fc54:	ff ff 06 06 
  40fc58:	43 00 00 00 	addiu $16,$16,1
  40fc5c:	01 00 10 10 
  40fc60:	30 00 00 00 	sb $2,0($17)
  40fc64:	00 00 02 11 
  40fc68:	43 00 00 00 	addiu $17,$17,1
  40fc6c:	01 00 11 11 
  40fc70:	06 00 00 00 	bne $6,$0,40fc48 <memcpy+0x148>
  40fc74:	f4 ff 00 06 
  40fc78:	42 00 00 00 	addu $2,$0,$19
  40fc7c:	00 02 13 00 
  40fc80:	28 00 00 00 	lw $31,32($29)
  40fc84:	20 00 1f 1d 
  40fc88:	28 00 00 00 	lw $19,28($29)
  40fc8c:	1c 00 13 1d 
  40fc90:	28 00 00 00 	lw $18,24($29)
  40fc94:	18 00 12 1d 
  40fc98:	28 00 00 00 	lw $17,20($29)
  40fc9c:	14 00 11 1d 
  40fca0:	28 00 00 00 	lw $16,16($29)
  40fca4:	10 00 10 1d 
  40fca8:	43 00 00 00 	addiu $29,$29,40
  40fcac:	28 00 1d 1d 
  40fcb0:	03 00 00 00 	jr $31
  40fcb4:	00 00 00 1f 
	...

0040fcc0 <__stdio_init_stream>:
  40fcc0:	43 00 00 00 	addiu $29,$29,-96
  40fcc4:	a0 ff 1d 1d 
  40fcc8:	34 00 00 00 	sw $16,80($29)
  40fccc:	50 00 10 1d 
  40fcd0:	42 00 00 00 	addu $16,$0,$4
  40fcd4:	00 10 04 00 
  40fcd8:	34 00 00 00 	sw $31,88($29)
  40fcdc:	58 00 1f 1d 
  40fce0:	34 00 00 00 	sw $17,84($29)
  40fce4:	54 00 11 1d 
  40fce8:	28 00 00 00 	lw $2,16($16)
  40fcec:	10 00 02 10 
  40fcf0:	28 00 00 00 	lw $17,24($16)
  40fcf4:	18 00 11 10 
  40fcf8:	06 00 00 00 	bne $2,$0,40fdd0 <__stdio_init_stream+0x110>
  40fcfc:	34 00 00 02 
  40fd00:	28 00 00 00 	lw $2,76($16)
  40fd04:	4c 00 02 10 
  40fd08:	4f 00 00 00 	andi $2,$2,2048
  40fd0c:	00 08 02 02 
  40fd10:	06 00 00 00 	bne $2,$0,40fdd0 <__stdio_init_stream+0x110>
  40fd14:	2e 00 00 02 
  40fd18:	42 00 00 00 	addu $4,$0,$17
  40fd1c:	00 04 11 00 
  40fd20:	43 00 00 00 	addiu $5,$29,16
  40fd24:	10 00 05 1d 
  40fd28:	02 00 00 00 	jal 412d50 <__fstat>
  40fd2c:	54 4b 10 00 
  40fd30:	09 00 00 00 	bltz $2,40fdd0 <__stdio_init_stream+0x110>
  40fd34:	26 00 00 02 
  40fd38:	26 00 00 00 	lhu $2,24($29)
  40fd3c:	18 00 02 1d 
  40fd40:	4f 00 00 00 	andi $3,$2,61440
  40fd44:	00 f0 03 02 
  40fd48:	43 00 00 00 	addiu $2,$0,4096
  40fd4c:	00 10 02 00 
  40fd50:	06 00 00 00 	bne $3,$2,40fd78 <__stdio_init_stream+0xb8>
  40fd54:	08 00 02 03 
  40fd58:	28 00 00 00 	lw $2,76($16)
  40fd5c:	4c 00 02 10 
  40fd60:	51 00 00 00 	ori $2,$2,2048
  40fd64:	00 08 02 02 
  40fd68:	34 00 00 00 	sw $2,76($16)
  40fd6c:	4c 00 02 10 
  40fd70:	01 00 00 00 	j 40fdd0 <__stdio_init_stream+0x110>
  40fd74:	74 3f 10 00 
  40fd78:	43 00 00 00 	addiu $2,$0,8192
  40fd7c:	00 20 02 00 
  40fd80:	06 00 00 00 	bne $3,$2,40fdc0 <__stdio_init_stream+0x100>
  40fd84:	0e 00 02 03 
  40fd88:	42 00 00 00 	addu $4,$0,$17
  40fd8c:	00 04 11 00 
  40fd90:	02 00 00 00 	jal 412d80 <__isatty>
  40fd94:	60 4b 10 00 
  40fd98:	05 00 00 00 	beq $2,$0,40fdc0 <__stdio_init_stream+0x100>
  40fd9c:	08 00 00 02 
  40fda0:	28 00 00 00 	lw $2,76($16)
  40fda4:	4c 00 02 10 
  40fda8:	34 00 00 00 	sw $0,40($16)
  40fdac:	28 00 00 10 
  40fdb0:	51 00 00 00 	ori $2,$2,4096
  40fdb4:	00 10 02 02 
  40fdb8:	34 00 00 00 	sw $2,76($16)
  40fdbc:	4c 00 02 10 
  40fdc0:	28 00 00 00 	lw $2,64($29)
  40fdc4:	40 00 02 1d 
  40fdc8:	34 00 00 00 	sw $2,20($16)
  40fdcc:	14 00 02 10 
  40fdd0:	28 00 00 00 	lw $31,88($29)
  40fdd4:	58 00 1f 1d 
  40fdd8:	28 00 00 00 	lw $17,84($29)
  40fddc:	54 00 11 1d 
  40fde0:	28 00 00 00 	lw $16,80($29)
  40fde4:	50 00 10 1d 
  40fde8:	43 00 00 00 	addiu $29,$29,96
  40fdec:	60 00 1d 1d 
  40fdf0:	03 00 00 00 	jr $31
  40fdf4:	00 00 00 1f 
	...
  40fe00:	01 00 00 00 	j 407320 <syscall_error>
  40fe04:	c8 1c 10 00 
	...

0040fe10 <__read>:
  40fe10:	43 00 00 00 	addiu $2,$0,3
  40fe14:	03 00 02 00 
  40fe18:	a0 00 00 00 	syscall 
  40fe1c:	00 00 00 00 
  40fe20:	06 00 00 00 	bne $7,$0,40fe00 <__stdio_init_stream+0x140>
  40fe24:	f6 ff 00 07 
	...
  40fe30:	03 00 00 00 	jr $31
  40fe34:	00 00 00 1f 
	...
  40fe40:	01 00 00 00 	j 407320 <syscall_error>
  40fe44:	c8 1c 10 00 
	...

0040fe50 <__write>:
  40fe50:	43 00 00 00 	addiu $2,$0,4
  40fe54:	04 00 02 00 
  40fe58:	a0 00 00 00 	syscall 
  40fe5c:	00 00 00 00 
  40fe60:	06 00 00 00 	bne $7,$0,40fe40 <__read+0x30>
  40fe64:	f6 ff 00 07 
	...
  40fe70:	03 00 00 00 	jr $31
  40fe74:	00 00 00 1f 
	...
  40fe80:	01 00 00 00 	j 407320 <syscall_error>
  40fe84:	c8 1c 10 00 
	...

0040fe90 <__lseek>:
  40fe90:	43 00 00 00 	addiu $2,$0,19
  40fe94:	13 00 02 00 
  40fe98:	a0 00 00 00 	syscall 
  40fe9c:	00 00 00 00 
  40fea0:	06 00 00 00 	bne $7,$0,40fe80 <__write+0x30>
  40fea4:	f6 ff 00 07 
	...
  40feb0:	03 00 00 00 	jr $31
  40feb4:	00 00 00 1f 
	...
  40fec0:	01 00 00 00 	j 407320 <syscall_error>
  40fec4:	c8 1c 10 00 
	...

0040fed0 <__close>:
  40fed0:	43 00 00 00 	addiu $2,$0,6
  40fed4:	06 00 02 00 
  40fed8:	a0 00 00 00 	syscall 
  40fedc:	00 00 00 00 
  40fee0:	06 00 00 00 	bne $7,$0,40fec0 <__lseek+0x30>
  40fee4:	f6 ff 00 07 
	...
  40fef0:	03 00 00 00 	jr $31
  40fef4:	00 00 00 1f 
	...
  40ff00:	01 00 00 00 	j 407320 <syscall_error>
  40ff04:	c8 1c 10 00 
	...

0040ff10 <__open>:
  40ff10:	43 00 00 00 	addiu $2,$0,5
  40ff14:	05 00 02 00 
  40ff18:	a0 00 00 00 	syscall 
  40ff1c:	00 00 00 00 
  40ff20:	06 00 00 00 	bne $7,$0,40ff00 <__close+0x30>
  40ff24:	f6 ff 00 07 
	...
  40ff30:	03 00 00 00 	jr $31
  40ff34:	00 00 00 1f 
	...
  40ff40:	01 00 00 00 	j 407320 <syscall_error>
  40ff44:	c8 1c 10 00 
	...

0040ff50 <__dup2>:
  40ff50:	43 00 00 00 	addiu $2,$0,90
  40ff54:	5a 00 02 00 
  40ff58:	a0 00 00 00 	syscall 
  40ff5c:	00 00 00 00 
  40ff60:	06 00 00 00 	bne $7,$0,40ff40 <__open+0x30>
  40ff64:	f6 ff 00 07 
	...
  40ff70:	03 00 00 00 	jr $31
  40ff74:	00 00 00 1f 
	...

0040ff80 <strncmp>:
  40ff80:	42 00 00 00 	addu $7,$0,$0
  40ff84:	00 07 00 00 
  40ff88:	42 00 00 00 	addu $3,$0,$0
  40ff8c:	00 03 00 00 
  40ff90:	5e 00 00 00 	sltiu $2,$6,4
  40ff94:	04 00 02 06 
  40ff98:	06 00 00 00 	bne $2,$0,4100a0 <strncmp+0x120>
  40ff9c:	40 00 00 02 
  40ffa0:	57 00 00 00 	srl $8,$6,0x2
  40ffa4:	02 08 06 00 
  40ffa8:	22 00 00 00 	lbu $7,0($4)
  40ffac:	00 00 07 04 
  40ffb0:	22 00 00 00 	lbu $3,0($5)
  40ffb4:	00 00 03 05 
  40ffb8:	43 00 00 00 	addiu $4,$4,1
  40ffbc:	01 00 04 04 
  40ffc0:	43 00 00 00 	addiu $5,$5,1
  40ffc4:	01 00 05 05 
  40ffc8:	4f 00 00 00 	andi $2,$7,255
  40ffcc:	ff 00 02 07 
  40ffd0:	05 00 00 00 	beq $2,$0,4100e0 <strncmp+0x160>
  40ffd4:	42 00 00 02 
  40ffd8:	06 00 00 00 	bne $2,$3,4100e0 <strncmp+0x160>
  40ffdc:	40 00 03 02 
  40ffe0:	22 00 00 00 	lbu $7,0($4)
  40ffe4:	00 00 07 04 
  40ffe8:	22 00 00 00 	lbu $3,0($5)
  40ffec:	00 00 03 05 
  40fff0:	43 00 00 00 	addiu $4,$4,1
  40fff4:	01 00 04 04 
  40fff8:	43 00 00 00 	addiu $5,$5,1
  40fffc:	01 00 05 05 
  410000:	4f 00 00 00 	andi $2,$7,255
  410004:	ff 00 02 07 
  410008:	05 00 00 00 	beq $2,$0,4100e0 <strncmp+0x160>
  41000c:	34 00 00 02 
  410010:	06 00 00 00 	bne $2,$3,4100e0 <strncmp+0x160>
  410014:	32 00 03 02 
  410018:	22 00 00 00 	lbu $7,0($4)
  41001c:	00 00 07 04 
  410020:	22 00 00 00 	lbu $3,0($5)
  410024:	00 00 03 05 
  410028:	43 00 00 00 	addiu $4,$4,1
  41002c:	01 00 04 04 
  410030:	43 00 00 00 	addiu $5,$5,1
  410034:	01 00 05 05 
  410038:	4f 00 00 00 	andi $2,$7,255
  41003c:	ff 00 02 07 
  410040:	05 00 00 00 	beq $2,$0,4100e0 <strncmp+0x160>
  410044:	26 00 00 02 
  410048:	06 00 00 00 	bne $2,$3,4100e0 <strncmp+0x160>
  41004c:	24 00 03 02 
  410050:	22 00 00 00 	lbu $7,0($4)
  410054:	00 00 07 04 
  410058:	22 00 00 00 	lbu $3,0($5)
  41005c:	00 00 03 05 
  410060:	43 00 00 00 	addiu $4,$4,1
  410064:	01 00 04 04 
  410068:	43 00 00 00 	addiu $5,$5,1
  41006c:	01 00 05 05 
  410070:	4f 00 00 00 	andi $2,$7,255
  410074:	ff 00 02 07 
  410078:	05 00 00 00 	beq $2,$0,4100e0 <strncmp+0x160>
  41007c:	18 00 00 02 
  410080:	06 00 00 00 	bne $2,$3,4100e0 <strncmp+0x160>
  410084:	16 00 03 02 
  410088:	43 00 00 00 	addiu $8,$8,-1
  41008c:	ff ff 08 08 
  410090:	06 00 00 00 	bne $8,$0,40ffa8 <strncmp+0x28>
  410094:	c4 ff 00 08 
  410098:	4f 00 00 00 	andi $6,$6,3
  41009c:	03 00 06 06 
  4100a0:	05 00 00 00 	beq $6,$0,410100 <strncmp+0x180>
  4100a4:	16 00 00 06 
  4100a8:	22 00 00 00 	lbu $7,0($4)
  4100ac:	00 00 07 04 
  4100b0:	22 00 00 00 	lbu $3,0($5)
  4100b4:	00 00 03 05 
  4100b8:	43 00 00 00 	addiu $4,$4,1
  4100bc:	01 00 04 04 
  4100c0:	43 00 00 00 	addiu $5,$5,1
  4100c4:	01 00 05 05 
  4100c8:	4f 00 00 00 	andi $2,$7,255
  4100cc:	ff 00 02 07 
  4100d0:	05 00 00 00 	beq $2,$0,4100e0 <strncmp+0x160>
  4100d4:	02 00 00 02 
  4100d8:	05 00 00 00 	beq $2,$3,4100f0 <strncmp+0x170>
  4100dc:	04 00 03 02 
  4100e0:	45 00 00 00 	subu $2,$2,$3
  4100e4:	00 02 03 02 
  4100e8:	01 00 00 00 	j 410110 <strncmp+0x190>
  4100ec:	44 40 10 00 
  4100f0:	43 00 00 00 	addiu $6,$6,-1
  4100f4:	ff ff 06 06 
  4100f8:	06 00 00 00 	bne $6,$0,4100a8 <strncmp+0x128>
  4100fc:	ea ff 00 06 
  410100:	4f 00 00 00 	andi $2,$3,255
  410104:	ff 00 02 03 
  410108:	45 00 00 00 	subu $2,$7,$2
  41010c:	00 02 02 07 
  410110:	03 00 00 00 	jr $31
  410114:	00 00 00 1f 
	...

00410120 <memchr>:
  410120:	43 00 00 00 	addiu $29,$29,-16
  410124:	f0 ff 1d 1d 
  410128:	4f 00 00 00 	andi $5,$5,255
  41012c:	ff 00 05 05 
  410130:	05 00 00 00 	beq $6,$0,410170 <memchr+0x50>
  410134:	0e 00 00 06 
  410138:	4f 00 00 00 	andi $2,$4,3
  41013c:	03 00 02 04 
  410140:	05 00 00 00 	beq $2,$0,410170 <memchr+0x50>
  410144:	0a 00 00 02 
  410148:	22 00 00 00 	lbu $2,0($4)
  41014c:	00 00 02 04 
  410150:	05 00 00 00 	beq $2,$5,4102c8 <memchr+0x1a8>
  410154:	5c 00 05 02 
  410158:	43 00 00 00 	addiu $6,$6,-1
  41015c:	ff ff 06 06 
  410160:	43 00 00 00 	addiu $4,$4,1
  410164:	01 00 04 04 
  410168:	06 00 00 00 	bne $6,$0,410138 <memchr+0x18>
  41016c:	f2 ff 00 06 
  410170:	42 00 00 00 	addu $7,$0,$4
  410174:	00 07 04 00 
  410178:	a2 00 00 00 	lui $10,32510
  41017c:	fe 7e 0a 00 
  410180:	51 00 00 00 	ori $10,$10,65279
  410184:	ff fe 0a 0a 
  410188:	55 00 00 00 	sll $2,$5,0x8
  41018c:	08 02 05 00 
  410190:	50 00 00 00 	or $8,$5,$2
  410194:	00 08 02 05 
  410198:	55 00 00 00 	sll $2,$8,0x10
  41019c:	10 02 08 00 
  4101a0:	50 00 00 00 	or $8,$8,$2
  4101a4:	00 08 02 08 
  4101a8:	5e 00 00 00 	sltiu $2,$6,4
  4101ac:	04 00 02 06 
  4101b0:	06 00 00 00 	bne $2,$0,4102a8 <memchr+0x188>
  4101b4:	3c 00 00 02 
  4101b8:	a2 00 00 00 	lui $9,33025
  4101bc:	01 81 09 00 
  4101c0:	51 00 00 00 	ori $9,$9,256
  4101c4:	00 01 09 09 
  4101c8:	43 00 00 00 	addiu $4,$4,-1
  4101cc:	ff ff 04 04 
  4101d0:	28 00 00 00 	lw $3,0($7)
  4101d4:	00 00 03 07 
  4101d8:	43 00 00 00 	addiu $4,$4,4
  4101dc:	04 00 04 04 
  4101e0:	43 00 00 00 	addiu $7,$7,4
  4101e4:	04 00 07 07 
  4101e8:	52 00 00 00 	xor $3,$8,$3
  4101ec:	00 03 03 08 
  4101f0:	42 00 00 00 	addu $2,$3,$10
  4101f4:	00 02 0a 03 
  4101f8:	54 00 00 00 	nor $3,$0,$3
  4101fc:	00 03 03 00 
  410200:	52 00 00 00 	xor $2,$2,$3
  410204:	00 02 03 02 
  410208:	4e 00 00 00 	and $2,$2,$9
  41020c:	00 02 09 02 
  410210:	05 00 00 00 	beq $2,$0,410290 <memchr+0x170>
  410214:	1e 00 00 02 
  410218:	22 00 00 00 	lbu $2,-3($4)
  41021c:	fd ff 02 04 
  410220:	43 00 00 00 	addiu $3,$7,-4
  410224:	fc ff 03 07 
  410228:	06 00 00 00 	bne $2,$5,410240 <memchr+0x120>
  41022c:	04 00 05 02 
  410230:	42 00 00 00 	addu $2,$0,$3
  410234:	00 02 03 00 
  410238:	01 00 00 00 	j 410300 <memchr+0x1e0>
  41023c:	c0 40 10 00 
  410240:	22 00 00 00 	lbu $2,-2($4)
  410244:	fe ff 02 04 
  410248:	06 00 00 00 	bne $2,$5,410260 <memchr+0x140>
  41024c:	04 00 05 02 
  410250:	43 00 00 00 	addiu $2,$7,-3
  410254:	fd ff 02 07 
  410258:	01 00 00 00 	j 410300 <memchr+0x1e0>
  41025c:	c0 40 10 00 
  410260:	22 00 00 00 	lbu $2,-1($4)
  410264:	ff ff 02 04 
  410268:	06 00 00 00 	bne $2,$5,410280 <memchr+0x160>
  41026c:	04 00 05 02 
  410270:	43 00 00 00 	addiu $2,$7,-2
  410274:	fe ff 02 07 
  410278:	01 00 00 00 	j 410300 <memchr+0x1e0>
  41027c:	c0 40 10 00 
  410280:	22 00 00 00 	lbu $2,0($4)
  410284:	00 00 02 04 
  410288:	05 00 00 00 	beq $2,$5,4102c8 <memchr+0x1a8>
  41028c:	0e 00 05 02 
  410290:	43 00 00 00 	addiu $6,$6,-4
  410294:	fc ff 06 06 
  410298:	5e 00 00 00 	sltiu $2,$6,4
  41029c:	04 00 02 06 
  4102a0:	05 00 00 00 	beq $2,$0,4101d0 <memchr+0xb0>
  4102a4:	ca ff 00 02 
  4102a8:	42 00 00 00 	addu $4,$0,$7
  4102ac:	00 04 07 00 
  4102b0:	01 00 00 00 	j 4102e0 <memchr+0x1c0>
  4102b4:	b8 40 10 00 
  4102b8:	22 00 00 00 	lbu $2,0($4)
  4102bc:	00 00 02 04 
  4102c0:	06 00 00 00 	bne $2,$5,4102d8 <memchr+0x1b8>
  4102c4:	04 00 05 02 
  4102c8:	42 00 00 00 	addu $2,$0,$4
  4102cc:	00 02 04 00 
  4102d0:	01 00 00 00 	j 410300 <memchr+0x1e0>
  4102d4:	c0 40 10 00 
  4102d8:	43 00 00 00 	addiu $4,$4,1
  4102dc:	01 00 04 04 
  4102e0:	42 00 00 00 	addu $2,$0,$6
  4102e4:	00 02 06 00 
  4102e8:	43 00 00 00 	addiu $6,$6,-1
  4102ec:	ff ff 06 06 
  4102f0:	06 00 00 00 	bne $2,$0,4102b8 <memchr+0x198>
  4102f4:	f0 ff 00 02 
  4102f8:	42 00 00 00 	addu $2,$0,$0
  4102fc:	00 02 00 00 
  410300:	43 00 00 00 	addiu $29,$29,16
  410304:	10 00 1d 1d 
  410308:	03 00 00 00 	jr $31
  41030c:	00 00 00 1f 

00410310 <__isnan>:
  410310:	a3 00 00 00 	mfc1 $4,$f12
  410314:	00 00 04 0c 
  410318:	a3 00 00 00 	mfc1 $5,$f13
  41031c:	00 00 05 0d 
  410320:	42 00 00 00 	addu $6,$0,$0
  410324:	00 06 00 00 
  410328:	43 00 00 00 	addiu $3,$0,2047
  41032c:	ff 07 03 00 
  410330:	57 00 00 00 	srl $2,$5,0x14
  410334:	14 02 05 00 
  410338:	4f 00 00 00 	andi $2,$2,2047
  41033c:	ff 07 02 02 
  410340:	06 00 00 00 	bne $2,$3,410378 <__isnan+0x68>
  410344:	0c 00 03 02 
  410348:	a2 00 00 00 	lui $2,15
  41034c:	0f 00 02 00 
  410350:	51 00 00 00 	ori $2,$2,65535
  410354:	ff ff 02 02 
  410358:	4e 00 00 00 	and $2,$5,$2
  41035c:	00 02 02 05 
  410360:	06 00 00 00 	bne $2,$0,410370 <__isnan+0x60>
  410364:	02 00 00 02 
  410368:	05 00 00 00 	beq $4,$0,410378 <__isnan+0x68>
  41036c:	02 00 00 04 
  410370:	43 00 00 00 	addiu $6,$0,1
  410374:	01 00 06 00 
  410378:	42 00 00 00 	addu $2,$0,$6
  41037c:	00 02 06 00 
  410380:	03 00 00 00 	jr $31
  410384:	00 00 00 1f 
	...

00410390 <__isinf>:
  410390:	a3 00 00 00 	mfc1 $4,$f12
  410394:	00 00 04 0c 
  410398:	a3 00 00 00 	mfc1 $5,$f13
  41039c:	00 00 05 0d 
  4103a0:	a2 00 00 00 	lui $2,32767
  4103a4:	ff 7f 02 00 
  4103a8:	51 00 00 00 	ori $2,$2,65535
  4103ac:	ff ff 02 02 
  4103b0:	a2 00 00 00 	lui $3,32752
  4103b4:	f0 7f 03 00 
  4103b8:	4e 00 00 00 	and $2,$5,$2
  4103bc:	00 02 02 05 
  4103c0:	06 00 00 00 	bne $2,$3,4103f0 <__isinf+0x60>
  4103c4:	0a 00 03 02 
  4103c8:	06 00 00 00 	bne $4,$0,4103f0 <__isinf+0x60>
  4103cc:	08 00 00 04 
  4103d0:	43 00 00 00 	addiu $2,$0,1
  4103d4:	01 00 02 00 
  4103d8:	0a 00 00 00 	bgez $5,4103f8 <__isinf+0x68>
  4103dc:	06 00 00 05 
  4103e0:	43 00 00 00 	addiu $2,$0,-1
  4103e4:	ff ff 02 00 
  4103e8:	01 00 00 00 	j 4103f8 <__isinf+0x68>
  4103ec:	fe 40 10 00 
  4103f0:	42 00 00 00 	addu $2,$0,$0
  4103f4:	00 02 00 00 
  4103f8:	03 00 00 00 	jr $31
  4103fc:	00 00 00 1f 

00410400 <__mpn_extract_double>:
  410400:	42 00 00 00 	addu $8,$0,$4
  410404:	00 08 04 00 
  410408:	28 00 00 00 	lw $4,16($29)
  41040c:	10 00 04 1d 
  410410:	28 00 00 00 	lw $5,20($29)
  410414:	14 00 05 1d 
  410418:	a2 00 00 00 	lui $3,15
  41041c:	0f 00 03 00 
  410420:	51 00 00 00 	ori $3,$3,65535
  410424:	ff ff 03 03 
  410428:	57 00 00 00 	srl $2,$5,0x1f
  41042c:	1f 02 05 00 
  410430:	34 00 00 00 	sw $2,0($7)
  410434:	00 00 02 07 
  410438:	57 00 00 00 	srl $2,$5,0x14
  41043c:	14 02 05 00 
  410440:	4f 00 00 00 	andi $2,$2,2047
  410444:	ff 07 02 02 
  410448:	43 00 00 00 	addiu $2,$2,-1022
  41044c:	02 fc 02 02 
  410450:	4e 00 00 00 	and $3,$5,$3
  410454:	00 03 03 05 
  410458:	34 00 00 00 	sw $2,0($6)
  41045c:	00 00 02 06 
  410460:	a2 00 00 00 	lui $2,32752
  410464:	f0 7f 02 00 
  410468:	4e 00 00 00 	and $2,$5,$2
  41046c:	00 02 02 05 
  410470:	34 00 00 00 	sw $4,0($8)
  410474:	00 00 04 08 
  410478:	34 00 00 00 	sw $3,4($8)
  41047c:	04 00 03 08 
  410480:	06 00 00 00 	bne $2,$0,4104d0 <__mpn_extract_double+0xd0>
  410484:	12 00 00 02 
  410488:	28 00 00 00 	lw $2,0($8)
  41048c:	00 00 02 08 
  410490:	06 00 00 00 	bne $2,$0,4104a0 <__mpn_extract_double+0xa0>
  410494:	02 00 00 02 
  410498:	05 00 00 00 	beq $3,$0,4104c0 <__mpn_extract_double+0xc0>
  41049c:	08 00 00 03 
  4104a0:	43 00 00 00 	addiu $2,$0,-1021
  4104a4:	03 fc 02 00 
  4104a8:	34 00 00 00 	sw $2,0($6)
  4104ac:	00 00 02 06 
  4104b0:	28 00 00 00 	lw $2,4($8)
  4104b4:	04 00 02 08 
  4104b8:	06 00 00 00 	bne $2,$0,4104e8 <__mpn_extract_double+0xe8>
  4104bc:	0a 00 00 02 
  4104c0:	43 00 00 00 	addiu $2,$0,1
  4104c4:	01 00 02 00 
  4104c8:	01 00 00 00 	j 4104f0 <__mpn_extract_double+0xf0>
  4104cc:	3c 41 10 00 
  4104d0:	a2 00 00 00 	lui $2,16
  4104d4:	10 00 02 00 
  4104d8:	50 00 00 00 	or $2,$3,$2
  4104dc:	00 02 02 03 
  4104e0:	34 00 00 00 	sw $2,4($8)
  4104e4:	04 00 02 08 
  4104e8:	43 00 00 00 	addiu $2,$0,2
  4104ec:	02 00 02 00 
  4104f0:	03 00 00 00 	jr $31
  4104f4:	00 00 00 1f 
	...

00410500 <__mpn_lshift>:
  410500:	43 00 00 00 	addiu $6,$6,-1
  410504:	ff ff 06 06 
  410508:	55 00 00 00 	sll $2,$6,0x2
  41050c:	02 02 06 00 
  410510:	42 00 00 00 	addu $2,$2,$5
  410514:	00 02 05 02 
  410518:	28 00 00 00 	lw $2,0($2)
  41051c:	00 00 02 02 
  410520:	43 00 00 00 	addiu $6,$6,-1
  410524:	ff ff 06 06 
  410528:	43 00 00 00 	addiu $4,$4,4
  41052c:	04 00 04 04 
  410530:	42 00 00 00 	addu $8,$0,$2
  410534:	00 08 02 00 
  410538:	43 00 00 00 	addiu $2,$0,32
  41053c:	20 00 02 00 
  410540:	45 00 00 00 	subu $10,$2,$7
  410544:	00 0a 07 02 
  410548:	58 00 00 00 	srlv $11,$8,$10
  41054c:	00 0b 08 0a 
  410550:	09 00 00 00 	bltz $6,4105c0 <__mpn_lshift+0xc0>
  410554:	1a 00 00 06 
  410558:	55 00 00 00 	sll $2,$6,0x2
  41055c:	02 02 06 00 
  410560:	42 00 00 00 	addu $9,$2,$4
  410564:	00 09 04 02 
  410568:	42 00 00 00 	addu $5,$2,$5
  41056c:	00 05 05 02 
  410570:	28 00 00 00 	lw $2,0($5)
  410574:	00 00 02 05 
  410578:	43 00 00 00 	addiu $6,$6,-1
  41057c:	ff ff 06 06 
  410580:	56 00 00 00 	sllv $3,$8,$7
  410584:	00 03 08 07 
  410588:	42 00 00 00 	addu $8,$0,$2
  41058c:	00 08 02 00 
  410590:	58 00 00 00 	srlv $2,$8,$10
  410594:	00 02 08 0a 
  410598:	50 00 00 00 	or $3,$3,$2
  41059c:	00 03 02 03 
  4105a0:	34 00 00 00 	sw $3,0($9)
  4105a4:	00 00 03 09 
  4105a8:	43 00 00 00 	addiu $9,$9,-4
  4105ac:	fc ff 09 09 
  4105b0:	43 00 00 00 	addiu $5,$5,-4
  4105b4:	fc ff 05 05 
  4105b8:	0a 00 00 00 	bgez $6,410570 <__mpn_lshift+0x70>
  4105bc:	ec ff 00 06 
  4105c0:	55 00 00 00 	sll $2,$6,0x2
  4105c4:	02 02 06 00 
  4105c8:	42 00 00 00 	addu $2,$2,$4
  4105cc:	00 02 04 02 
  4105d0:	56 00 00 00 	sllv $3,$8,$7
  4105d4:	00 03 08 07 
  4105d8:	34 00 00 00 	sw $3,0($2)
  4105dc:	00 00 03 02 
  4105e0:	42 00 00 00 	addu $2,$0,$11
  4105e4:	00 02 0b 00 
  4105e8:	03 00 00 00 	jr $31
  4105ec:	00 00 00 1f 

004105f0 <__mpn_cmp>:
  4105f0:	43 00 00 00 	addiu $6,$6,-1
  4105f4:	ff ff 06 06 
  4105f8:	09 00 00 00 	bltz $6,410650 <__mpn_cmp+0x60>
  4105fc:	14 00 00 06 
  410600:	55 00 00 00 	sll $2,$6,0x2
  410604:	02 02 06 00 
  410608:	42 00 00 00 	addu $5,$2,$5
  41060c:	00 05 05 02 
  410610:	42 00 00 00 	addu $4,$2,$4
  410614:	00 04 04 02 
  410618:	28 00 00 00 	lw $3,0($4)
  41061c:	00 00 03 04 
  410620:	28 00 00 00 	lw $2,0($5)
  410624:	00 00 02 05 
  410628:	06 00 00 00 	bne $3,$2,410660 <__mpn_cmp+0x70>
  41062c:	0c 00 02 03 
  410630:	43 00 00 00 	addiu $5,$5,-4
  410634:	fc ff 05 05 
  410638:	43 00 00 00 	addiu $4,$4,-4
  41063c:	fc ff 04 04 
  410640:	43 00 00 00 	addiu $6,$6,-1
  410644:	ff ff 06 06 
  410648:	0a 00 00 00 	bgez $6,410618 <__mpn_cmp+0x28>
  41064c:	f2 ff 00 06 
  410650:	42 00 00 00 	addu $2,$0,$0
  410654:	00 02 00 00 
  410658:	01 00 00 00 	j 410688 <__mpn_cmp+0x98>
  41065c:	a2 41 10 00 
  410660:	43 00 00 00 	addiu $4,$0,-1
  410664:	ff ff 04 00 
  410668:	5d 00 00 00 	sltu $2,$2,$3
  41066c:	00 02 03 02 
  410670:	05 00 00 00 	beq $2,$0,410680 <__mpn_cmp+0x90>
  410674:	02 00 00 02 
  410678:	43 00 00 00 	addiu $4,$0,1
  41067c:	01 00 04 00 
  410680:	42 00 00 00 	addu $2,$0,$4
  410684:	00 02 04 00 
  410688:	03 00 00 00 	jr $31
  41068c:	00 00 00 1f 

00410690 <__mpn_divmod_1>:
  410690:	43 00 00 00 	addiu $29,$29,-8
  410694:	f8 ff 1d 1d 
  410698:	34 00 00 00 	sw $17,4($29)
  41069c:	04 00 11 1d 
  4106a0:	42 00 00 00 	addu $17,$0,$4
  4106a4:	00 11 04 00 
  4106a8:	34 00 00 00 	sw $16,0($29)
  4106ac:	00 00 10 1d 
  4106b0:	06 00 00 00 	bne $6,$0,4106c8 <__mpn_divmod_1+0x38>
  4106b4:	04 00 00 06 
  4106b8:	42 00 00 00 	addu $2,$0,$0
  4106bc:	00 02 00 00 
  4106c0:	01 00 00 00 	j 4114e8 <__mpn_divmod_1+0xe58>
  4106c4:	3a 45 10 00 
  4106c8:	55 00 00 00 	sll $2,$6,0x3
  4106cc:	03 02 06 00 
  4106d0:	42 00 00 00 	addu $2,$2,$6
  4106d4:	00 02 06 02 
  4106d8:	55 00 00 00 	sll $2,$2,0x2
  4106dc:	02 02 02 00 
  4106e0:	42 00 00 00 	addu $2,$2,$6
  4106e4:	00 02 06 02 
  4106e8:	55 00 00 00 	sll $2,$2,0x1
  4106ec:	01 02 02 00 
  4106f0:	5c 00 00 00 	slti $2,$2,101
  4106f4:	65 00 02 02 
  4106f8:	06 00 00 00 	bne $2,$0,410e48 <__mpn_divmod_1+0x7b8>
  4106fc:	d2 01 00 02 
  410700:	42 00 00 00 	addu $4,$0,$7
  410704:	00 04 07 00 
  410708:	51 00 00 00 	ori $2,$0,65535
  41070c:	ff ff 02 00 
  410710:	5d 00 00 00 	sltu $2,$2,$7
  410714:	00 02 07 02 
  410718:	06 00 00 00 	bne $2,$0,410740 <__mpn_divmod_1+0xb0>
  41071c:	08 00 00 02 
  410720:	5e 00 00 00 	sltiu $2,$7,256
  410724:	00 01 02 07 
  410728:	53 00 00 00 	xori $2,$2,1
  41072c:	01 00 02 02 
  410730:	55 00 00 00 	sll $3,$2,0x3
  410734:	03 03 02 00 
  410738:	01 00 00 00 	j 410770 <__mpn_divmod_1+0xe0>
  41073c:	dc 41 10 00 
  410740:	a2 00 00 00 	lui $2,255
  410744:	ff 00 02 00 
  410748:	51 00 00 00 	ori $2,$2,65535
  41074c:	ff ff 02 02 
  410750:	43 00 00 00 	addiu $3,$0,24
  410754:	18 00 03 00 
  410758:	5d 00 00 00 	sltu $2,$2,$7
  41075c:	00 02 07 02 
  410760:	06 00 00 00 	bne $2,$0,410770 <__mpn_divmod_1+0xe0>
  410764:	02 00 00 02 
  410768:	43 00 00 00 	addiu $3,$0,16
  41076c:	10 00 03 00 
  410770:	58 00 00 00 	srlv $2,$4,$3
  410774:	00 02 04 03 
  410778:	a2 00 00 00 	lui $1,4096
  41077c:	00 10 01 00 
  410780:	42 00 00 00 	addu $1,$1,$2
  410784:	00 01 02 01 
  410788:	22 00 00 00 	lbu $2,7552($1)
  41078c:	80 1d 02 01 
  410790:	42 00 00 00 	addu $2,$2,$3
  410794:	00 02 03 02 
  410798:	43 00 00 00 	addiu $3,$0,32
  41079c:	20 00 03 00 
  4107a0:	45 00 00 00 	subu $15,$3,$2
  4107a4:	00 0f 02 03 
  4107a8:	05 00 00 00 	beq $15,$0,410b60 <__mpn_divmod_1+0x4d0>
  4107ac:	ec 00 00 0f 
  4107b0:	56 00 00 00 	sllv $7,$7,$15
  4107b4:	00 07 07 0f 
  4107b8:	57 00 00 00 	srl $4,$7,0x10
  4107bc:	10 04 07 00 
  4107c0:	45 00 00 00 	subu $2,$0,$7
  4107c4:	00 02 07 00 
  4107c8:	49 00 00 00 	divu $0,$2,$4
  4107cc:	00 00 04 02 
  4107d0:	06 00 00 00 	bne $4,$0,4107e0 <__mpn_divmod_1+0x150>
  4107d4:	02 00 00 04 
  4107d8:	a1 00 00 00 	break 
  4107dc:	07 00 00 00 
  4107e0:	4c 00 00 00 	mflo $9
  4107e4:	00 09 00 00 
  4107e8:	4a 00 00 00 	mfhi $3
  4107ec:	00 03 00 00 
  4107f0:	4f 00 00 00 	andi $10,$7,65535
  4107f4:	ff ff 0a 07 
  4107f8:	46 00 00 00 	mult $9,$10
  4107fc:	00 00 0a 09 
  410800:	4c 00 00 00 	mflo $8
  410804:	00 08 00 00 
  410808:	55 00 00 00 	sll $3,$3,0x10
  41080c:	10 03 03 00 
  410810:	5d 00 00 00 	sltu $2,$3,$8
  410814:	00 02 08 03 
  410818:	05 00 00 00 	beq $2,$0,410860 <__mpn_divmod_1+0x1d0>
  41081c:	10 00 00 02 
  410820:	43 00 00 00 	addiu $9,$9,-1
  410824:	ff ff 09 09 
  410828:	42 00 00 00 	addu $3,$3,$7
  41082c:	00 03 07 03 
  410830:	5d 00 00 00 	sltu $2,$3,$7
  410834:	00 02 07 03 
  410838:	06 00 00 00 	bne $2,$0,410860 <__mpn_divmod_1+0x1d0>
  41083c:	08 00 00 02 
  410840:	5d 00 00 00 	sltu $2,$3,$8
  410844:	00 02 08 03 
  410848:	05 00 00 00 	beq $2,$0,410860 <__mpn_divmod_1+0x1d0>
  41084c:	04 00 00 02 
  410850:	43 00 00 00 	addiu $9,$9,-1
  410854:	ff ff 09 09 
  410858:	42 00 00 00 	addu $3,$3,$7
  41085c:	00 03 07 03 
  410860:	45 00 00 00 	subu $3,$3,$8
  410864:	00 03 08 03 
  410868:	49 00 00 00 	divu $0,$3,$4
  41086c:	00 00 04 03 
  410870:	06 00 00 00 	bne $4,$0,410880 <__mpn_divmod_1+0x1f0>
  410874:	02 00 00 04 
  410878:	a1 00 00 00 	break 
  41087c:	07 00 00 00 
  410880:	4c 00 00 00 	mflo $4
  410884:	00 04 00 00 
  410888:	4a 00 00 00 	mfhi $3
  41088c:	00 03 00 00 
  410890:	46 00 00 00 	mult $4,$10
  410894:	00 00 0a 04 
  410898:	4c 00 00 00 	mflo $8
  41089c:	00 08 00 00 
  4108a0:	55 00 00 00 	sll $3,$3,0x10
  4108a4:	10 03 03 00 
  4108a8:	5d 00 00 00 	sltu $2,$3,$8
  4108ac:	00 02 08 03 
  4108b0:	05 00 00 00 	beq $2,$0,4108f0 <__mpn_divmod_1+0x260>
  4108b4:	0e 00 00 02 
  4108b8:	43 00 00 00 	addiu $4,$4,-1
  4108bc:	ff ff 04 04 
  4108c0:	42 00 00 00 	addu $3,$3,$7
  4108c4:	00 03 07 03 
  4108c8:	5d 00 00 00 	sltu $2,$3,$7
  4108cc:	00 02 07 03 
  4108d0:	06 00 00 00 	bne $2,$0,4108f0 <__mpn_divmod_1+0x260>
  4108d4:	06 00 00 02 
  4108d8:	5d 00 00 00 	sltu $2,$3,$8
  4108dc:	00 02 08 03 
  4108e0:	05 00 00 00 	beq $2,$0,4108f0 <__mpn_divmod_1+0x260>
  4108e4:	02 00 00 02 
  4108e8:	43 00 00 00 	addiu $4,$4,-1
  4108ec:	ff ff 04 04 
  4108f0:	55 00 00 00 	sll $2,$9,0x10
  4108f4:	10 02 09 00 
  4108f8:	50 00 00 00 	or $9,$2,$4
  4108fc:	00 09 04 02 
  410900:	55 00 00 00 	sll $2,$6,0x2
  410904:	02 02 06 00 
  410908:	42 00 00 00 	addu $2,$2,$5
  41090c:	00 02 05 02 
  410910:	28 00 00 00 	lw $12,-4($2)
  410914:	fc ff 0c 02 
  410918:	43 00 00 00 	addiu $6,$6,-2
  41091c:	fe ff 06 06 
  410920:	43 00 00 00 	addiu $2,$0,32
  410924:	20 00 02 00 
  410928:	45 00 00 00 	subu $2,$2,$15
  41092c:	00 02 0f 02 
  410930:	58 00 00 00 	srlv $10,$12,$2
  410934:	00 0a 0c 02 
  410938:	09 00 00 00 	bltz $6,410a78 <__mpn_divmod_1+0x3e8>
  41093c:	4e 00 00 06 
  410940:	42 00 00 00 	addu $24,$0,$2
  410944:	00 18 02 00 
  410948:	55 00 00 00 	sll $2,$6,0x2
  41094c:	02 02 06 00 
  410950:	42 00 00 00 	addu $13,$2,$17
  410954:	00 0d 11 02 
  410958:	42 00 00 00 	addu $14,$2,$5
  41095c:	00 0e 05 02 
  410960:	28 00 00 00 	lw $11,0($14)
  410964:	00 00 0b 0e 
  410968:	47 00 00 00 	multu $10,$9
  41096c:	00 00 09 0a 
  410970:	4c 00 00 00 	mflo $2
  410974:	00 02 00 00 
  410978:	4a 00 00 00 	mfhi $8
  41097c:	00 08 00 00 
  410980:	42 00 00 00 	addu $8,$8,$10
  410984:	00 08 0a 08 
  410988:	47 00 00 00 	multu $8,$7
  41098c:	00 00 07 08 
  410990:	4c 00 00 00 	mflo $4
  410994:	00 04 00 00 
  410998:	4a 00 00 00 	mfhi $5
  41099c:	00 05 00 00 
  4109a0:	56 00 00 00 	sllv $3,$12,$15
  4109a4:	00 03 0c 0f 
  4109a8:	45 00 00 00 	subu $5,$10,$5
  4109ac:	00 05 05 0a 
  4109b0:	58 00 00 00 	srlv $2,$11,$24
  4109b4:	00 02 0b 18 
  4109b8:	50 00 00 00 	or $3,$3,$2
  4109bc:	00 03 02 03 
  4109c0:	45 00 00 00 	subu $4,$3,$4
  4109c4:	00 04 04 03 
  4109c8:	5d 00 00 00 	sltu $3,$3,$4
  4109cc:	00 03 04 03 
  4109d0:	45 00 00 00 	subu $5,$5,$3
  4109d4:	00 05 03 05 
  4109d8:	05 00 00 00 	beq $5,$0,410a20 <__mpn_divmod_1+0x390>
  4109dc:	10 00 00 05 
  4109e0:	45 00 00 00 	subu $3,$4,$7
  4109e4:	00 03 07 04 
  4109e8:	5d 00 00 00 	sltu $2,$4,$3
  4109ec:	00 02 03 04 
  4109f0:	45 00 00 00 	subu $5,$5,$2
  4109f4:	00 05 02 05 
  4109f8:	42 00 00 00 	addu $4,$0,$3
  4109fc:	00 04 03 00 
  410a00:	43 00 00 00 	addiu $8,$8,1
  410a04:	01 00 08 08 
  410a08:	05 00 00 00 	beq $5,$0,410a20 <__mpn_divmod_1+0x390>
  410a0c:	04 00 00 05 
  410a10:	45 00 00 00 	subu $4,$4,$7
  410a14:	00 04 07 04 
  410a18:	43 00 00 00 	addiu $8,$8,1
  410a1c:	01 00 08 08 
  410a20:	5d 00 00 00 	sltu $2,$4,$7
  410a24:	00 02 07 04 
  410a28:	06 00 00 00 	bne $2,$0,410a40 <__mpn_divmod_1+0x3b0>
  410a2c:	04 00 00 02 
  410a30:	45 00 00 00 	subu $4,$4,$7
  410a34:	00 04 07 04 
  410a38:	43 00 00 00 	addiu $8,$8,1
  410a3c:	01 00 08 08 
  410a40:	42 00 00 00 	addu $10,$0,$4
  410a44:	00 0a 04 00 
  410a48:	34 00 00 00 	sw $8,4($13)
  410a4c:	04 00 08 0d 
  410a50:	42 00 00 00 	addu $12,$0,$11
  410a54:	00 0c 0b 00 
  410a58:	43 00 00 00 	addiu $13,$13,-4
  410a5c:	fc ff 0d 0d 
  410a60:	43 00 00 00 	addiu $14,$14,-4
  410a64:	fc ff 0e 0e 
  410a68:	43 00 00 00 	addiu $6,$6,-1
  410a6c:	ff ff 06 06 
  410a70:	0a 00 00 00 	bgez $6,410960 <__mpn_divmod_1+0x2d0>
  410a74:	ba ff 00 06 
  410a78:	47 00 00 00 	multu $10,$9
  410a7c:	00 00 09 0a 
  410a80:	4c 00 00 00 	mflo $2
  410a84:	00 02 00 00 
  410a88:	4a 00 00 00 	mfhi $6
  410a8c:	00 06 00 00 
  410a90:	42 00 00 00 	addu $6,$6,$10
  410a94:	00 06 0a 06 
  410a98:	47 00 00 00 	multu $6,$7
  410a9c:	00 00 07 06 
  410aa0:	4c 00 00 00 	mflo $3
  410aa4:	00 03 00 00 
  410aa8:	4a 00 00 00 	mfhi $4
  410aac:	00 04 00 00 
  410ab0:	56 00 00 00 	sllv $2,$12,$15
  410ab4:	00 02 0c 0f 
  410ab8:	45 00 00 00 	subu $3,$2,$3
  410abc:	00 03 03 02 
  410ac0:	45 00 00 00 	subu $4,$10,$4
  410ac4:	00 04 04 0a 
  410ac8:	5d 00 00 00 	sltu $2,$2,$3
  410acc:	00 02 03 02 
  410ad0:	45 00 00 00 	subu $4,$4,$2
  410ad4:	00 04 02 04 
  410ad8:	42 00 00 00 	addu $5,$0,$3
  410adc:	00 05 03 00 
  410ae0:	05 00 00 00 	beq $4,$0,410b28 <__mpn_divmod_1+0x498>
  410ae4:	10 00 00 04 
  410ae8:	45 00 00 00 	subu $3,$5,$7
  410aec:	00 03 07 05 
  410af0:	5d 00 00 00 	sltu $2,$5,$3
  410af4:	00 02 03 05 
  410af8:	45 00 00 00 	subu $4,$4,$2
  410afc:	00 04 02 04 
  410b00:	42 00 00 00 	addu $5,$0,$3
  410b04:	00 05 03 00 
  410b08:	43 00 00 00 	addiu $6,$6,1
  410b0c:	01 00 06 06 
  410b10:	05 00 00 00 	beq $4,$0,410b28 <__mpn_divmod_1+0x498>
  410b14:	04 00 00 04 
  410b18:	45 00 00 00 	subu $5,$5,$7
  410b1c:	00 05 07 05 
  410b20:	43 00 00 00 	addiu $6,$6,1
  410b24:	01 00 06 06 
  410b28:	5d 00 00 00 	sltu $2,$5,$7
  410b2c:	00 02 07 05 
  410b30:	06 00 00 00 	bne $2,$0,410b48 <__mpn_divmod_1+0x4b8>
  410b34:	04 00 00 02 
  410b38:	45 00 00 00 	subu $5,$5,$7
  410b3c:	00 05 07 05 
  410b40:	43 00 00 00 	addiu $6,$6,1
  410b44:	01 00 06 06 
  410b48:	34 00 00 00 	sw $6,0($17)
  410b4c:	00 00 06 11 
  410b50:	58 00 00 00 	srlv $2,$5,$15
  410b54:	00 02 05 0f 
  410b58:	01 00 00 00 	j 4114e8 <__mpn_divmod_1+0xe58>
  410b5c:	3a 45 10 00 
  410b60:	55 00 00 00 	sll $2,$7,0x1
  410b64:	01 02 07 00 
  410b68:	06 00 00 00 	bne $2,$0,410b80 <__mpn_divmod_1+0x4f0>
  410b6c:	04 00 00 02 
  410b70:	43 00 00 00 	addiu $13,$0,-1
  410b74:	ff ff 0d 00 
  410b78:	01 00 00 00 	j 410cc8 <__mpn_divmod_1+0x638>
  410b7c:	32 43 10 00 
  410b80:	57 00 00 00 	srl $4,$7,0x10
  410b84:	10 04 07 00 
  410b88:	45 00 00 00 	subu $2,$0,$7
  410b8c:	00 02 07 00 
  410b90:	49 00 00 00 	divu $0,$2,$4
  410b94:	00 00 04 02 
  410b98:	06 00 00 00 	bne $4,$0,410ba8 <__mpn_divmod_1+0x518>
  410b9c:	02 00 00 04 
  410ba0:	a1 00 00 00 	break 
  410ba4:	07 00 00 00 
  410ba8:	4c 00 00 00 	mflo $9
  410bac:	00 09 00 00 
  410bb0:	4a 00 00 00 	mfhi $3
  410bb4:	00 03 00 00 
  410bb8:	4f 00 00 00 	andi $10,$7,65535
  410bbc:	ff ff 0a 07 
  410bc0:	46 00 00 00 	mult $9,$10
  410bc4:	00 00 0a 09 
  410bc8:	4c 00 00 00 	mflo $8
  410bcc:	00 08 00 00 
  410bd0:	55 00 00 00 	sll $3,$3,0x10
  410bd4:	10 03 03 00 
  410bd8:	5d 00 00 00 	sltu $2,$3,$8
  410bdc:	00 02 08 03 
  410be0:	05 00 00 00 	beq $2,$0,410c28 <__mpn_divmod_1+0x598>
  410be4:	10 00 00 02 
  410be8:	43 00 00 00 	addiu $9,$9,-1
  410bec:	ff ff 09 09 
  410bf0:	42 00 00 00 	addu $3,$3,$7
  410bf4:	00 03 07 03 
  410bf8:	5d 00 00 00 	sltu $2,$3,$7
  410bfc:	00 02 07 03 
  410c00:	06 00 00 00 	bne $2,$0,410c28 <__mpn_divmod_1+0x598>
  410c04:	08 00 00 02 
  410c08:	5d 00 00 00 	sltu $2,$3,$8
  410c0c:	00 02 08 03 
  410c10:	05 00 00 00 	beq $2,$0,410c28 <__mpn_divmod_1+0x598>
  410c14:	04 00 00 02 
  410c18:	43 00 00 00 	addiu $9,$9,-1
  410c1c:	ff ff 09 09 
  410c20:	42 00 00 00 	addu $3,$3,$7
  410c24:	00 03 07 03 
  410c28:	45 00 00 00 	subu $3,$3,$8
  410c2c:	00 03 08 03 
  410c30:	49 00 00 00 	divu $0,$3,$4
  410c34:	00 00 04 03 
  410c38:	06 00 00 00 	bne $4,$0,410c48 <__mpn_divmod_1+0x5b8>
  410c3c:	02 00 00 04 
  410c40:	a1 00 00 00 	break 
  410c44:	07 00 00 00 
  410c48:	4c 00 00 00 	mflo $4
  410c4c:	00 04 00 00 
  410c50:	4a 00 00 00 	mfhi $3
  410c54:	00 03 00 00 
  410c58:	46 00 00 00 	mult $4,$10
  410c5c:	00 00 0a 04 
  410c60:	4c 00 00 00 	mflo $8
  410c64:	00 08 00 00 
  410c68:	55 00 00 00 	sll $3,$3,0x10
  410c6c:	10 03 03 00 
  410c70:	5d 00 00 00 	sltu $2,$3,$8
  410c74:	00 02 08 03 
  410c78:	05 00 00 00 	beq $2,$0,410cb8 <__mpn_divmod_1+0x628>
  410c7c:	0e 00 00 02 
  410c80:	43 00 00 00 	addiu $4,$4,-1
  410c84:	ff ff 04 04 
  410c88:	42 00 00 00 	addu $3,$3,$7
  410c8c:	00 03 07 03 
  410c90:	5d 00 00 00 	sltu $2,$3,$7
  410c94:	00 02 07 03 
  410c98:	06 00 00 00 	bne $2,$0,410cb8 <__mpn_divmod_1+0x628>
  410c9c:	06 00 00 02 
  410ca0:	5d 00 00 00 	sltu $2,$3,$8
  410ca4:	00 02 08 03 
  410ca8:	05 00 00 00 	beq $2,$0,410cb8 <__mpn_divmod_1+0x628>
  410cac:	02 00 00 02 
  410cb0:	43 00 00 00 	addiu $4,$4,-1
  410cb4:	ff ff 04 04 
  410cb8:	55 00 00 00 	sll $2,$9,0x10
  410cbc:	10 02 09 00 
  410cc0:	50 00 00 00 	or $13,$2,$4
  410cc4:	00 0d 04 02 
  410cc8:	43 00 00 00 	addiu $6,$6,-1
  410ccc:	ff ff 06 06 
  410cd0:	55 00 00 00 	sll $3,$6,0x2
  410cd4:	02 03 06 00 
  410cd8:	42 00 00 00 	addu $2,$3,$5
  410cdc:	00 02 05 03 
  410ce0:	28 00 00 00 	lw $10,0($2)
  410ce4:	00 00 0a 02 
  410ce8:	5d 00 00 00 	sltu $2,$10,$7
  410cec:	00 02 07 0a 
  410cf0:	06 00 00 00 	bne $2,$0,410d08 <__mpn_divmod_1+0x678>
  410cf4:	04 00 00 02 
  410cf8:	42 00 00 00 	addu $10,$0,$0
  410cfc:	00 0a 00 00 
  410d00:	01 00 00 00 	j 410d20 <__mpn_divmod_1+0x690>
  410d04:	48 43 10 00 
  410d08:	42 00 00 00 	addu $2,$3,$17
  410d0c:	00 02 11 03 
  410d10:	34 00 00 00 	sw $0,0($2)
  410d14:	00 00 00 02 
  410d18:	43 00 00 00 	addiu $6,$6,-1
  410d1c:	ff ff 06 06 
  410d20:	09 00 00 00 	bltz $6,4114e0 <__mpn_divmod_1+0xe50>
  410d24:	ee 01 00 06 
  410d28:	55 00 00 00 	sll $2,$6,0x2
  410d2c:	02 02 06 00 
  410d30:	42 00 00 00 	addu $12,$2,$17
  410d34:	00 0c 11 02 
  410d38:	42 00 00 00 	addu $5,$2,$5
  410d3c:	00 05 05 02 
  410d40:	28 00 00 00 	lw $11,0($5)
  410d44:	00 00 0b 05 
  410d48:	47 00 00 00 	multu $10,$13
  410d4c:	00 00 0d 0a 
  410d50:	4c 00 00 00 	mflo $2
  410d54:	00 02 00 00 
  410d58:	4a 00 00 00 	mfhi $9
  410d5c:	00 09 00 00 
  410d60:	42 00 00 00 	addu $9,$9,$10
  410d64:	00 09 0a 09 
  410d68:	47 00 00 00 	multu $9,$7
  410d6c:	00 00 07 09 
  410d70:	4c 00 00 00 	mflo $3
  410d74:	00 03 00 00 
  410d78:	4a 00 00 00 	mfhi $4
  410d7c:	00 04 00 00 
  410d80:	45 00 00 00 	subu $3,$11,$3
  410d84:	00 03 03 0b 
  410d88:	45 00 00 00 	subu $4,$10,$4
  410d8c:	00 04 04 0a 
  410d90:	5d 00 00 00 	sltu $2,$11,$3
  410d94:	00 02 03 0b 
  410d98:	45 00 00 00 	subu $8,$4,$2
  410d9c:	00 08 02 04 
  410da0:	42 00 00 00 	addu $4,$0,$3
  410da4:	00 04 03 00 
  410da8:	05 00 00 00 	beq $8,$0,410df0 <__mpn_divmod_1+0x760>
  410dac:	10 00 00 08 
  410db0:	45 00 00 00 	subu $3,$4,$7
  410db4:	00 03 07 04 
  410db8:	5d 00 00 00 	sltu $2,$4,$3
  410dbc:	00 02 03 04 
  410dc0:	45 00 00 00 	subu $8,$8,$2
  410dc4:	00 08 02 08 
  410dc8:	42 00 00 00 	addu $4,$0,$3
  410dcc:	00 04 03 00 
  410dd0:	43 00 00 00 	addiu $9,$9,1
  410dd4:	01 00 09 09 
  410dd8:	05 00 00 00 	beq $8,$0,410df0 <__mpn_divmod_1+0x760>
  410ddc:	04 00 00 08 
  410de0:	45 00 00 00 	subu $4,$4,$7
  410de4:	00 04 07 04 
  410de8:	43 00 00 00 	addiu $9,$9,1
  410dec:	01 00 09 09 
  410df0:	5d 00 00 00 	sltu $2,$4,$7
  410df4:	00 02 07 04 
  410df8:	06 00 00 00 	bne $2,$0,410e10 <__mpn_divmod_1+0x780>
  410dfc:	04 00 00 02 
  410e00:	45 00 00 00 	subu $4,$4,$7
  410e04:	00 04 07 04 
  410e08:	43 00 00 00 	addiu $9,$9,1
  410e0c:	01 00 09 09 
  410e10:	42 00 00 00 	addu $10,$0,$4
  410e14:	00 0a 04 00 
  410e18:	34 00 00 00 	sw $9,0($12)
  410e1c:	00 00 09 0c 
  410e20:	43 00 00 00 	addiu $12,$12,-4
  410e24:	fc ff 0c 0c 
  410e28:	43 00 00 00 	addiu $5,$5,-4
  410e2c:	fc ff 05 05 
  410e30:	43 00 00 00 	addiu $6,$6,-1
  410e34:	ff ff 06 06 
  410e38:	0a 00 00 00 	bgez $6,410d40 <__mpn_divmod_1+0x6b0>
  410e3c:	c0 ff 00 06 
  410e40:	01 00 00 00 	j 4114e0 <__mpn_divmod_1+0xe50>
  410e44:	38 45 10 00 
  410e48:	42 00 00 00 	addu $4,$0,$7
  410e4c:	00 04 07 00 
  410e50:	51 00 00 00 	ori $2,$0,65535
  410e54:	ff ff 02 00 
  410e58:	5d 00 00 00 	sltu $2,$2,$7
  410e5c:	00 02 07 02 
  410e60:	06 00 00 00 	bne $2,$0,410e88 <__mpn_divmod_1+0x7f8>
  410e64:	08 00 00 02 
  410e68:	5e 00 00 00 	sltiu $2,$7,256
  410e6c:	00 01 02 07 
  410e70:	53 00 00 00 	xori $2,$2,1
  410e74:	01 00 02 02 
  410e78:	55 00 00 00 	sll $3,$2,0x3
  410e7c:	03 03 02 00 
  410e80:	01 00 00 00 	j 410eb8 <__mpn_divmod_1+0x828>
  410e84:	ae 43 10 00 
  410e88:	a2 00 00 00 	lui $2,255
  410e8c:	ff 00 02 00 
  410e90:	51 00 00 00 	ori $2,$2,65535
  410e94:	ff ff 02 02 
  410e98:	43 00 00 00 	addiu $3,$0,24
  410e9c:	18 00 03 00 
  410ea0:	5d 00 00 00 	sltu $2,$2,$7
  410ea4:	00 02 07 02 
  410ea8:	06 00 00 00 	bne $2,$0,410eb8 <__mpn_divmod_1+0x828>
  410eac:	02 00 00 02 
  410eb0:	43 00 00 00 	addiu $3,$0,16
  410eb4:	10 00 03 00 
  410eb8:	58 00 00 00 	srlv $2,$4,$3
  410ebc:	00 02 04 03 
  410ec0:	a2 00 00 00 	lui $1,4096
  410ec4:	00 10 01 00 
  410ec8:	42 00 00 00 	addu $1,$1,$2
  410ecc:	00 01 02 01 
  410ed0:	22 00 00 00 	lbu $2,7552($1)
  410ed4:	80 1d 02 01 
  410ed8:	42 00 00 00 	addu $2,$2,$3
  410edc:	00 02 03 02 
  410ee0:	43 00 00 00 	addiu $3,$0,32
  410ee4:	20 00 03 00 
  410ee8:	45 00 00 00 	subu $14,$3,$2
  410eec:	00 0e 02 03 
  410ef0:	05 00 00 00 	beq $14,$0,4112c8 <__mpn_divmod_1+0xc38>
  410ef4:	f4 00 00 0e 
  410ef8:	55 00 00 00 	sll $2,$6,0x2
  410efc:	02 02 06 00 
  410f00:	42 00 00 00 	addu $2,$2,$5
  410f04:	00 02 05 02 
  410f08:	28 00 00 00 	lw $12,-4($2)
  410f0c:	fc ff 0c 02 
  410f10:	56 00 00 00 	sllv $7,$7,$14
  410f14:	00 07 07 0e 
  410f18:	43 00 00 00 	addiu $6,$6,-2
  410f1c:	fe ff 06 06 
  410f20:	45 00 00 00 	subu $2,$3,$14
  410f24:	00 02 0e 03 
  410f28:	58 00 00 00 	srlv $10,$12,$2
  410f2c:	00 0a 0c 02 
  410f30:	09 00 00 00 	bltz $6,411130 <__mpn_divmod_1+0xaa0>
  410f34:	7e 00 00 06 
  410f38:	57 00 00 00 	srl $13,$7,0x10
  410f3c:	10 0d 07 00 
  410f40:	4f 00 00 00 	andi $16,$7,65535
  410f44:	ff ff 10 07 
  410f48:	42 00 00 00 	addu $25,$0,$2
  410f4c:	00 19 02 00 
  410f50:	55 00 00 00 	sll $2,$6,0x2
  410f54:	02 02 06 00 
  410f58:	42 00 00 00 	addu $15,$2,$17
  410f5c:	00 0f 11 02 
  410f60:	42 00 00 00 	addu $24,$2,$5
  410f64:	00 18 05 02 
  410f68:	28 00 00 00 	lw $11,0($24)
  410f6c:	00 00 0b 18 
  410f70:	49 00 00 00 	divu $0,$10,$13
  410f74:	00 00 0d 0a 
  410f78:	06 00 00 00 	bne $13,$0,410f88 <__mpn_divmod_1+0x8f8>
  410f7c:	02 00 00 0d 
  410f80:	a1 00 00 00 	break 
  410f84:	07 00 00 00 
  410f88:	4c 00 00 00 	mflo $9
  410f8c:	00 09 00 00 
  410f90:	4a 00 00 00 	mfhi $4
  410f94:	00 04 00 00 
  410f98:	46 00 00 00 	mult $9,$16
  410f9c:	00 00 10 09 
  410fa0:	55 00 00 00 	sll $4,$4,0x10
  410fa4:	10 04 04 00 
  410fa8:	56 00 00 00 	sllv $2,$12,$14
  410fac:	00 02 0c 0e 
  410fb0:	58 00 00 00 	srlv $3,$11,$25
  410fb4:	00 03 0b 19 
  410fb8:	50 00 00 00 	or $2,$2,$3
  410fbc:	00 02 03 02 
  410fc0:	4c 00 00 00 	mflo $5
  410fc4:	00 05 00 00 
  410fc8:	57 00 00 00 	srl $2,$2,0x10
  410fcc:	10 02 02 00 
  410fd0:	50 00 00 00 	or $4,$4,$2
  410fd4:	00 04 02 04 
  410fd8:	5d 00 00 00 	sltu $2,$4,$5
  410fdc:	00 02 05 04 
  410fe0:	05 00 00 00 	beq $2,$0,411028 <__mpn_divmod_1+0x998>
  410fe4:	10 00 00 02 
  410fe8:	43 00 00 00 	addiu $9,$9,-1
  410fec:	ff ff 09 09 
  410ff0:	42 00 00 00 	addu $4,$4,$7
  410ff4:	00 04 07 04 
  410ff8:	5d 00 00 00 	sltu $2,$4,$7
  410ffc:	00 02 07 04 
  411000:	06 00 00 00 	bne $2,$0,411028 <__mpn_divmod_1+0x998>
  411004:	08 00 00 02 
  411008:	5d 00 00 00 	sltu $2,$4,$5
  41100c:	00 02 05 04 
  411010:	05 00 00 00 	beq $2,$0,411028 <__mpn_divmod_1+0x998>
  411014:	04 00 00 02 
  411018:	43 00 00 00 	addiu $9,$9,-1
  41101c:	ff ff 09 09 
  411020:	42 00 00 00 	addu $4,$4,$7
  411024:	00 04 07 04 
  411028:	45 00 00 00 	subu $4,$4,$5
  41102c:	00 04 05 04 
  411030:	49 00 00 00 	divu $0,$4,$13
  411034:	00 00 0d 04 
  411038:	06 00 00 00 	bne $13,$0,411048 <__mpn_divmod_1+0x9b8>
  41103c:	02 00 00 0d 
  411040:	a1 00 00 00 	break 
  411044:	07 00 00 00 
  411048:	4c 00 00 00 	mflo $8
  41104c:	00 08 00 00 
  411050:	4a 00 00 00 	mfhi $3
  411054:	00 03 00 00 
  411058:	46 00 00 00 	mult $8,$16
  41105c:	00 00 10 08 
  411060:	56 00 00 00 	sllv $2,$12,$14
  411064:	00 02 0c 0e 
  411068:	55 00 00 00 	sll $4,$3,0x10
  41106c:	10 04 03 00 
  411070:	58 00 00 00 	srlv $3,$11,$25
  411074:	00 03 0b 19 
  411078:	50 00 00 00 	or $2,$2,$3
  41107c:	00 02 03 02 
  411080:	4c 00 00 00 	mflo $5
  411084:	00 05 00 00 
  411088:	4f 00 00 00 	andi $2,$2,65535
  41108c:	ff ff 02 02 
  411090:	50 00 00 00 	or $3,$4,$2
  411094:	00 03 02 04 
  411098:	5d 00 00 00 	sltu $2,$3,$5
  41109c:	00 02 05 03 
  4110a0:	05 00 00 00 	beq $2,$0,4110e8 <__mpn_divmod_1+0xa58>
  4110a4:	10 00 00 02 
  4110a8:	43 00 00 00 	addiu $8,$8,-1
  4110ac:	ff ff 08 08 
  4110b0:	42 00 00 00 	addu $3,$3,$7
  4110b4:	00 03 07 03 
  4110b8:	5d 00 00 00 	sltu $2,$3,$7
  4110bc:	00 02 07 03 
  4110c0:	06 00 00 00 	bne $2,$0,4110e8 <__mpn_divmod_1+0xa58>
  4110c4:	08 00 00 02 
  4110c8:	5d 00 00 00 	sltu $2,$3,$5
  4110cc:	00 02 05 03 
  4110d0:	05 00 00 00 	beq $2,$0,4110e8 <__mpn_divmod_1+0xa58>
  4110d4:	04 00 00 02 
  4110d8:	43 00 00 00 	addiu $8,$8,-1
  4110dc:	ff ff 08 08 
  4110e0:	42 00 00 00 	addu $3,$3,$7
  4110e4:	00 03 07 03 
  4110e8:	55 00 00 00 	sll $2,$9,0x10
  4110ec:	10 02 09 00 
  4110f0:	50 00 00 00 	or $2,$2,$8
  4110f4:	00 02 08 02 
  4110f8:	34 00 00 00 	sw $2,4($15)
  4110fc:	04 00 02 0f 
  411100:	45 00 00 00 	subu $10,$3,$5
  411104:	00 0a 05 03 
  411108:	42 00 00 00 	addu $12,$0,$11
  41110c:	00 0c 0b 00 
  411110:	43 00 00 00 	addiu $15,$15,-4
  411114:	fc ff 0f 0f 
  411118:	43 00 00 00 	addiu $24,$24,-4
  41111c:	fc ff 18 18 
  411120:	43 00 00 00 	addiu $6,$6,-1
  411124:	ff ff 06 06 
  411128:	0a 00 00 00 	bgez $6,410f68 <__mpn_divmod_1+0x8d8>
  41112c:	8e ff 00 06 
  411130:	57 00 00 00 	srl $5,$7,0x10
  411134:	10 05 07 00 
  411138:	49 00 00 00 	divu $0,$10,$5
  41113c:	00 00 05 0a 
  411140:	06 00 00 00 	bne $5,$0,411150 <__mpn_divmod_1+0xac0>
  411144:	02 00 00 05 
  411148:	a1 00 00 00 	break 
  41114c:	07 00 00 00 
  411150:	4c 00 00 00 	mflo $8
  411154:	00 08 00 00 
  411158:	4a 00 00 00 	mfhi $3
  41115c:	00 03 00 00 
  411160:	4f 00 00 00 	andi $9,$7,65535
  411164:	ff ff 09 07 
  411168:	46 00 00 00 	mult $8,$9
  41116c:	00 00 09 08 
  411170:	55 00 00 00 	sll $2,$3,0x10
  411174:	10 02 03 00 
  411178:	56 00 00 00 	sllv $3,$12,$14
  41117c:	00 03 0c 0e 
  411180:	4c 00 00 00 	mflo $4
  411184:	00 04 00 00 
  411188:	57 00 00 00 	srl $3,$3,0x10
  41118c:	10 03 03 00 
  411190:	50 00 00 00 	or $3,$2,$3
  411194:	00 03 03 02 
  411198:	5d 00 00 00 	sltu $2,$3,$4
  41119c:	00 02 04 03 
  4111a0:	05 00 00 00 	beq $2,$0,4111e8 <__mpn_divmod_1+0xb58>
  4111a4:	10 00 00 02 
  4111a8:	43 00 00 00 	addiu $8,$8,-1
  4111ac:	ff ff 08 08 
  4111b0:	42 00 00 00 	addu $3,$3,$7
  4111b4:	00 03 07 03 
  4111b8:	5d 00 00 00 	sltu $2,$3,$7
  4111bc:	00 02 07 03 
  4111c0:	06 00 00 00 	bne $2,$0,4111e8 <__mpn_divmod_1+0xb58>
  4111c4:	08 00 00 02 
  4111c8:	5d 00 00 00 	sltu $2,$3,$4
  4111cc:	00 02 04 03 
  4111d0:	05 00 00 00 	beq $2,$0,4111e8 <__mpn_divmod_1+0xb58>
  4111d4:	04 00 00 02 
  4111d8:	43 00 00 00 	addiu $8,$8,-1
  4111dc:	ff ff 08 08 
  4111e0:	42 00 00 00 	addu $3,$3,$7
  4111e4:	00 03 07 03 
  4111e8:	45 00 00 00 	subu $3,$3,$4
  4111ec:	00 03 04 03 
  4111f0:	49 00 00 00 	divu $0,$3,$5
  4111f4:	00 00 05 03 
  4111f8:	06 00 00 00 	bne $5,$0,411208 <__mpn_divmod_1+0xb78>
  4111fc:	02 00 00 05 
  411200:	a1 00 00 00 	break 
  411204:	07 00 00 00 
  411208:	4c 00 00 00 	mflo $6
  41120c:	00 06 00 00 
  411210:	4a 00 00 00 	mfhi $3
  411214:	00 03 00 00 
  411218:	46 00 00 00 	mult $6,$9
  41121c:	00 00 09 06 
  411220:	55 00 00 00 	sll $2,$3,0x10
  411224:	10 02 03 00 
  411228:	56 00 00 00 	sllv $3,$12,$14
  41122c:	00 03 0c 0e 
  411230:	4c 00 00 00 	mflo $4
  411234:	00 04 00 00 
  411238:	4f 00 00 00 	andi $3,$3,65535
  41123c:	ff ff 03 03 
  411240:	50 00 00 00 	or $3,$2,$3
  411244:	00 03 03 02 
  411248:	5d 00 00 00 	sltu $2,$3,$4
  41124c:	00 02 04 03 
  411250:	05 00 00 00 	beq $2,$0,411298 <__mpn_divmod_1+0xc08>
  411254:	10 00 00 02 
  411258:	43 00 00 00 	addiu $6,$6,-1
  41125c:	ff ff 06 06 
  411260:	42 00 00 00 	addu $3,$3,$7
  411264:	00 03 07 03 
  411268:	5d 00 00 00 	sltu $2,$3,$7
  41126c:	00 02 07 03 
  411270:	06 00 00 00 	bne $2,$0,411298 <__mpn_divmod_1+0xc08>
  411274:	08 00 00 02 
  411278:	5d 00 00 00 	sltu $2,$3,$4
  41127c:	00 02 04 03 
  411280:	05 00 00 00 	beq $2,$0,411298 <__mpn_divmod_1+0xc08>
  411284:	04 00 00 02 
  411288:	43 00 00 00 	addiu $6,$6,-1
  41128c:	ff ff 06 06 
  411290:	42 00 00 00 	addu $3,$3,$7
  411294:	00 03 07 03 
  411298:	55 00 00 00 	sll $2,$8,0x10
  41129c:	10 02 08 00 
  4112a0:	50 00 00 00 	or $2,$2,$6
  4112a4:	00 02 06 02 
  4112a8:	34 00 00 00 	sw $2,0($17)
  4112ac:	00 00 02 11 
  4112b0:	45 00 00 00 	subu $10,$3,$4
  4112b4:	00 0a 04 03 
  4112b8:	58 00 00 00 	srlv $2,$10,$14
  4112bc:	00 02 0a 0e 
  4112c0:	01 00 00 00 	j 4114e8 <__mpn_divmod_1+0xe58>
  4112c4:	3a 45 10 00 
  4112c8:	43 00 00 00 	addiu $6,$6,-1
  4112cc:	ff ff 06 06 
  4112d0:	55 00 00 00 	sll $3,$6,0x2
  4112d4:	02 03 06 00 
  4112d8:	42 00 00 00 	addu $2,$3,$5
  4112dc:	00 02 05 03 
  4112e0:	28 00 00 00 	lw $10,0($2)
  4112e4:	00 00 0a 02 
  4112e8:	5d 00 00 00 	sltu $2,$10,$7
  4112ec:	00 02 07 0a 
  4112f0:	06 00 00 00 	bne $2,$0,411308 <__mpn_divmod_1+0xc78>
  4112f4:	04 00 00 02 
  4112f8:	42 00 00 00 	addu $10,$0,$0
  4112fc:	00 0a 00 00 
  411300:	01 00 00 00 	j 411320 <__mpn_divmod_1+0xc90>
  411304:	c8 44 10 00 
  411308:	42 00 00 00 	addu $2,$3,$17
  41130c:	00 02 11 03 
  411310:	34 00 00 00 	sw $0,0($2)
  411314:	00 00 00 02 
  411318:	43 00 00 00 	addiu $6,$6,-1
  41131c:	ff ff 06 06 
  411320:	09 00 00 00 	bltz $6,4114e0 <__mpn_divmod_1+0xe50>
  411324:	6e 00 00 06 
  411328:	57 00 00 00 	srl $12,$7,0x10
  41132c:	10 0c 07 00 
  411330:	4f 00 00 00 	andi $14,$7,65535
  411334:	ff ff 0e 07 
  411338:	55 00 00 00 	sll $2,$6,0x2
  41133c:	02 02 06 00 
  411340:	42 00 00 00 	addu $13,$2,$17
  411344:	00 0d 11 02 
  411348:	42 00 00 00 	addu $5,$2,$5
  41134c:	00 05 05 02 
  411350:	28 00 00 00 	lw $11,0($5)
  411354:	00 00 0b 05 
  411358:	49 00 00 00 	divu $0,$10,$12
  41135c:	00 00 0c 0a 
  411360:	06 00 00 00 	bne $12,$0,411370 <__mpn_divmod_1+0xce0>
  411364:	02 00 00 0c 
  411368:	a1 00 00 00 	break 
  41136c:	07 00 00 00 
  411370:	4c 00 00 00 	mflo $9
  411374:	00 09 00 00 
  411378:	4a 00 00 00 	mfhi $3
  41137c:	00 03 00 00 
  411380:	46 00 00 00 	mult $9,$14
  411384:	00 00 0e 09 
  411388:	55 00 00 00 	sll $2,$3,0x10
  41138c:	10 02 03 00 
  411390:	4c 00 00 00 	mflo $4
  411394:	00 04 00 00 
  411398:	57 00 00 00 	srl $3,$11,0x10
  41139c:	10 03 0b 00 
  4113a0:	50 00 00 00 	or $3,$2,$3
  4113a4:	00 03 03 02 
  4113a8:	5d 00 00 00 	sltu $2,$3,$4
  4113ac:	00 02 04 03 
  4113b0:	05 00 00 00 	beq $2,$0,4113f8 <__mpn_divmod_1+0xd68>
  4113b4:	10 00 00 02 
  4113b8:	43 00 00 00 	addiu $9,$9,-1
  4113bc:	ff ff 09 09 
  4113c0:	42 00 00 00 	addu $3,$3,$7
  4113c4:	00 03 07 03 
  4113c8:	5d 00 00 00 	sltu $2,$3,$7
  4113cc:	00 02 07 03 
  4113d0:	06 00 00 00 	bne $2,$0,4113f8 <__mpn_divmod_1+0xd68>
  4113d4:	08 00 00 02 
  4113d8:	5d 00 00 00 	sltu $2,$3,$4
  4113dc:	00 02 04 03 
  4113e0:	05 00 00 00 	beq $2,$0,4113f8 <__mpn_divmod_1+0xd68>
  4113e4:	04 00 00 02 
  4113e8:	43 00 00 00 	addiu $9,$9,-1
  4113ec:	ff ff 09 09 
  4113f0:	42 00 00 00 	addu $3,$3,$7
  4113f4:	00 03 07 03 
  4113f8:	45 00 00 00 	subu $3,$3,$4
  4113fc:	00 03 04 03 
  411400:	49 00 00 00 	divu $0,$3,$12
  411404:	00 00 0c 03 
  411408:	06 00 00 00 	bne $12,$0,411418 <__mpn_divmod_1+0xd88>
  41140c:	02 00 00 0c 
  411410:	a1 00 00 00 	break 
  411414:	07 00 00 00 
  411418:	4c 00 00 00 	mflo $8
  41141c:	00 08 00 00 
  411420:	4a 00 00 00 	mfhi $3
  411424:	00 03 00 00 
  411428:	46 00 00 00 	mult $8,$14
  41142c:	00 00 0e 08 
  411430:	55 00 00 00 	sll $2,$3,0x10
  411434:	10 02 03 00 
  411438:	4c 00 00 00 	mflo $4
  41143c:	00 04 00 00 
  411440:	4f 00 00 00 	andi $3,$11,65535
  411444:	ff ff 03 0b 
  411448:	50 00 00 00 	or $3,$2,$3
  41144c:	00 03 03 02 
  411450:	5d 00 00 00 	sltu $2,$3,$4
  411454:	00 02 04 03 
  411458:	05 00 00 00 	beq $2,$0,4114a0 <__mpn_divmod_1+0xe10>
  41145c:	10 00 00 02 
  411460:	43 00 00 00 	addiu $8,$8,-1
  411464:	ff ff 08 08 
  411468:	42 00 00 00 	addu $3,$3,$7
  41146c:	00 03 07 03 
  411470:	5d 00 00 00 	sltu $2,$3,$7
  411474:	00 02 07 03 
  411478:	06 00 00 00 	bne $2,$0,4114a0 <__mpn_divmod_1+0xe10>
  41147c:	08 00 00 02 
  411480:	5d 00 00 00 	sltu $2,$3,$4
  411484:	00 02 04 03 
  411488:	05 00 00 00 	beq $2,$0,4114a0 <__mpn_divmod_1+0xe10>
  41148c:	04 00 00 02 
  411490:	43 00 00 00 	addiu $8,$8,-1
  411494:	ff ff 08 08 
  411498:	42 00 00 00 	addu $3,$3,$7
  41149c:	00 03 07 03 
  4114a0:	55 00 00 00 	sll $2,$9,0x10
  4114a4:	10 02 09 00 
  4114a8:	50 00 00 00 	or $2,$2,$8
  4114ac:	00 02 08 02 
  4114b0:	34 00 00 00 	sw $2,0($13)
  4114b4:	00 00 02 0d 
  4114b8:	45 00 00 00 	subu $10,$3,$4
  4114bc:	00 0a 04 03 
  4114c0:	43 00 00 00 	addiu $13,$13,-4
  4114c4:	fc ff 0d 0d 
  4114c8:	43 00 00 00 	addiu $5,$5,-4
  4114cc:	fc ff 05 05 
  4114d0:	43 00 00 00 	addiu $6,$6,-1
  4114d4:	ff ff 06 06 
  4114d8:	0a 00 00 00 	bgez $6,411350 <__mpn_divmod_1+0xcc0>
  4114dc:	9c ff 00 06 
  4114e0:	42 00 00 00 	addu $2,$0,$10
  4114e4:	00 02 0a 00 
  4114e8:	28 00 00 00 	lw $17,4($29)
  4114ec:	04 00 11 1d 
  4114f0:	28 00 00 00 	lw $16,0($29)
  4114f4:	00 00 10 1d 
  4114f8:	43 00 00 00 	addiu $29,$29,8
  4114fc:	08 00 1d 1d 
  411500:	03 00 00 00 	jr $31
  411504:	00 00 00 1f 
	...

00411510 <abort>:
  411510:	a1 00 00 00 	break 
  411514:	00 00 00 00 
  411518:	03 00 00 00 	jr $31
  41151c:	00 00 00 1f 

00411520 <__mpn_mul_1>:
  411520:	43 00 00 00 	addiu $29,$29,-8
  411524:	f8 ff 1d 1d 
  411528:	45 00 00 00 	subu $6,$0,$6
  41152c:	00 06 06 00 
  411530:	42 00 00 00 	addu $2,$0,$0
  411534:	00 02 00 00 
  411538:	42 00 00 00 	addu $8,$0,$4
  41153c:	00 08 04 00 
  411540:	28 00 00 00 	lw $9,0($5)
  411544:	00 00 09 05 
  411548:	47 00 00 00 	multu $9,$7
  41154c:	00 00 07 09 
  411550:	4c 00 00 00 	mflo $3
  411554:	00 03 00 00 
  411558:	4a 00 00 00 	mfhi $4
  41155c:	00 04 00 00 
  411560:	42 00 00 00 	addu $3,$3,$2
  411564:	00 03 02 03 
  411568:	5d 00 00 00 	sltu $2,$3,$2
  41156c:	00 02 02 03 
  411570:	42 00 00 00 	addu $2,$4,$2
  411574:	00 02 02 04 
  411578:	43 00 00 00 	addiu $6,$6,1
  41157c:	01 00 06 06 
  411580:	34 00 00 00 	sw $3,0($8)
  411584:	00 00 03 08 
  411588:	43 00 00 00 	addiu $8,$8,4
  41158c:	04 00 08 08 
  411590:	43 00 00 00 	addiu $5,$5,4
  411594:	04 00 05 05 
  411598:	06 00 00 00 	bne $6,$0,411540 <__mpn_mul_1+0x20>
  41159c:	e8 ff 00 06 
  4115a0:	43 00 00 00 	addiu $29,$29,8
  4115a4:	08 00 1d 1d 
  4115a8:	03 00 00 00 	jr $31
  4115ac:	00 00 00 1f 

004115b0 <__mpn_add_n>:
  4115b0:	43 00 00 00 	addiu $29,$29,-8
  4115b4:	f8 ff 1d 1d 
  4115b8:	45 00 00 00 	subu $7,$0,$7
  4115bc:	00 07 07 00 
  4115c0:	42 00 00 00 	addu $8,$0,$0
  4115c4:	00 08 00 00 
  4115c8:	28 00 00 00 	lw $2,0($6)
  4115cc:	00 00 02 06 
  4115d0:	43 00 00 00 	addiu $7,$7,1
  4115d4:	01 00 07 07 
  4115d8:	28 00 00 00 	lw $3,0($5)
  4115dc:	00 00 03 05 
  4115e0:	42 00 00 00 	addu $2,$2,$8
  4115e4:	00 02 08 02 
  4115e8:	5d 00 00 00 	sltu $8,$2,$8
  4115ec:	00 08 08 02 
  4115f0:	42 00 00 00 	addu $2,$2,$3
  4115f4:	00 02 03 02 
  4115f8:	5d 00 00 00 	sltu $3,$2,$3
  4115fc:	00 03 03 02 
  411600:	42 00 00 00 	addu $8,$8,$3
  411604:	00 08 03 08 
  411608:	34 00 00 00 	sw $2,0($4)
  41160c:	00 00 02 04 
  411610:	43 00 00 00 	addiu $4,$4,4
  411614:	04 00 04 04 
  411618:	43 00 00 00 	addiu $5,$5,4
  41161c:	04 00 05 05 
  411620:	43 00 00 00 	addiu $6,$6,4
  411624:	04 00 06 06 
  411628:	06 00 00 00 	bne $7,$0,4115c8 <__mpn_add_n+0x18>
  41162c:	e6 ff 00 07 
  411630:	42 00 00 00 	addu $2,$0,$8
  411634:	00 02 08 00 
  411638:	43 00 00 00 	addiu $29,$29,8
  41163c:	08 00 1d 1d 
  411640:	03 00 00 00 	jr $31
  411644:	00 00 00 1f 
	...

00411650 <__mpn_divmod>:
  411650:	43 00 00 00 	addiu $29,$29,-80
  411654:	b0 ff 1d 1d 
  411658:	34 00 00 00 	sw $30,72($29)
  41165c:	48 00 1e 1d 
  411660:	28 00 00 00 	lw $30,96($29)
  411664:	60 00 1e 1d 
  411668:	34 00 00 00 	sw $23,68($29)
  41166c:	44 00 17 1d 
  411670:	42 00 00 00 	addu $23,$0,$4
  411674:	00 17 04 00 
  411678:	34 00 00 00 	sw $20,56($29)
  41167c:	38 00 14 1d 
  411680:	42 00 00 00 	addu $20,$0,$5
  411684:	00 14 05 00 
  411688:	34 00 00 00 	sw $19,52($29)
  41168c:	34 00 13 1d 
  411690:	42 00 00 00 	addu $19,$0,$6
  411694:	00 13 06 00 
  411698:	34 00 00 00 	sw $18,48($29)
  41169c:	30 00 12 1d 
  4116a0:	42 00 00 00 	addu $18,$0,$7
  4116a4:	00 12 07 00 
  4116a8:	43 00 00 00 	addiu $3,$0,1
  4116ac:	01 00 03 00 
  4116b0:	34 00 00 00 	sw $31,76($29)
  4116b4:	4c 00 1f 1d 
  4116b8:	34 00 00 00 	sw $22,64($29)
  4116bc:	40 00 16 1d 
  4116c0:	34 00 00 00 	sw $21,60($29)
  4116c4:	3c 00 15 1d 
  4116c8:	34 00 00 00 	sw $17,44($29)
  4116cc:	2c 00 11 1d 
  4116d0:	34 00 00 00 	sw $16,40($29)
  4116d4:	28 00 10 1d 
  4116d8:	34 00 00 00 	sw $0,16($29)
  4116dc:	10 00 00 1d 
  4116e0:	05 00 00 00 	beq $30,$3,411778 <__mpn_divmod+0x128>
  4116e4:	24 00 03 1e 
  4116e8:	5c 00 00 00 	slti $2,$30,2
  4116ec:	02 00 02 1e 
  4116f0:	05 00 00 00 	beq $2,$0,411708 <__mpn_divmod+0xb8>
  4116f4:	04 00 00 02 
  4116f8:	05 00 00 00 	beq $30,$0,411720 <__mpn_divmod+0xd0>
  4116fc:	08 00 00 1e 
  411700:	01 00 00 00 	j 411d48 <__mpn_divmod+0x6f8>
  411704:	52 47 10 00 
  411708:	43 00 00 00 	addiu $2,$0,2
  41170c:	02 00 02 00 
  411710:	05 00 00 00 	beq $30,$2,411998 <__mpn_divmod+0x348>
  411714:	a0 00 02 1e 
  411718:	01 00 00 00 	j 411d48 <__mpn_divmod+0x6f8>
  41171c:	52 47 10 00 
  411720:	28 00 00 00 	lw $15,16($29)
  411724:	10 00 0f 1d 
  411728:	48 00 00 00 	div $0,$3,$15
  41172c:	00 00 0f 03 
  411730:	06 00 00 00 	bne $15,$0,411740 <__mpn_divmod+0xf0>
  411734:	02 00 00 0f 
  411738:	a1 00 00 00 	break 
  41173c:	07 00 00 00 
  411740:	43 00 00 00 	addiu $1,$0,-1
  411744:	ff ff 01 00 
  411748:	06 00 00 00 	bne $15,$1,411768 <__mpn_divmod+0x118>
  41174c:	06 00 01 0f 
  411750:	a2 00 00 00 	lui $1,32768
  411754:	00 80 01 00 
  411758:	06 00 00 00 	bne $3,$1,411768 <__mpn_divmod+0x118>
  41175c:	02 00 01 03 
  411760:	a1 00 00 00 	break 
  411764:	06 00 00 00 
  411768:	4c 00 00 00 	mflo $2
  41176c:	00 02 00 00 
  411770:	01 00 00 00 	j 412130 <__mpn_divmod+0xae0>
  411774:	4c 48 10 00 
  411778:	55 00 00 00 	sll $2,$19,0x2
  41177c:	02 02 13 00 
  411780:	42 00 00 00 	addu $2,$2,$20
  411784:	00 02 14 02 
  411788:	28 00 00 00 	lw $3,-4($2)
  41178c:	fc ff 03 02 
  411790:	28 00 00 00 	lw $5,0($18)
  411794:	00 00 05 12 
  411798:	5d 00 00 00 	sltu $2,$3,$5
  41179c:	00 02 05 03 
  4117a0:	06 00 00 00 	bne $2,$0,4117c0 <__mpn_divmod+0x170>
  4117a4:	06 00 00 02 
  4117a8:	43 00 00 00 	addiu $15,$0,1
  4117ac:	01 00 0f 00 
  4117b0:	34 00 00 00 	sw $15,16($29)
  4117b4:	10 00 0f 1d 
  4117b8:	45 00 00 00 	subu $3,$3,$5
  4117bc:	00 03 05 03 
  4117c0:	43 00 00 00 	addiu $6,$19,-2
  4117c4:	fe ff 06 13 
  4117c8:	09 00 00 00 	bltz $6,411988 <__mpn_divmod+0x338>
  4117cc:	6e 00 00 06 
  4117d0:	57 00 00 00 	srl $11,$5,0x10
  4117d4:	10 0b 05 00 
  4117d8:	4f 00 00 00 	andi $13,$5,65535
  4117dc:	ff ff 0d 05 
  4117e0:	55 00 00 00 	sll $2,$6,0x2
  4117e4:	02 02 06 00 
  4117e8:	42 00 00 00 	addu $4,$2,$23
  4117ec:	00 04 17 02 
  4117f0:	42 00 00 00 	addu $12,$2,$20
  4117f4:	00 0c 14 02 
  4117f8:	28 00 00 00 	lw $7,0($12)
  4117fc:	00 00 07 0c 
  411800:	49 00 00 00 	divu $0,$3,$11
  411804:	00 00 0b 03 
  411808:	06 00 00 00 	bne $11,$0,411818 <__mpn_divmod+0x1c8>
  41180c:	02 00 00 0b 
  411810:	a1 00 00 00 	break 
  411814:	07 00 00 00 
  411818:	4c 00 00 00 	mflo $10
  41181c:	00 0a 00 00 
  411820:	4a 00 00 00 	mfhi $3
  411824:	00 03 00 00 
  411828:	46 00 00 00 	mult $10,$13
  41182c:	00 00 0d 0a 
  411830:	55 00 00 00 	sll $2,$3,0x10
  411834:	10 02 03 00 
  411838:	4c 00 00 00 	mflo $9
  41183c:	00 09 00 00 
  411840:	57 00 00 00 	srl $3,$7,0x10
  411844:	10 03 07 00 
  411848:	50 00 00 00 	or $3,$2,$3
  41184c:	00 03 03 02 
  411850:	5d 00 00 00 	sltu $2,$3,$9
  411854:	00 02 09 03 
  411858:	05 00 00 00 	beq $2,$0,4118a0 <__mpn_divmod+0x250>
  41185c:	10 00 00 02 
  411860:	43 00 00 00 	addiu $10,$10,-1
  411864:	ff ff 0a 0a 
  411868:	42 00 00 00 	addu $3,$3,$5
  41186c:	00 03 05 03 
  411870:	5d 00 00 00 	sltu $2,$3,$5
  411874:	00 02 05 03 
  411878:	06 00 00 00 	bne $2,$0,4118a0 <__mpn_divmod+0x250>
  41187c:	08 00 00 02 
  411880:	5d 00 00 00 	sltu $2,$3,$9
  411884:	00 02 09 03 
  411888:	05 00 00 00 	beq $2,$0,4118a0 <__mpn_divmod+0x250>
  41188c:	04 00 00 02 
  411890:	43 00 00 00 	addiu $10,$10,-1
  411894:	ff ff 0a 0a 
  411898:	42 00 00 00 	addu $3,$3,$5
  41189c:	00 03 05 03 
  4118a0:	45 00 00 00 	subu $3,$3,$9
  4118a4:	00 03 09 03 
  4118a8:	49 00 00 00 	divu $0,$3,$11
  4118ac:	00 00 0b 03 
  4118b0:	06 00 00 00 	bne $11,$0,4118c0 <__mpn_divmod+0x270>
  4118b4:	02 00 00 0b 
  4118b8:	a1 00 00 00 	break 
  4118bc:	07 00 00 00 
  4118c0:	4c 00 00 00 	mflo $8
  4118c4:	00 08 00 00 
  4118c8:	4a 00 00 00 	mfhi $3
  4118cc:	00 03 00 00 
  4118d0:	46 00 00 00 	mult $8,$13
  4118d4:	00 00 0d 08 
  4118d8:	55 00 00 00 	sll $2,$3,0x10
  4118dc:	10 02 03 00 
  4118e0:	4c 00 00 00 	mflo $9
  4118e4:	00 09 00 00 
  4118e8:	4f 00 00 00 	andi $3,$7,65535
  4118ec:	ff ff 03 07 
  4118f0:	50 00 00 00 	or $3,$2,$3
  4118f4:	00 03 03 02 
  4118f8:	5d 00 00 00 	sltu $2,$3,$9
  4118fc:	00 02 09 03 
  411900:	05 00 00 00 	beq $2,$0,411948 <__mpn_divmod+0x2f8>
  411904:	10 00 00 02 
  411908:	43 00 00 00 	addiu $8,$8,-1
  41190c:	ff ff 08 08 
  411910:	42 00 00 00 	addu $3,$3,$5
  411914:	00 03 05 03 
  411918:	5d 00 00 00 	sltu $2,$3,$5
  41191c:	00 02 05 03 
  411920:	06 00 00 00 	bne $2,$0,411948 <__mpn_divmod+0x2f8>
  411924:	08 00 00 02 
  411928:	5d 00 00 00 	sltu $2,$3,$9
  41192c:	00 02 09 03 
  411930:	05 00 00 00 	beq $2,$0,411948 <__mpn_divmod+0x2f8>
  411934:	04 00 00 02 
  411938:	43 00 00 00 	addiu $8,$8,-1
  41193c:	ff ff 08 08 
  411940:	42 00 00 00 	addu $3,$3,$5
  411944:	00 03 05 03 
  411948:	55 00 00 00 	sll $2,$10,0x10
  41194c:	10 02 0a 00 
  411950:	50 00 00 00 	or $2,$2,$8
  411954:	00 02 08 02 
  411958:	34 00 00 00 	sw $2,0($4)
  41195c:	00 00 02 04 
  411960:	45 00 00 00 	subu $3,$3,$9
  411964:	00 03 09 03 
  411968:	43 00 00 00 	addiu $4,$4,-4
  41196c:	fc ff 04 04 
  411970:	43 00 00 00 	addiu $12,$12,-4
  411974:	fc ff 0c 0c 
  411978:	43 00 00 00 	addiu $6,$6,-1
  41197c:	ff ff 06 06 
  411980:	0a 00 00 00 	bgez $6,4117f8 <__mpn_divmod+0x1a8>
  411984:	9c ff 00 06 
  411988:	34 00 00 00 	sw $3,0($20)
  41198c:	00 00 03 14 
  411990:	01 00 00 00 	j 412128 <__mpn_divmod+0xad8>
  411994:	4a 48 10 00 
  411998:	55 00 00 00 	sll $2,$19,0x2
  41199c:	02 02 13 00 
  4119a0:	43 00 00 00 	addiu $2,$2,-8
  4119a4:	f8 ff 02 02 
  4119a8:	42 00 00 00 	addu $20,$20,$2
  4119ac:	00 14 02 14 
  4119b0:	28 00 00 00 	lw $8,4($20)
  4119b4:	04 00 08 14 
  4119b8:	28 00 00 00 	lw $10,0($20)
  4119bc:	00 00 0a 14 
  4119c0:	28 00 00 00 	lw $12,4($18)
  4119c4:	04 00 0c 12 
  4119c8:	28 00 00 00 	lw $5,0($18)
  4119cc:	00 00 05 12 
  4119d0:	5d 00 00 00 	sltu $2,$8,$12
  4119d4:	00 02 0c 08 
  4119d8:	06 00 00 00 	bne $2,$0,411a38 <__mpn_divmod+0x3e8>
  4119dc:	16 00 00 02 
  4119e0:	5d 00 00 00 	sltu $2,$12,$8
  4119e4:	00 02 08 0c 
  4119e8:	06 00 00 00 	bne $2,$0,411a00 <__mpn_divmod+0x3b0>
  4119ec:	04 00 00 02 
  4119f0:	5d 00 00 00 	sltu $2,$10,$5
  4119f4:	00 02 05 0a 
  4119f8:	06 00 00 00 	bne $2,$0,411a38 <__mpn_divmod+0x3e8>
  4119fc:	0e 00 00 02 
  411a00:	43 00 00 00 	addiu $15,$0,1
  411a04:	01 00 0f 00 
  411a08:	34 00 00 00 	sw $15,16($29)
  411a0c:	10 00 0f 1d 
  411a10:	45 00 00 00 	subu $4,$10,$5
  411a14:	00 04 05 0a 
  411a18:	45 00 00 00 	subu $3,$8,$12
  411a1c:	00 03 0c 08 
  411a20:	5d 00 00 00 	sltu $2,$10,$4
  411a24:	00 02 04 0a 
  411a28:	45 00 00 00 	subu $8,$3,$2
  411a2c:	00 08 02 03 
  411a30:	42 00 00 00 	addu $10,$0,$4
  411a34:	00 0a 04 00 
  411a38:	45 00 00 00 	subu $2,$19,$30
  411a3c:	00 02 1e 13 
  411a40:	43 00 00 00 	addiu $7,$2,-1
  411a44:	ff ff 07 02 
  411a48:	09 00 00 00 	bltz $7,411d30 <__mpn_divmod+0x6e0>
  411a4c:	b8 00 00 07 
  411a50:	5d 00 00 00 	sltu $14,$0,$5
  411a54:	00 0e 05 00 
  411a58:	55 00 00 00 	sll $2,$7,0x2
  411a5c:	02 02 07 00 
  411a60:	42 00 00 00 	addu $6,$2,$23
  411a64:	00 06 17 02 
  411a68:	43 00 00 00 	addiu $20,$20,-4
  411a6c:	fc ff 14 14 
  411a70:	06 00 00 00 	bne $8,$12,411af0 <__mpn_divmod+0x4a0>
  411a74:	1e 00 0c 08 
  411a78:	43 00 00 00 	addiu $11,$0,-1
  411a7c:	ff ff 0b 00 
  411a80:	42 00 00 00 	addu $4,$10,$8
  411a84:	00 04 08 0a 
  411a88:	5d 00 00 00 	sltu $2,$4,$8
  411a8c:	00 02 08 04 
  411a90:	05 00 00 00 	beq $2,$0,411ad8 <__mpn_divmod+0x488>
  411a94:	10 00 00 02 
  411a98:	28 00 00 00 	lw $2,0($20)
  411a9c:	00 00 02 14 
  411aa0:	45 00 00 00 	subu $4,$4,$5
  411aa4:	00 04 05 04 
  411aa8:	42 00 00 00 	addu $3,$5,$2
  411aac:	00 03 02 05 
  411ab0:	5d 00 00 00 	sltu $2,$3,$2
  411ab4:	00 02 02 03 
  411ab8:	42 00 00 00 	addu $8,$4,$2
  411abc:	00 08 02 04 
  411ac0:	42 00 00 00 	addu $10,$0,$3
  411ac4:	00 0a 03 00 
  411ac8:	34 00 00 00 	sw $11,0($6)
  411acc:	00 00 0b 06 
  411ad0:	01 00 00 00 	j 411d18 <__mpn_divmod+0x6c8>
  411ad4:	46 47 10 00 
  411ad8:	45 00 00 00 	subu $8,$5,$14
  411adc:	00 08 0e 05 
  411ae0:	45 00 00 00 	subu $10,$0,$5
  411ae4:	00 0a 05 00 
  411ae8:	01 00 00 00 	j 411c78 <__mpn_divmod+0x628>
  411aec:	1e 47 10 00 
  411af0:	57 00 00 00 	srl $4,$12,0x10
  411af4:	10 04 0c 00 
  411af8:	49 00 00 00 	divu $0,$8,$4
  411afc:	00 00 04 08 
  411b00:	06 00 00 00 	bne $4,$0,411b10 <__mpn_divmod+0x4c0>
  411b04:	02 00 00 04 
  411b08:	a1 00 00 00 	break 
  411b0c:	07 00 00 00 
  411b10:	4c 00 00 00 	mflo $11
  411b14:	00 0b 00 00 
  411b18:	4a 00 00 00 	mfhi $3
  411b1c:	00 03 00 00 
  411b20:	4f 00 00 00 	andi $13,$12,65535
  411b24:	ff ff 0d 0c 
  411b28:	46 00 00 00 	mult $11,$13
  411b2c:	00 00 0d 0b 
  411b30:	55 00 00 00 	sll $2,$3,0x10
  411b34:	10 02 03 00 
  411b38:	4c 00 00 00 	mflo $9
  411b3c:	00 09 00 00 
  411b40:	57 00 00 00 	srl $3,$10,0x10
  411b44:	10 03 0a 00 
  411b48:	50 00 00 00 	or $3,$2,$3
  411b4c:	00 03 03 02 
  411b50:	5d 00 00 00 	sltu $2,$3,$9
  411b54:	00 02 09 03 
  411b58:	05 00 00 00 	beq $2,$0,411ba0 <__mpn_divmod+0x550>
  411b5c:	10 00 00 02 
  411b60:	43 00 00 00 	addiu $11,$11,-1
  411b64:	ff ff 0b 0b 
  411b68:	42 00 00 00 	addu $3,$3,$12
  411b6c:	00 03 0c 03 
  411b70:	5d 00 00 00 	sltu $2,$3,$12
  411b74:	00 02 0c 03 
  411b78:	06 00 00 00 	bne $2,$0,411ba0 <__mpn_divmod+0x550>
  411b7c:	08 00 00 02 
  411b80:	5d 00 00 00 	sltu $2,$3,$9
  411b84:	00 02 09 03 
  411b88:	05 00 00 00 	beq $2,$0,411ba0 <__mpn_divmod+0x550>
  411b8c:	04 00 00 02 
  411b90:	43 00 00 00 	addiu $11,$11,-1
  411b94:	ff ff 0b 0b 
  411b98:	42 00 00 00 	addu $3,$3,$12
  411b9c:	00 03 0c 03 
  411ba0:	45 00 00 00 	subu $3,$3,$9
  411ba4:	00 03 09 03 
  411ba8:	49 00 00 00 	divu $0,$3,$4
  411bac:	00 00 04 03 
  411bb0:	06 00 00 00 	bne $4,$0,411bc0 <__mpn_divmod+0x570>
  411bb4:	02 00 00 04 
  411bb8:	a1 00 00 00 	break 
  411bbc:	07 00 00 00 
  411bc0:	4c 00 00 00 	mflo $8
  411bc4:	00 08 00 00 
  411bc8:	4a 00 00 00 	mfhi $4
  411bcc:	00 04 00 00 
  411bd0:	46 00 00 00 	mult $8,$13
  411bd4:	00 00 0d 08 
  411bd8:	55 00 00 00 	sll $2,$4,0x10
  411bdc:	10 02 04 00 
  411be0:	4c 00 00 00 	mflo $9
  411be4:	00 09 00 00 
  411be8:	4f 00 00 00 	andi $3,$10,65535
  411bec:	ff ff 03 0a 
  411bf0:	50 00 00 00 	or $4,$2,$3
  411bf4:	00 04 03 02 
  411bf8:	5d 00 00 00 	sltu $2,$4,$9
  411bfc:	00 02 09 04 
  411c00:	05 00 00 00 	beq $2,$0,411c48 <__mpn_divmod+0x5f8>
  411c04:	10 00 00 02 
  411c08:	43 00 00 00 	addiu $8,$8,-1
  411c0c:	ff ff 08 08 
  411c10:	42 00 00 00 	addu $4,$4,$12
  411c14:	00 04 0c 04 
  411c18:	5d 00 00 00 	sltu $2,$4,$12
  411c1c:	00 02 0c 04 
  411c20:	06 00 00 00 	bne $2,$0,411c48 <__mpn_divmod+0x5f8>
  411c24:	08 00 00 02 
  411c28:	5d 00 00 00 	sltu $2,$4,$9
  411c2c:	00 02 09 04 
  411c30:	05 00 00 00 	beq $2,$0,411c48 <__mpn_divmod+0x5f8>
  411c34:	04 00 00 02 
  411c38:	43 00 00 00 	addiu $8,$8,-1
  411c3c:	ff ff 08 08 
  411c40:	42 00 00 00 	addu $4,$4,$12
  411c44:	00 04 0c 04 
  411c48:	55 00 00 00 	sll $2,$11,0x10
  411c4c:	10 02 0b 00 
  411c50:	50 00 00 00 	or $11,$2,$8
  411c54:	00 0b 08 02 
  411c58:	45 00 00 00 	subu $4,$4,$9
  411c5c:	00 04 09 04 
  411c60:	47 00 00 00 	multu $5,$11
  411c64:	00 00 0b 05 
  411c68:	4c 00 00 00 	mflo $10
  411c6c:	00 0a 00 00 
  411c70:	4a 00 00 00 	mfhi $8
  411c74:	00 08 00 00 
  411c78:	28 00 00 00 	lw $9,0($20)
  411c7c:	00 00 09 14 
  411c80:	5d 00 00 00 	sltu $2,$4,$8
  411c84:	00 02 08 04 
  411c88:	06 00 00 00 	bne $2,$0,411ca8 <__mpn_divmod+0x658>
  411c8c:	06 00 00 02 
  411c90:	06 00 00 00 	bne $8,$4,411ce8 <__mpn_divmod+0x698>
  411c94:	14 00 04 08 
  411c98:	5d 00 00 00 	sltu $2,$9,$10
  411c9c:	00 02 0a 09 
  411ca0:	05 00 00 00 	beq $2,$0,411ce8 <__mpn_divmod+0x698>
  411ca4:	10 00 00 02 
  411ca8:	43 00 00 00 	addiu $11,$11,-1
  411cac:	ff ff 0b 0b 
  411cb0:	45 00 00 00 	subu $2,$10,$5
  411cb4:	00 02 05 0a 
  411cb8:	5d 00 00 00 	sltu $3,$10,$2
  411cbc:	00 03 02 0a 
  411cc0:	45 00 00 00 	subu $8,$8,$3
  411cc4:	00 08 03 08 
  411cc8:	42 00 00 00 	addu $10,$0,$2
  411ccc:	00 0a 02 00 
  411cd0:	42 00 00 00 	addu $4,$4,$12
  411cd4:	00 04 0c 04 
  411cd8:	5d 00 00 00 	sltu $2,$4,$12
  411cdc:	00 02 0c 04 
  411ce0:	05 00 00 00 	beq $2,$0,411c80 <__mpn_divmod+0x630>
  411ce4:	e6 ff 00 02 
  411ce8:	34 00 00 00 	sw $11,0($6)
  411cec:	00 00 0b 06 
  411cf0:	45 00 00 00 	subu $2,$9,$10
  411cf4:	00 02 0a 09 
  411cf8:	45 00 00 00 	subu $4,$4,$8
  411cfc:	00 04 08 04 
  411d00:	5d 00 00 00 	sltu $3,$9,$2
  411d04:	00 03 02 09 
  411d08:	45 00 00 00 	subu $8,$4,$3
  411d0c:	00 08 03 04 
  411d10:	42 00 00 00 	addu $10,$0,$2
  411d14:	00 0a 02 00 
  411d18:	43 00 00 00 	addiu $6,$6,-4
  411d1c:	fc ff 06 06 
  411d20:	43 00 00 00 	addiu $7,$7,-1
  411d24:	ff ff 07 07 
  411d28:	0a 00 00 00 	bgez $7,411a68 <__mpn_divmod+0x418>
  411d2c:	4e ff 00 07 
  411d30:	34 00 00 00 	sw $8,4($20)
  411d34:	04 00 08 14 
  411d38:	34 00 00 00 	sw $10,0($20)
  411d3c:	00 00 0a 14 
  411d40:	01 00 00 00 	j 412128 <__mpn_divmod+0xad8>
  411d44:	4a 48 10 00 
  411d48:	55 00 00 00 	sll $2,$19,0x2
  411d4c:	02 02 13 00 
  411d50:	42 00 00 00 	addu $20,$20,$2
  411d54:	00 14 02 14 
  411d58:	55 00 00 00 	sll $16,$30,0x2
  411d5c:	02 10 1e 00 
  411d60:	42 00 00 00 	addu $18,$18,$16
  411d64:	00 12 10 12 
  411d68:	28 00 00 00 	lw $5,-4($20)
  411d6c:	fc ff 05 14 
  411d70:	28 00 00 00 	lw $17,-4($18)
  411d74:	fc ff 11 12 
  411d78:	28 00 00 00 	lw $21,-8($18)
  411d7c:	f8 ff 15 12 
  411d80:	5d 00 00 00 	sltu $2,$5,$17
  411d84:	00 02 11 05 
  411d88:	06 00 00 00 	bne $2,$0,411e08 <__mpn_divmod+0x7b8>
  411d8c:	1e 00 00 02 
  411d90:	5d 00 00 00 	sltu $2,$17,$5
  411d94:	00 02 05 11 
  411d98:	06 00 00 00 	bne $2,$0,411dc8 <__mpn_divmod+0x778>
  411d9c:	0a 00 00 02 
  411da0:	45 00 00 00 	subu $4,$20,$16
  411da4:	00 04 10 14 
  411da8:	45 00 00 00 	subu $5,$18,$16
  411dac:	00 05 10 12 
  411db0:	43 00 00 00 	addiu $6,$30,-1
  411db4:	ff ff 06 1e 
  411db8:	02 00 00 00 	jal 4105f0 <__mpn_cmp>
  411dbc:	7c 41 10 00 
  411dc0:	09 00 00 00 	bltz $2,411e00 <__mpn_divmod+0x7b0>
  411dc4:	0e 00 00 02 
  411dc8:	45 00 00 00 	subu $4,$20,$16
  411dcc:	00 04 10 14 
  411dd0:	42 00 00 00 	addu $5,$0,$4
  411dd4:	00 05 04 00 
  411dd8:	45 00 00 00 	subu $6,$18,$16
  411ddc:	00 06 10 12 
  411de0:	42 00 00 00 	addu $7,$0,$30
  411de4:	00 07 1e 00 
  411de8:	02 00 00 00 	jal 412270 <__mpn_sub_n>
  411dec:	9c 48 10 00 
  411df0:	43 00 00 00 	addiu $15,$0,1
  411df4:	01 00 0f 00 
  411df8:	34 00 00 00 	sw $15,16($29)
  411dfc:	10 00 0f 1d 
  411e00:	28 00 00 00 	lw $5,-4($20)
  411e04:	fc ff 05 14 
  411e08:	45 00 00 00 	subu $2,$19,$30
  411e0c:	00 02 1e 13 
  411e10:	43 00 00 00 	addiu $22,$2,-1
  411e14:	ff ff 16 02 
  411e18:	09 00 00 00 	bltz $22,412128 <__mpn_divmod+0xad8>
  411e1c:	c2 00 00 16 
  411e20:	55 00 00 00 	sll $15,$30,0x2
  411e24:	02 0f 1e 00 
  411e28:	45 00 00 00 	subu $18,$18,$15
  411e2c:	00 12 0f 12 
  411e30:	55 00 00 00 	sll $2,$22,0x2
  411e34:	02 02 16 00 
  411e38:	42 00 00 00 	addu $23,$2,$23
  411e3c:	00 17 17 02 
  411e40:	43 00 00 00 	addiu $19,$20,-4
  411e44:	fc ff 13 14 
  411e48:	34 00 00 00 	sw $15,24($29)
  411e4c:	18 00 0f 1d 
  411e50:	34 00 00 00 	sw $18,32($29)
  411e54:	20 00 12 1d 
  411e58:	43 00 00 00 	addiu $19,$19,-4
  411e5c:	fc ff 13 13 
  411e60:	43 00 00 00 	addiu $20,$20,-4
  411e64:	fc ff 14 14 
  411e68:	06 00 00 00 	bne $5,$17,411e80 <__mpn_divmod+0x830>
  411e6c:	04 00 11 05 
  411e70:	43 00 00 00 	addiu $16,$0,-1
  411e74:	ff ff 10 00 
  411e78:	01 00 00 00 	j 412078 <__mpn_divmod+0xa28>
  411e7c:	1e 48 10 00 
  411e80:	57 00 00 00 	srl $6,$17,0x10
  411e84:	10 06 11 00 
  411e88:	49 00 00 00 	divu $0,$5,$6
  411e8c:	00 00 06 05 
  411e90:	06 00 00 00 	bne $6,$0,411ea0 <__mpn_divmod+0x850>
  411e94:	02 00 00 06 
  411e98:	a1 00 00 00 	break 
  411e9c:	07 00 00 00 
  411ea0:	4c 00 00 00 	mflo $5
  411ea4:	00 05 00 00 
  411ea8:	4a 00 00 00 	mfhi $3
  411eac:	00 03 00 00 
  411eb0:	4f 00 00 00 	andi $8,$17,65535
  411eb4:	ff ff 08 11 
  411eb8:	46 00 00 00 	mult $5,$8
  411ebc:	00 00 08 05 
  411ec0:	26 00 00 00 	lhu $2,2($19)
  411ec4:	02 00 02 13 
  411ec8:	4c 00 00 00 	mflo $4
  411ecc:	00 04 00 00 
  411ed0:	55 00 00 00 	sll $3,$3,0x10
  411ed4:	10 03 03 00 
  411ed8:	50 00 00 00 	or $3,$3,$2
  411edc:	00 03 02 03 
  411ee0:	5d 00 00 00 	sltu $2,$3,$4
  411ee4:	00 02 04 03 
  411ee8:	05 00 00 00 	beq $2,$0,411f30 <__mpn_divmod+0x8e0>
  411eec:	10 00 00 02 
  411ef0:	43 00 00 00 	addiu $5,$5,-1
  411ef4:	ff ff 05 05 
  411ef8:	42 00 00 00 	addu $3,$3,$17
  411efc:	00 03 11 03 
  411f00:	5d 00 00 00 	sltu $2,$3,$17
  411f04:	00 02 11 03 
  411f08:	06 00 00 00 	bne $2,$0,411f30 <__mpn_divmod+0x8e0>
  411f0c:	08 00 00 02 
  411f10:	5d 00 00 00 	sltu $2,$3,$4
  411f14:	00 02 04 03 
  411f18:	05 00 00 00 	beq $2,$0,411f30 <__mpn_divmod+0x8e0>
  411f1c:	04 00 00 02 
  411f20:	43 00 00 00 	addiu $5,$5,-1
  411f24:	ff ff 05 05 
  411f28:	42 00 00 00 	addu $3,$3,$17
  411f2c:	00 03 11 03 
  411f30:	45 00 00 00 	subu $3,$3,$4
  411f34:	00 03 04 03 
  411f38:	49 00 00 00 	divu $0,$3,$6
  411f3c:	00 00 06 03 
  411f40:	06 00 00 00 	bne $6,$0,411f50 <__mpn_divmod+0x900>
  411f44:	02 00 00 06 
  411f48:	a1 00 00 00 	break 
  411f4c:	07 00 00 00 
  411f50:	4c 00 00 00 	mflo $7
  411f54:	00 07 00 00 
  411f58:	4a 00 00 00 	mfhi $3
  411f5c:	00 03 00 00 
  411f60:	46 00 00 00 	mult $7,$8
  411f64:	00 00 08 07 
  411f68:	26 00 00 00 	lhu $2,0($19)
  411f6c:	00 00 02 13 
  411f70:	4c 00 00 00 	mflo $4
  411f74:	00 04 00 00 
  411f78:	55 00 00 00 	sll $3,$3,0x10
  411f7c:	10 03 03 00 
  411f80:	50 00 00 00 	or $3,$3,$2
  411f84:	00 03 02 03 
  411f88:	5d 00 00 00 	sltu $2,$3,$4
  411f8c:	00 02 04 03 
  411f90:	05 00 00 00 	beq $2,$0,411fd8 <__mpn_divmod+0x988>
  411f94:	10 00 00 02 
  411f98:	43 00 00 00 	addiu $7,$7,-1
  411f9c:	ff ff 07 07 
  411fa0:	42 00 00 00 	addu $3,$3,$17
  411fa4:	00 03 11 03 
  411fa8:	5d 00 00 00 	sltu $2,$3,$17
  411fac:	00 02 11 03 
  411fb0:	06 00 00 00 	bne $2,$0,411fd8 <__mpn_divmod+0x988>
  411fb4:	08 00 00 02 
  411fb8:	5d 00 00 00 	sltu $2,$3,$4
  411fbc:	00 02 04 03 
  411fc0:	05 00 00 00 	beq $2,$0,411fd8 <__mpn_divmod+0x988>
  411fc4:	04 00 00 02 
  411fc8:	43 00 00 00 	addiu $7,$7,-1
  411fcc:	ff ff 07 07 
  411fd0:	42 00 00 00 	addu $3,$3,$17
  411fd4:	00 03 11 03 
  411fd8:	55 00 00 00 	sll $2,$5,0x10
  411fdc:	10 02 05 00 
  411fe0:	50 00 00 00 	or $16,$2,$7
  411fe4:	00 10 07 02 
  411fe8:	45 00 00 00 	subu $3,$3,$4
  411fec:	00 03 04 03 
  411ff0:	47 00 00 00 	multu $21,$16
  411ff4:	00 00 10 15 
  411ff8:	4c 00 00 00 	mflo $5
  411ffc:	00 05 00 00 
  412000:	4a 00 00 00 	mfhi $4
  412004:	00 04 00 00 
  412008:	01 00 00 00 	j 412060 <__mpn_divmod+0xa10>
  41200c:	18 48 10 00 
  412010:	28 00 00 00 	lw $2,-4($19)
  412014:	fc ff 02 13 
  412018:	5d 00 00 00 	sltu $2,$2,$5
  41201c:	00 02 05 02 
  412020:	05 00 00 00 	beq $2,$0,412078 <__mpn_divmod+0xa28>
  412024:	14 00 00 02 
  412028:	43 00 00 00 	addiu $16,$16,-1
  41202c:	ff ff 10 10 
  412030:	42 00 00 00 	addu $3,$3,$17
  412034:	00 03 11 03 
  412038:	5d 00 00 00 	sltu $2,$3,$17
  41203c:	00 02 11 03 
  412040:	06 00 00 00 	bne $2,$0,412078 <__mpn_divmod+0xa28>
  412044:	0c 00 00 02 
  412048:	5d 00 00 00 	sltu $2,$5,$21
  41204c:	00 02 15 05 
  412050:	45 00 00 00 	subu $4,$4,$2
  412054:	00 04 02 04 
  412058:	45 00 00 00 	subu $5,$5,$21
  41205c:	00 05 15 05 
  412060:	5d 00 00 00 	sltu $2,$3,$4
  412064:	00 02 04 03 
  412068:	06 00 00 00 	bne $2,$0,412028 <__mpn_divmod+0x9d8>
  41206c:	ee ff 00 02 
  412070:	05 00 00 00 	beq $4,$3,412010 <__mpn_divmod+0x9c0>
  412074:	e6 ff 03 04 
  412078:	28 00 00 00 	lw $15,24($29)
  41207c:	18 00 0f 1d 
  412080:	28 00 00 00 	lw $5,32($29)
  412084:	20 00 05 1d 
  412088:	42 00 00 00 	addu $6,$0,$30
  41208c:	00 06 1e 00 
  412090:	42 00 00 00 	addu $7,$0,$16
  412094:	00 07 10 00 
  412098:	45 00 00 00 	subu $18,$20,$15
  41209c:	00 12 0f 14 
  4120a0:	42 00 00 00 	addu $4,$0,$18
  4120a4:	00 04 12 00 
  4120a8:	02 00 00 00 	jal 412df0 <__mpn_submul_1>
  4120ac:	7c 4b 10 00 
  4120b0:	28 00 00 00 	lw $3,0($20)
  4120b4:	00 00 03 14 
  4120b8:	05 00 00 00 	beq $3,$2,412100 <__mpn_divmod+0xab0>
  4120bc:	10 00 02 03 
  4120c0:	42 00 00 00 	addu $4,$0,$18
  4120c4:	00 04 12 00 
  4120c8:	28 00 00 00 	lw $6,32($29)
  4120cc:	20 00 06 1d 
  4120d0:	42 00 00 00 	addu $5,$0,$4
  4120d4:	00 05 04 00 
  4120d8:	42 00 00 00 	addu $7,$0,$30
  4120dc:	00 07 1e 00 
  4120e0:	02 00 00 00 	jal 4115b0 <__mpn_add_n>
  4120e4:	6c 45 10 00 
  4120e8:	06 00 00 00 	bne $2,$0,4120f8 <__mpn_divmod+0xaa8>
  4120ec:	02 00 00 02 
  4120f0:	02 00 00 00 	jal 411510 <abort>
  4120f4:	44 45 10 00 
  4120f8:	43 00 00 00 	addiu $16,$16,-1
  4120fc:	ff ff 10 10 
  412100:	34 00 00 00 	sw $16,0($23)
  412104:	00 00 10 17 
  412108:	28 00 00 00 	lw $5,0($19)
  41210c:	00 00 05 13 
  412110:	43 00 00 00 	addiu $23,$23,-4
  412114:	fc ff 17 17 
  412118:	43 00 00 00 	addiu $22,$22,-1
  41211c:	ff ff 16 16 
  412120:	0a 00 00 00 	bgez $22,411e58 <__mpn_divmod+0x808>
  412124:	4c ff 00 16 
  412128:	28 00 00 00 	lw $2,16($29)
  41212c:	10 00 02 1d 
  412130:	28 00 00 00 	lw $31,76($29)
  412134:	4c 00 1f 1d 
  412138:	28 00 00 00 	lw $30,72($29)
  41213c:	48 00 1e 1d 
  412140:	28 00 00 00 	lw $23,68($29)
  412144:	44 00 17 1d 
  412148:	28 00 00 00 	lw $22,64($29)
  41214c:	40 00 16 1d 
  412150:	28 00 00 00 	lw $21,60($29)
  412154:	3c 00 15 1d 
  412158:	28 00 00 00 	lw $20,56($29)
  41215c:	38 00 14 1d 
  412160:	28 00 00 00 	lw $19,52($29)
  412164:	34 00 13 1d 
  412168:	28 00 00 00 	lw $18,48($29)
  41216c:	30 00 12 1d 
  412170:	28 00 00 00 	lw $17,44($29)
  412174:	2c 00 11 1d 
  412178:	28 00 00 00 	lw $16,40($29)
  41217c:	28 00 10 1d 
  412180:	43 00 00 00 	addiu $29,$29,80
  412184:	50 00 1d 1d 
  412188:	03 00 00 00 	jr $31
  41218c:	00 00 00 1f 

00412190 <__mpn_rshift>:
  412190:	28 00 00 00 	lw $3,0($5)
  412194:	00 00 03 05 
  412198:	43 00 00 00 	addiu $8,$0,1
  41219c:	01 00 08 00 
  4121a0:	43 00 00 00 	addiu $4,$4,-4
  4121a4:	fc ff 04 04 
  4121a8:	43 00 00 00 	addiu $2,$0,32
  4121ac:	20 00 02 00 
  4121b0:	45 00 00 00 	subu $11,$2,$7
  4121b4:	00 0b 07 02 
  4121b8:	5b 00 00 00 	slt $2,$8,$6
  4121bc:	00 02 06 08 
  4121c0:	42 00 00 00 	addu $9,$0,$3
  4121c4:	00 09 03 00 
  4121c8:	56 00 00 00 	sllv $12,$9,$11
  4121cc:	00 0c 09 0b 
  4121d0:	05 00 00 00 	beq $2,$0,412240 <__mpn_rshift+0xb0>
  4121d4:	1a 00 00 02 
  4121d8:	43 00 00 00 	addiu $10,$4,4
  4121dc:	04 00 0a 04 
  4121e0:	43 00 00 00 	addiu $5,$5,4
  4121e4:	04 00 05 05 
  4121e8:	28 00 00 00 	lw $3,0($5)
  4121ec:	00 00 03 05 
  4121f0:	43 00 00 00 	addiu $8,$8,1
  4121f4:	01 00 08 08 
  4121f8:	58 00 00 00 	srlv $2,$9,$7
  4121fc:	00 02 09 07 
  412200:	42 00 00 00 	addu $9,$0,$3
  412204:	00 09 03 00 
  412208:	56 00 00 00 	sllv $3,$9,$11
  41220c:	00 03 09 0b 
  412210:	50 00 00 00 	or $2,$2,$3
  412214:	00 02 03 02 
  412218:	34 00 00 00 	sw $2,0($10)
  41221c:	00 00 02 0a 
  412220:	43 00 00 00 	addiu $10,$10,4
  412224:	04 00 0a 0a 
  412228:	43 00 00 00 	addiu $5,$5,4
  41222c:	04 00 05 05 
  412230:	5b 00 00 00 	slt $2,$8,$6
  412234:	00 02 06 08 
  412238:	06 00 00 00 	bne $2,$0,4121e8 <__mpn_rshift+0x58>
  41223c:	ea ff 00 02 
  412240:	55 00 00 00 	sll $2,$8,0x2
  412244:	02 02 08 00 
  412248:	42 00 00 00 	addu $2,$2,$4
  41224c:	00 02 04 02 
  412250:	58 00 00 00 	srlv $3,$9,$7
  412254:	00 03 09 07 
  412258:	34 00 00 00 	sw $3,0($2)
  41225c:	00 00 03 02 
  412260:	42 00 00 00 	addu $2,$0,$12
  412264:	00 02 0c 00 
  412268:	03 00 00 00 	jr $31
  41226c:	00 00 00 1f 

00412270 <__mpn_sub_n>:
  412270:	43 00 00 00 	addiu $29,$29,-8
  412274:	f8 ff 1d 1d 
  412278:	45 00 00 00 	subu $7,$0,$7
  41227c:	00 07 07 00 
  412280:	42 00 00 00 	addu $8,$0,$0
  412284:	00 08 00 00 
  412288:	28 00 00 00 	lw $2,0($6)
  41228c:	00 00 02 06 
  412290:	43 00 00 00 	addiu $7,$7,1
  412294:	01 00 07 07 
  412298:	28 00 00 00 	lw $3,0($5)
  41229c:	00 00 03 05 
  4122a0:	42 00 00 00 	addu $2,$2,$8
  4122a4:	00 02 08 02 
  4122a8:	5d 00 00 00 	sltu $8,$2,$8
  4122ac:	00 08 08 02 
  4122b0:	45 00 00 00 	subu $2,$3,$2
  4122b4:	00 02 02 03 
  4122b8:	5d 00 00 00 	sltu $3,$3,$2
  4122bc:	00 03 02 03 
  4122c0:	42 00 00 00 	addu $8,$8,$3
  4122c4:	00 08 03 08 
  4122c8:	34 00 00 00 	sw $2,0($4)
  4122cc:	00 00 02 04 
  4122d0:	43 00 00 00 	addiu $4,$4,4
  4122d4:	04 00 04 04 
  4122d8:	43 00 00 00 	addiu $5,$5,4
  4122dc:	04 00 05 05 
  4122e0:	43 00 00 00 	addiu $6,$6,4
  4122e4:	04 00 06 06 
  4122e8:	06 00 00 00 	bne $7,$0,412288 <__mpn_sub_n+0x18>
  4122ec:	e6 ff 00 07 
  4122f0:	42 00 00 00 	addu $2,$0,$8
  4122f4:	00 02 08 00 
  4122f8:	43 00 00 00 	addiu $29,$29,8
  4122fc:	08 00 1d 1d 
  412300:	03 00 00 00 	jr $31
  412304:	00 00 00 1f 
	...

00412310 <vsprintf>:
  412310:	43 00 00 00 	addiu $29,$29,-112
  412314:	90 ff 1d 1d 
  412318:	34 00 00 00 	sw $16,96($29)
  41231c:	60 00 10 1d 
  412320:	42 00 00 00 	addu $16,$0,$4
  412324:	00 10 04 00 
  412328:	34 00 00 00 	sw $17,100($29)
  41232c:	64 00 11 1d 
  412330:	42 00 00 00 	addu $17,$0,$5
  412334:	00 11 05 00 
  412338:	34 00 00 00 	sw $18,104($29)
  41233c:	68 00 12 1d 
  412340:	42 00 00 00 	addu $18,$0,$6
  412344:	00 12 06 00 
  412348:	43 00 00 00 	addiu $4,$29,16
  41234c:	10 00 04 1d 
  412350:	42 00 00 00 	addu $5,$0,$0
  412354:	00 05 00 00 
  412358:	43 00 00 00 	addiu $6,$0,80
  41235c:	50 00 06 00 
  412360:	34 00 00 00 	sw $31,108($29)
  412364:	6c 00 1f 1d 
  412368:	02 00 00 00 	jal 40f990 <memset>
  41236c:	64 3e 10 00 
  412370:	a2 00 00 00 	lui $2,65242
  412374:	da fe 02 00 
  412378:	51 00 00 00 	ori $2,$2,48875
  41237c:	eb be 02 02 
  412380:	43 00 00 00 	addiu $4,$29,16
  412384:	10 00 04 1d 
  412388:	28 00 00 00 	lw $3,44($29)
  41238c:	2c 00 03 1d 
  412390:	28 00 00 00 	lw $7,92($29)
  412394:	5c 00 07 1d 
  412398:	42 00 00 00 	addu $5,$0,$17
  41239c:	00 05 11 00 
  4123a0:	42 00 00 00 	addu $6,$0,$18
  4123a4:	00 06 12 00 
  4123a8:	34 00 00 00 	sw $2,16($29)
  4123ac:	10 00 02 1d 
  4123b0:	43 00 00 00 	addiu $2,$0,-1
  4123b4:	ff ff 02 00 
  4123b8:	34 00 00 00 	sw $2,28($29)
  4123bc:	1c 00 02 1d 
  4123c0:	54 00 00 00 	nor $2,$0,$16
  4123c4:	00 02 10 00 
  4123c8:	34 00 00 00 	sw $16,32($29)
  4123cc:	20 00 10 1d 
  4123d0:	34 00 00 00 	sw $16,20($29)
  4123d4:	14 00 10 1d 
  4123d8:	34 00 00 00 	sw $2,36($29)
  4123dc:	24 00 02 1d 
  4123e0:	34 00 00 00 	sw $16,24($29)
  4123e4:	18 00 10 1d 
  4123e8:	34 00 00 00 	sw $0,72($29)
  4123ec:	48 00 00 1d 
  4123f0:	51 00 00 00 	ori $3,$3,2
  4123f4:	02 00 03 03 
  4123f8:	51 00 00 00 	ori $7,$7,16384
  4123fc:	00 40 07 07 
  412400:	34 00 00 00 	sw $3,44($29)
  412404:	2c 00 03 1d 
  412408:	34 00 00 00 	sw $7,92($29)
  41240c:	5c 00 07 1d 
  412410:	02 00 00 00 	jal 4035d0 <vfprintf>
  412414:	74 0d 10 00 
  412418:	28 00 00 00 	lw $3,20($29)
  41241c:	14 00 03 1d 
  412420:	30 00 00 00 	sb $0,0($3)
  412424:	00 00 00 03 
  412428:	28 00 00 00 	lw $31,108($29)
  41242c:	6c 00 1f 1d 
  412430:	28 00 00 00 	lw $18,104($29)
  412434:	68 00 12 1d 
  412438:	28 00 00 00 	lw $17,100($29)
  41243c:	64 00 11 1d 
  412440:	28 00 00 00 	lw $16,96($29)
  412444:	60 00 10 1d 
  412448:	43 00 00 00 	addiu $29,$29,112
  41244c:	70 00 1d 1d 
  412450:	03 00 00 00 	jr $31
  412454:	00 00 00 1f 
	...

00412460 <__sbrk>:
  412460:	43 00 00 00 	addiu $29,$29,-24
  412464:	e8 ff 1d 1d 
  412468:	34 00 00 00 	sw $31,20($29)
  41246c:	14 00 1f 1d 
  412470:	34 00 00 00 	sw $16,16($29)
  412474:	10 00 10 1d 
  412478:	06 00 00 00 	bne $4,$0,412490 <__sbrk+0x30>
  41247c:	04 00 00 04 
  412480:	28 00 00 00 	lw $2,-32464($28)
  412484:	30 81 02 1c 
  412488:	01 00 00 00 	j 4124c8 <__sbrk+0x68>
  41248c:	32 49 10 00 
  412490:	28 00 00 00 	lw $16,-32464($28)
  412494:	30 81 10 1c 
  412498:	42 00 00 00 	addu $4,$16,$4
  41249c:	00 04 04 10 
  4124a0:	02 00 00 00 	jal 412eb0 <__brk>
  4124a4:	ac 4b 10 00 
  4124a8:	42 00 00 00 	addu $3,$0,$2
  4124ac:	00 03 02 00 
  4124b0:	43 00 00 00 	addiu $2,$0,-1
  4124b4:	ff ff 02 00 
  4124b8:	09 00 00 00 	bltz $3,4124c8 <__sbrk+0x68>
  4124bc:	02 00 00 03 
  4124c0:	42 00 00 00 	addu $2,$0,$16
  4124c4:	00 02 10 00 
  4124c8:	28 00 00 00 	lw $31,20($29)
  4124cc:	14 00 1f 1d 
  4124d0:	28 00 00 00 	lw $16,16($29)
  4124d4:	10 00 10 1d 
  4124d8:	43 00 00 00 	addiu $29,$29,24
  4124dc:	18 00 1d 1d 
  4124e0:	03 00 00 00 	jr $31
  4124e4:	00 00 00 1f 
	...

004124f0 <_wordcopy_fwd_aligned>:
  4124f0:	4f 00 00 00 	andi $7,$6,7
  4124f4:	07 00 07 06 
  4124f8:	5e 00 00 00 	sltiu $2,$7,8
  4124fc:	08 00 02 07 
  412500:	05 00 00 00 	beq $2,$0,412650 <_wordcopy_fwd_aligned+0x160>
  412504:	52 00 00 02 
  412508:	55 00 00 00 	sll $2,$7,0x2
  41250c:	02 02 07 00 
  412510:	a2 00 00 00 	lui $1,4096
  412514:	00 10 01 00 
  412518:	42 00 00 00 	addu $1,$1,$2
  41251c:	00 01 02 01 
  412520:	28 00 00 00 	lw $2,4800($1)
  412524:	c0 12 02 01 
  412528:	03 00 00 00 	jr $2
  41252c:	00 00 00 02 
  412530:	28 00 00 00 	lw $2,0($5)
  412534:	00 00 02 05 
  412538:	43 00 00 00 	addiu $4,$4,-28
  41253c:	e4 ff 04 04 
  412540:	43 00 00 00 	addiu $6,$6,6
  412544:	06 00 06 06 
  412548:	43 00 00 00 	addiu $5,$5,-24
  41254c:	e8 ff 05 05 
  412550:	01 00 00 00 	j 4126c0 <_wordcopy_fwd_aligned+0x1d0>
  412554:	b0 49 10 00 
  412558:	28 00 00 00 	lw $3,0($5)
  41255c:	00 00 03 05 
  412560:	43 00 00 00 	addiu $4,$4,-24
  412564:	e8 ff 04 04 
  412568:	43 00 00 00 	addiu $6,$6,5
  41256c:	05 00 06 06 
  412570:	43 00 00 00 	addiu $5,$5,-20
  412574:	ec ff 05 05 
  412578:	01 00 00 00 	j 4126b0 <_wordcopy_fwd_aligned+0x1c0>
  41257c:	ac 49 10 00 
  412580:	28 00 00 00 	lw $2,0($5)
  412584:	00 00 02 05 
  412588:	43 00 00 00 	addiu $4,$4,-20
  41258c:	ec ff 04 04 
  412590:	43 00 00 00 	addiu $6,$6,4
  412594:	04 00 06 06 
  412598:	43 00 00 00 	addiu $5,$5,-16
  41259c:	f0 ff 05 05 
  4125a0:	01 00 00 00 	j 4126a0 <_wordcopy_fwd_aligned+0x1b0>
  4125a4:	a8 49 10 00 
  4125a8:	28 00 00 00 	lw $3,0($5)
  4125ac:	00 00 03 05 
  4125b0:	43 00 00 00 	addiu $4,$4,-16
  4125b4:	f0 ff 04 04 
  4125b8:	43 00 00 00 	addiu $6,$6,3
  4125bc:	03 00 06 06 
  4125c0:	43 00 00 00 	addiu $5,$5,-12
  4125c4:	f4 ff 05 05 
  4125c8:	01 00 00 00 	j 412690 <_wordcopy_fwd_aligned+0x1a0>
  4125cc:	a4 49 10 00 
  4125d0:	28 00 00 00 	lw $2,0($5)
  4125d4:	00 00 02 05 
  4125d8:	43 00 00 00 	addiu $4,$4,-12
  4125dc:	f4 ff 04 04 
  4125e0:	43 00 00 00 	addiu $6,$6,2
  4125e4:	02 00 06 06 
  4125e8:	43 00 00 00 	addiu $5,$5,-8
  4125ec:	f8 ff 05 05 
  4125f0:	01 00 00 00 	j 412680 <_wordcopy_fwd_aligned+0x190>
  4125f4:	a0 49 10 00 
  4125f8:	28 00 00 00 	lw $3,0($5)
  4125fc:	00 00 03 05 
  412600:	43 00 00 00 	addiu $4,$4,-8
  412604:	f8 ff 04 04 
  412608:	43 00 00 00 	addiu $6,$6,1
  41260c:	01 00 06 06 
  412610:	43 00 00 00 	addiu $5,$5,-4
  412614:	fc ff 05 05 
  412618:	01 00 00 00 	j 412670 <_wordcopy_fwd_aligned+0x180>
  41261c:	9c 49 10 00 
  412620:	28 00 00 00 	lw $2,0($5)
  412624:	00 00 02 05 
  412628:	43 00 00 00 	addiu $4,$4,-4
  41262c:	fc ff 04 04 
  412630:	01 00 00 00 	j 412660 <_wordcopy_fwd_aligned+0x170>
  412634:	98 49 10 00 
  412638:	28 00 00 00 	lw $3,0($5)
  41263c:	00 00 03 05 
  412640:	43 00 00 00 	addiu $6,$6,-1
  412644:	ff ff 06 06 
  412648:	43 00 00 00 	addiu $5,$5,4
  41264c:	04 00 05 05 
  412650:	28 00 00 00 	lw $2,0($5)
  412654:	00 00 02 05 
  412658:	34 00 00 00 	sw $3,0($4)
  41265c:	00 00 03 04 
  412660:	28 00 00 00 	lw $3,4($5)
  412664:	04 00 03 05 
  412668:	34 00 00 00 	sw $2,4($4)
  41266c:	04 00 02 04 
  412670:	28 00 00 00 	lw $2,8($5)
  412674:	08 00 02 05 
  412678:	34 00 00 00 	sw $3,8($4)
  41267c:	08 00 03 04 
  412680:	28 00 00 00 	lw $3,12($5)
  412684:	0c 00 03 05 
  412688:	34 00 00 00 	sw $2,12($4)
  41268c:	0c 00 02 04 
  412690:	28 00 00 00 	lw $2,16($5)
  412694:	10 00 02 05 
  412698:	34 00 00 00 	sw $3,16($4)
  41269c:	10 00 03 04 
  4126a0:	28 00 00 00 	lw $3,20($5)
  4126a4:	14 00 03 05 
  4126a8:	34 00 00 00 	sw $2,20($4)
  4126ac:	14 00 02 04 
  4126b0:	28 00 00 00 	lw $2,24($5)
  4126b4:	18 00 02 05 
  4126b8:	34 00 00 00 	sw $3,24($4)
  4126bc:	18 00 03 04 
  4126c0:	28 00 00 00 	lw $3,28($5)
  4126c4:	1c 00 03 05 
  4126c8:	43 00 00 00 	addiu $6,$6,-8
  4126cc:	f8 ff 06 06 
  4126d0:	43 00 00 00 	addiu $5,$5,32
  4126d4:	20 00 05 05 
  4126d8:	34 00 00 00 	sw $2,28($4)
  4126dc:	1c 00 02 04 
  4126e0:	43 00 00 00 	addiu $4,$4,32
  4126e4:	20 00 04 04 
  4126e8:	06 00 00 00 	bne $6,$0,412650 <_wordcopy_fwd_aligned+0x160>
  4126ec:	d8 ff 00 06 
  4126f0:	34 00 00 00 	sw $3,0($4)
  4126f4:	00 00 03 04 
  4126f8:	03 00 00 00 	jr $31
  4126fc:	00 00 00 1f 

00412700 <_wordcopy_fwd_dest_aligned>:
  412700:	4f 00 00 00 	andi $3,$5,3
  412704:	03 00 03 05 
  412708:	43 00 00 00 	addiu $2,$0,-4
  41270c:	fc ff 02 00 
  412710:	4e 00 00 00 	and $5,$5,$2
  412714:	00 05 02 05 
  412718:	55 00 00 00 	sll $11,$3,0x3
  41271c:	03 0b 03 00 
  412720:	43 00 00 00 	addiu $2,$0,32
  412724:	20 00 02 00 
  412728:	45 00 00 00 	subu $12,$2,$11
  41272c:	00 0c 0b 02 
  412730:	4f 00 00 00 	andi $3,$6,3
  412734:	03 00 03 06 
  412738:	43 00 00 00 	addiu $2,$0,1
  41273c:	01 00 02 00 
  412740:	05 00 00 00 	beq $3,$2,4127f8 <_wordcopy_fwd_dest_aligned+0xf8>
  412744:	2c 00 02 03 
  412748:	05 00 00 00 	beq $3,$0,4127d0 <_wordcopy_fwd_dest_aligned+0xd0>
  41274c:	20 00 00 03 
  412750:	43 00 00 00 	addiu $2,$0,2
  412754:	02 00 02 00 
  412758:	05 00 00 00 	beq $3,$2,412778 <_wordcopy_fwd_dest_aligned+0x78>
  41275c:	06 00 02 03 
  412760:	43 00 00 00 	addiu $2,$0,3
  412764:	03 00 02 00 
  412768:	05 00 00 00 	beq $3,$2,4127a8 <_wordcopy_fwd_dest_aligned+0xa8>
  41276c:	0e 00 02 03 
  412770:	01 00 00 00 	j 412818 <_wordcopy_fwd_dest_aligned+0x118>
  412774:	06 4a 10 00 
  412778:	28 00 00 00 	lw $8,0($5)
  41277c:	00 00 08 05 
  412780:	28 00 00 00 	lw $9,4($5)
  412784:	04 00 09 05 
  412788:	43 00 00 00 	addiu $4,$4,-12
  41278c:	f4 ff 04 04 
  412790:	43 00 00 00 	addiu $6,$6,2
  412794:	02 00 06 06 
  412798:	43 00 00 00 	addiu $5,$5,-4
  41279c:	fc ff 05 05 
  4127a0:	01 00 00 00 	j 412890 <_wordcopy_fwd_dest_aligned+0x190>
  4127a4:	24 4a 10 00 
  4127a8:	28 00 00 00 	lw $7,0($5)
  4127ac:	00 00 07 05 
  4127b0:	28 00 00 00 	lw $8,4($5)
  4127b4:	04 00 08 05 
  4127b8:	43 00 00 00 	addiu $4,$4,-8
  4127bc:	f8 ff 04 04 
  4127c0:	43 00 00 00 	addiu $6,$6,1
  4127c4:	01 00 06 06 
  4127c8:	01 00 00 00 	j 412868 <_wordcopy_fwd_dest_aligned+0x168>
  4127cc:	1a 4a 10 00 
  4127d0:	28 00 00 00 	lw $10,0($5)
  4127d4:	00 00 0a 05 
  4127d8:	28 00 00 00 	lw $7,4($5)
  4127dc:	04 00 07 05 
  4127e0:	43 00 00 00 	addiu $4,$4,-4
  4127e4:	fc ff 04 04 
  4127e8:	43 00 00 00 	addiu $5,$5,4
  4127ec:	04 00 05 05 
  4127f0:	01 00 00 00 	j 412840 <_wordcopy_fwd_dest_aligned+0x140>
  4127f4:	10 4a 10 00 
  4127f8:	28 00 00 00 	lw $9,0($5)
  4127fc:	00 00 09 05 
  412800:	28 00 00 00 	lw $10,4($5)
  412804:	04 00 0a 05 
  412808:	43 00 00 00 	addiu $6,$6,-1
  41280c:	ff ff 06 06 
  412810:	43 00 00 00 	addiu $5,$5,8
  412814:	08 00 05 05 
  412818:	28 00 00 00 	lw $7,0($5)
  41281c:	00 00 07 05 
  412820:	58 00 00 00 	srlv $2,$9,$11
  412824:	00 02 09 0b 
  412828:	56 00 00 00 	sllv $3,$10,$12
  41282c:	00 03 0a 0c 
  412830:	50 00 00 00 	or $2,$2,$3
  412834:	00 02 03 02 
  412838:	34 00 00 00 	sw $2,0($4)
  41283c:	00 00 02 04 
  412840:	28 00 00 00 	lw $8,4($5)
  412844:	04 00 08 05 
  412848:	58 00 00 00 	srlv $2,$10,$11
  41284c:	00 02 0a 0b 
  412850:	56 00 00 00 	sllv $3,$7,$12
  412854:	00 03 07 0c 
  412858:	50 00 00 00 	or $2,$2,$3
  41285c:	00 02 03 02 
  412860:	34 00 00 00 	sw $2,4($4)
  412864:	04 00 02 04 
  412868:	28 00 00 00 	lw $9,8($5)
  41286c:	08 00 09 05 
  412870:	58 00 00 00 	srlv $2,$7,$11
  412874:	00 02 07 0b 
  412878:	56 00 00 00 	sllv $3,$8,$12
  41287c:	00 03 08 0c 
  412880:	50 00 00 00 	or $2,$2,$3
  412884:	00 02 03 02 
  412888:	34 00 00 00 	sw $2,8($4)
  41288c:	08 00 02 04 
  412890:	28 00 00 00 	lw $10,12($5)
  412894:	0c 00 0a 05 
  412898:	43 00 00 00 	addiu $6,$6,-4
  41289c:	fc ff 06 06 
  4128a0:	58 00 00 00 	srlv $2,$8,$11
  4128a4:	00 02 08 0b 
  4128a8:	56 00 00 00 	sllv $3,$9,$12
  4128ac:	00 03 09 0c 
  4128b0:	50 00 00 00 	or $2,$2,$3
  4128b4:	00 02 03 02 
  4128b8:	43 00 00 00 	addiu $5,$5,16
  4128bc:	10 00 05 05 
  4128c0:	34 00 00 00 	sw $2,12($4)
  4128c4:	0c 00 02 04 
  4128c8:	43 00 00 00 	addiu $4,$4,16
  4128cc:	10 00 04 04 
  4128d0:	06 00 00 00 	bne $6,$0,412818 <_wordcopy_fwd_dest_aligned+0x118>
  4128d4:	d0 ff 00 06 
  4128d8:	58 00 00 00 	srlv $2,$9,$11
  4128dc:	00 02 09 0b 
  4128e0:	56 00 00 00 	sllv $3,$10,$12
  4128e4:	00 03 0a 0c 
  4128e8:	50 00 00 00 	or $2,$2,$3
  4128ec:	00 02 03 02 
  4128f0:	34 00 00 00 	sw $2,0($4)
  4128f4:	00 00 02 04 
  4128f8:	03 00 00 00 	jr $31
  4128fc:	00 00 00 1f 

00412900 <_wordcopy_bwd_aligned>:
  412900:	4f 00 00 00 	andi $7,$6,7
  412904:	07 00 07 06 
  412908:	5e 00 00 00 	sltiu $2,$7,8
  41290c:	08 00 02 07 
  412910:	05 00 00 00 	beq $2,$0,412a70 <_wordcopy_bwd_aligned+0x170>
  412914:	56 00 00 02 
  412918:	55 00 00 00 	sll $2,$7,0x2
  41291c:	02 02 07 00 
  412920:	a2 00 00 00 	lui $1,4096
  412924:	00 10 01 00 
  412928:	42 00 00 00 	addu $1,$1,$2
  41292c:	00 01 02 01 
  412930:	28 00 00 00 	lw $2,4832($1)
  412934:	e0 12 02 01 
  412938:	03 00 00 00 	jr $2
  41293c:	00 00 00 02 
  412940:	43 00 00 00 	addiu $5,$5,-8
  412944:	f8 ff 05 05 
  412948:	28 00 00 00 	lw $2,4($5)
  41294c:	04 00 02 05 
  412950:	43 00 00 00 	addiu $4,$4,-4
  412954:	fc ff 04 04 
  412958:	43 00 00 00 	addiu $6,$6,6
  41295c:	06 00 06 06 
  412960:	01 00 00 00 	j 412ae0 <_wordcopy_bwd_aligned+0x1e0>
  412964:	b8 4a 10 00 
  412968:	43 00 00 00 	addiu $5,$5,-12
  41296c:	f4 ff 05 05 
  412970:	28 00 00 00 	lw $3,8($5)
  412974:	08 00 03 05 
  412978:	43 00 00 00 	addiu $4,$4,-8
  41297c:	f8 ff 04 04 
  412980:	43 00 00 00 	addiu $6,$6,5
  412984:	05 00 06 06 
  412988:	01 00 00 00 	j 412ad0 <_wordcopy_bwd_aligned+0x1d0>
  41298c:	b4 4a 10 00 
  412990:	43 00 00 00 	addiu $5,$5,-16
  412994:	f0 ff 05 05 
  412998:	28 00 00 00 	lw $2,12($5)
  41299c:	0c 00 02 05 
  4129a0:	43 00 00 00 	addiu $4,$4,-12
  4129a4:	f4 ff 04 04 
  4129a8:	43 00 00 00 	addiu $6,$6,4
  4129ac:	04 00 06 06 
  4129b0:	01 00 00 00 	j 412ac0 <_wordcopy_bwd_aligned+0x1c0>
  4129b4:	b0 4a 10 00 
  4129b8:	43 00 00 00 	addiu $5,$5,-20
  4129bc:	ec ff 05 05 
  4129c0:	28 00 00 00 	lw $3,16($5)
  4129c4:	10 00 03 05 
  4129c8:	43 00 00 00 	addiu $4,$4,-16
  4129cc:	f0 ff 04 04 
  4129d0:	43 00 00 00 	addiu $6,$6,3
  4129d4:	03 00 06 06 
  4129d8:	01 00 00 00 	j 412ab0 <_wordcopy_bwd_aligned+0x1b0>
  4129dc:	ac 4a 10 00 
  4129e0:	43 00 00 00 	addiu $5,$5,-24
  4129e4:	e8 ff 05 05 
  4129e8:	28 00 00 00 	lw $2,20($5)
  4129ec:	14 00 02 05 
  4129f0:	43 00 00 00 	addiu $4,$4,-20
  4129f4:	ec ff 04 04 
  4129f8:	43 00 00 00 	addiu $6,$6,2
  4129fc:	02 00 06 06 
  412a00:	01 00 00 00 	j 412aa0 <_wordcopy_bwd_aligned+0x1a0>
  412a04:	a8 4a 10 00 
  412a08:	43 00 00 00 	addiu $5,$5,-28
  412a0c:	e4 ff 05 05 
  412a10:	28 00 00 00 	lw $3,24($5)
  412a14:	18 00 03 05 
  412a18:	43 00 00 00 	addiu $4,$4,-24
  412a1c:	e8 ff 04 04 
  412a20:	43 00 00 00 	addiu $6,$6,1
  412a24:	01 00 06 06 
  412a28:	01 00 00 00 	j 412a90 <_wordcopy_bwd_aligned+0x190>
  412a2c:	a4 4a 10 00 
  412a30:	43 00 00 00 	addiu $5,$5,-32
  412a34:	e0 ff 05 05 
  412a38:	28 00 00 00 	lw $2,28($5)
  412a3c:	1c 00 02 05 
  412a40:	43 00 00 00 	addiu $4,$4,-28
  412a44:	e4 ff 04 04 
  412a48:	01 00 00 00 	j 412a80 <_wordcopy_bwd_aligned+0x180>
  412a4c:	a0 4a 10 00 
  412a50:	43 00 00 00 	addiu $5,$5,-36
  412a54:	dc ff 05 05 
  412a58:	43 00 00 00 	addiu $4,$4,-32
  412a5c:	e0 ff 04 04 
  412a60:	28 00 00 00 	lw $3,32($5)
  412a64:	20 00 03 05 
  412a68:	43 00 00 00 	addiu $6,$6,-1
  412a6c:	ff ff 06 06 
  412a70:	28 00 00 00 	lw $2,28($5)
  412a74:	1c 00 02 05 
  412a78:	34 00 00 00 	sw $3,28($4)
  412a7c:	1c 00 03 04 
  412a80:	28 00 00 00 	lw $3,24($5)
  412a84:	18 00 03 05 
  412a88:	34 00 00 00 	sw $2,24($4)
  412a8c:	18 00 02 04 
  412a90:	28 00 00 00 	lw $2,20($5)
  412a94:	14 00 02 05 
  412a98:	34 00 00 00 	sw $3,20($4)
  412a9c:	14 00 03 04 
  412aa0:	28 00 00 00 	lw $3,16($5)
  412aa4:	10 00 03 05 
  412aa8:	34 00 00 00 	sw $2,16($4)
  412aac:	10 00 02 04 
  412ab0:	28 00 00 00 	lw $2,12($5)
  412ab4:	0c 00 02 05 
  412ab8:	34 00 00 00 	sw $3,12($4)
  412abc:	0c 00 03 04 
  412ac0:	28 00 00 00 	lw $3,8($5)
  412ac4:	08 00 03 05 
  412ac8:	34 00 00 00 	sw $2,8($4)
  412acc:	08 00 02 04 
  412ad0:	28 00 00 00 	lw $2,4($5)
  412ad4:	04 00 02 05 
  412ad8:	34 00 00 00 	sw $3,4($4)
  412adc:	04 00 03 04 
  412ae0:	28 00 00 00 	lw $3,0($5)
  412ae4:	00 00 03 05 
  412ae8:	43 00 00 00 	addiu $6,$6,-8
  412aec:	f8 ff 06 06 
  412af0:	43 00 00 00 	addiu $5,$5,-32
  412af4:	e0 ff 05 05 
  412af8:	34 00 00 00 	sw $2,0($4)
  412afc:	00 00 02 04 
  412b00:	43 00 00 00 	addiu $4,$4,-32
  412b04:	e0 ff 04 04 
  412b08:	06 00 00 00 	bne $6,$0,412a70 <_wordcopy_bwd_aligned+0x170>
  412b0c:	d8 ff 00 06 
  412b10:	34 00 00 00 	sw $3,28($4)
  412b14:	1c 00 03 04 
  412b18:	03 00 00 00 	jr $31
  412b1c:	00 00 00 1f 

00412b20 <_wordcopy_bwd_dest_aligned>:
  412b20:	4f 00 00 00 	andi $3,$5,3
  412b24:	03 00 03 05 
  412b28:	43 00 00 00 	addiu $2,$0,-4
  412b2c:	fc ff 02 00 
  412b30:	4e 00 00 00 	and $5,$5,$2
  412b34:	00 05 02 05 
  412b38:	43 00 00 00 	addiu $5,$5,4
  412b3c:	04 00 05 05 
  412b40:	55 00 00 00 	sll $11,$3,0x3
  412b44:	03 0b 03 00 
  412b48:	43 00 00 00 	addiu $2,$0,32
  412b4c:	20 00 02 00 
  412b50:	45 00 00 00 	subu $12,$2,$11
  412b54:	00 0c 0b 02 
  412b58:	4f 00 00 00 	andi $3,$6,3
  412b5c:	03 00 03 06 
  412b60:	43 00 00 00 	addiu $2,$0,1
  412b64:	01 00 02 00 
  412b68:	05 00 00 00 	beq $3,$2,412c28 <_wordcopy_bwd_dest_aligned+0x108>
  412b6c:	2e 00 02 03 
  412b70:	05 00 00 00 	beq $3,$0,412c00 <_wordcopy_bwd_dest_aligned+0xe0>
  412b74:	22 00 00 03 
  412b78:	43 00 00 00 	addiu $2,$0,2
  412b7c:	02 00 02 00 
  412b80:	05 00 00 00 	beq $3,$2,412ba0 <_wordcopy_bwd_dest_aligned+0x80>
  412b84:	06 00 02 03 
  412b88:	43 00 00 00 	addiu $2,$0,3
  412b8c:	03 00 02 00 
  412b90:	05 00 00 00 	beq $3,$2,412bd0 <_wordcopy_bwd_dest_aligned+0xb0>
  412b94:	0e 00 02 03 
  412b98:	01 00 00 00 	j 412c50 <_wordcopy_bwd_dest_aligned+0x130>
  412b9c:	14 4b 10 00 
  412ba0:	43 00 00 00 	addiu $5,$5,-12
  412ba4:	f4 ff 05 05 
  412ba8:	28 00 00 00 	lw $8,8($5)
  412bac:	08 00 08 05 
  412bb0:	28 00 00 00 	lw $10,4($5)
  412bb4:	04 00 0a 05 
  412bb8:	43 00 00 00 	addiu $4,$4,-4
  412bbc:	fc ff 04 04 
  412bc0:	43 00 00 00 	addiu $6,$6,2
  412bc4:	02 00 06 06 
  412bc8:	01 00 00 00 	j 412cc8 <_wordcopy_bwd_dest_aligned+0x1a8>
  412bcc:	32 4b 10 00 
  412bd0:	43 00 00 00 	addiu $5,$5,-16
  412bd4:	f0 ff 05 05 
  412bd8:	28 00 00 00 	lw $7,12($5)
  412bdc:	0c 00 07 05 
  412be0:	28 00 00 00 	lw $8,8($5)
  412be4:	08 00 08 05 
  412be8:	43 00 00 00 	addiu $4,$4,-8
  412bec:	f8 ff 04 04 
  412bf0:	43 00 00 00 	addiu $6,$6,1
  412bf4:	01 00 06 06 
  412bf8:	01 00 00 00 	j 412ca0 <_wordcopy_bwd_dest_aligned+0x180>
  412bfc:	28 4b 10 00 
  412c00:	43 00 00 00 	addiu $5,$5,-20
  412c04:	ec ff 05 05 
  412c08:	28 00 00 00 	lw $9,16($5)
  412c0c:	10 00 09 05 
  412c10:	28 00 00 00 	lw $7,12($5)
  412c14:	0c 00 07 05 
  412c18:	43 00 00 00 	addiu $4,$4,-12
  412c1c:	f4 ff 04 04 
  412c20:	01 00 00 00 	j 412c78 <_wordcopy_bwd_dest_aligned+0x158>
  412c24:	1e 4b 10 00 
  412c28:	43 00 00 00 	addiu $5,$5,-24
  412c2c:	e8 ff 05 05 
  412c30:	43 00 00 00 	addiu $4,$4,-16
  412c34:	f0 ff 04 04 
  412c38:	28 00 00 00 	lw $10,20($5)
  412c3c:	14 00 0a 05 
  412c40:	28 00 00 00 	lw $9,16($5)
  412c44:	10 00 09 05 
  412c48:	43 00 00 00 	addiu $6,$6,-1
  412c4c:	ff ff 06 06 
  412c50:	28 00 00 00 	lw $7,12($5)
  412c54:	0c 00 07 05 
  412c58:	58 00 00 00 	srlv $2,$9,$11
  412c5c:	00 02 09 0b 
  412c60:	56 00 00 00 	sllv $3,$10,$12
  412c64:	00 03 0a 0c 
  412c68:	50 00 00 00 	or $2,$2,$3
  412c6c:	00 02 03 02 
  412c70:	34 00 00 00 	sw $2,12($4)
  412c74:	0c 00 02 04 
  412c78:	28 00 00 00 	lw $8,8($5)
  412c7c:	08 00 08 05 
  412c80:	58 00 00 00 	srlv $2,$7,$11
  412c84:	00 02 07 0b 
  412c88:	56 00 00 00 	sllv $3,$9,$12
  412c8c:	00 03 09 0c 
  412c90:	50 00 00 00 	or $2,$2,$3
  412c94:	00 02 03 02 
  412c98:	34 00 00 00 	sw $2,8($4)
  412c9c:	08 00 02 04 
  412ca0:	28 00 00 00 	lw $10,4($5)
  412ca4:	04 00 0a 05 
  412ca8:	58 00 00 00 	srlv $2,$8,$11
  412cac:	00 02 08 0b 
  412cb0:	56 00 00 00 	sllv $3,$7,$12
  412cb4:	00 03 07 0c 
  412cb8:	50 00 00 00 	or $2,$2,$3
  412cbc:	00 02 03 02 
  412cc0:	34 00 00 00 	sw $2,4($4)
  412cc4:	04 00 02 04 
  412cc8:	28 00 00 00 	lw $9,0($5)
  412ccc:	00 00 09 05 
  412cd0:	43 00 00 00 	addiu $6,$6,-4
  412cd4:	fc ff 06 06 
  412cd8:	58 00 00 00 	srlv $2,$10,$11
  412cdc:	00 02 0a 0b 
  412ce0:	56 00 00 00 	sllv $3,$8,$12
  412ce4:	00 03 08 0c 
  412ce8:	50 00 00 00 	or $2,$2,$3
  412cec:	00 02 03 02 
  412cf0:	43 00 00 00 	addiu $5,$5,-16
  412cf4:	f0 ff 05 05 
  412cf8:	34 00 00 00 	sw $2,0($4)
  412cfc:	00 00 02 04 
  412d00:	43 00 00 00 	addiu $4,$4,-16
  412d04:	f0 ff 04 04 
  412d08:	06 00 00 00 	bne $6,$0,412c50 <_wordcopy_bwd_dest_aligned+0x130>
  412d0c:	d0 ff 00 06 
  412d10:	58 00 00 00 	srlv $2,$9,$11
  412d14:	00 02 09 0b 
  412d18:	56 00 00 00 	sllv $3,$10,$12
  412d1c:	00 03 0a 0c 
  412d20:	50 00 00 00 	or $2,$2,$3
  412d24:	00 02 03 02 
  412d28:	34 00 00 00 	sw $2,12($4)
  412d2c:	0c 00 02 04 
  412d30:	03 00 00 00 	jr $31
  412d34:	00 00 00 1f 
	...
  412d40:	01 00 00 00 	j 407320 <syscall_error>
  412d44:	c8 1c 10 00 
	...

00412d50 <__fstat>:
  412d50:	43 00 00 00 	addiu $2,$0,62
  412d54:	3e 00 02 00 
  412d58:	a0 00 00 00 	syscall 
  412d5c:	00 00 00 00 
  412d60:	06 00 00 00 	bne $7,$0,412d40 <_wordcopy_bwd_dest_aligned+0x220>
  412d64:	f6 ff 00 07 
	...
  412d70:	03 00 00 00 	jr $31
  412d74:	00 00 00 1f 
	...

00412d80 <__isatty>:
  412d80:	43 00 00 00 	addiu $29,$29,-32
  412d84:	e0 ff 1d 1d 
  412d88:	a2 00 00 00 	lui $5,16390
  412d8c:	06 40 05 00 
  412d90:	34 00 00 00 	sw $16,24($29)
  412d94:	18 00 10 1d 
  412d98:	28 00 00 00 	lw $16,-32416($28)
  412d9c:	60 81 10 1c 
  412da0:	51 00 00 00 	ori $5,$5,29704
  412da4:	08 74 05 05 
  412da8:	43 00 00 00 	addiu $6,$29,16
  412dac:	10 00 06 1d 
  412db0:	34 00 00 00 	sw $31,28($29)
  412db4:	1c 00 1f 1d 
  412db8:	02 00 00 00 	jal 412f20 <__ioctl>
  412dbc:	c8 4b 10 00 
  412dc0:	5e 00 00 00 	sltiu $2,$2,1
  412dc4:	01 00 02 02 
  412dc8:	34 00 00 00 	sw $16,-32416($28)
  412dcc:	60 81 10 1c 
  412dd0:	28 00 00 00 	lw $31,28($29)
  412dd4:	1c 00 1f 1d 
  412dd8:	28 00 00 00 	lw $16,24($29)
  412ddc:	18 00 10 1d 
  412de0:	43 00 00 00 	addiu $29,$29,32
  412de4:	20 00 1d 1d 
  412de8:	03 00 00 00 	jr $31
  412dec:	00 00 00 1f 

00412df0 <__mpn_submul_1>:
  412df0:	43 00 00 00 	addiu $29,$29,-8
  412df4:	f8 ff 1d 1d 
  412df8:	45 00 00 00 	subu $6,$0,$6
  412dfc:	00 06 06 00 
  412e00:	42 00 00 00 	addu $8,$0,$0
  412e04:	00 08 00 00 
  412e08:	42 00 00 00 	addu $9,$0,$4
  412e0c:	00 09 04 00 
  412e10:	28 00 00 00 	lw $10,0($5)
  412e14:	00 00 0a 05 
  412e18:	47 00 00 00 	multu $10,$7
  412e1c:	00 00 07 0a 
  412e20:	4c 00 00 00 	mflo $3
  412e24:	00 03 00 00 
  412e28:	4a 00 00 00 	mfhi $4
  412e2c:	00 04 00 00 
  412e30:	42 00 00 00 	addu $3,$3,$8
  412e34:	00 03 08 03 
  412e38:	5d 00 00 00 	sltu $2,$3,$8
  412e3c:	00 02 08 03 
  412e40:	42 00 00 00 	addu $8,$4,$2
  412e44:	00 08 02 04 
  412e48:	28 00 00 00 	lw $2,0($9)
  412e4c:	00 00 02 09 
  412e50:	43 00 00 00 	addiu $6,$6,1
  412e54:	01 00 06 06 
  412e58:	43 00 00 00 	addiu $5,$5,4
  412e5c:	04 00 05 05 
  412e60:	45 00 00 00 	subu $3,$2,$3
  412e64:	00 03 03 02 
  412e68:	5d 00 00 00 	sltu $2,$2,$3
  412e6c:	00 02 03 02 
  412e70:	42 00 00 00 	addu $8,$8,$2
  412e74:	00 08 02 08 
  412e78:	34 00 00 00 	sw $3,0($9)
  412e7c:	00 00 03 09 
  412e80:	43 00 00 00 	addiu $9,$9,4
  412e84:	04 00 09 09 
  412e88:	06 00 00 00 	bne $6,$0,412e10 <__mpn_submul_1+0x20>
  412e8c:	e0 ff 00 06 
  412e90:	42 00 00 00 	addu $2,$0,$8
  412e94:	00 02 08 00 
  412e98:	43 00 00 00 	addiu $29,$29,8
  412e9c:	08 00 1d 1d 
  412ea0:	03 00 00 00 	jr $31
  412ea4:	00 00 00 1f 
	...

00412eb0 <__brk>:
  412eb0:	28 00 00 00 	lw $2,-32460($28)
  412eb4:	34 81 02 1c 
  412eb8:	5d 00 00 00 	sltu $1,$4,$2
  412ebc:	00 01 02 04 
  412ec0:	05 00 00 00 	beq $1,$0,412ed0 <__brk+0x20>
  412ec4:	02 00 00 01 
  412ec8:	42 00 00 00 	addu $4,$0,$2
  412ecc:	00 04 02 00 
  412ed0:	43 00 00 00 	addiu $2,$0,17
  412ed4:	11 00 02 00 
  412ed8:	a0 00 00 00 	syscall 
  412edc:	00 00 00 00 
  412ee0:	06 00 00 00 	bne $7,$0,412f00 <__brk+0x50>
  412ee4:	06 00 00 07 
  412ee8:	34 00 00 00 	sw $4,-32464($28)
  412eec:	30 81 04 1c 
  412ef0:	42 00 00 00 	addu $2,$0,$0
  412ef4:	00 02 00 00 
  412ef8:	03 00 00 00 	jr $31
  412efc:	00 00 00 1f 
  412f00:	01 00 00 00 	j 407320 <syscall_error>
  412f04:	c8 1c 10 00 
	...
  412f10:	01 00 00 00 	j 407320 <syscall_error>
  412f14:	c8 1c 10 00 
	...

00412f20 <__ioctl>:
  412f20:	43 00 00 00 	addiu $2,$0,54
  412f24:	36 00 02 00 
  412f28:	a0 00 00 00 	syscall 
  412f2c:	00 00 00 00 
  412f30:	06 00 00 00 	bne $7,$0,412f10 <__brk+0x60>
  412f34:	f6 ff 00 07 
	...
  412f40:	03 00 00 00 	jr $31
  412f44:	00 00 00 1f 
	...

00412f50 <__umoddi3>:
  412f50:	43 00 00 00 	addiu $29,$29,-8
  412f54:	f8 ff 1d 1d 
  412f58:	42 00 00 00 	addu $25,$0,$29
  412f5c:	00 19 1d 00 
  412f60:	42 00 00 00 	addu $10,$0,$6
  412f64:	00 0a 06 00 
  412f68:	42 00 00 00 	addu $6,$0,$7
  412f6c:	00 06 07 00 
  412f70:	42 00 00 00 	addu $11,$0,$4
  412f74:	00 0b 04 00 
  412f78:	06 00 00 00 	bne $6,$0,413460 <__umoddi3+0x510>
  412f7c:	38 01 00 06 
  412f80:	5d 00 00 00 	sltu $2,$5,$10
  412f84:	00 02 0a 05 
  412f88:	05 00 00 00 	beq $2,$0,413088 <__umoddi3+0x138>
  412f8c:	3e 00 00 02 
  412f90:	42 00 00 00 	addu $4,$0,$10
  412f94:	00 04 0a 00 
  412f98:	51 00 00 00 	ori $2,$0,65535
  412f9c:	ff ff 02 00 
  412fa0:	5d 00 00 00 	sltu $2,$2,$10
  412fa4:	00 02 0a 02 
  412fa8:	06 00 00 00 	bne $2,$0,412fd8 <__umoddi3+0x88>
  412fac:	0a 00 00 02 
  412fb0:	5e 00 00 00 	sltiu $2,$10,256
  412fb4:	00 01 02 0a 
  412fb8:	42 00 00 00 	addu $3,$0,$0
  412fbc:	00 03 00 00 
  412fc0:	06 00 00 00 	bne $2,$0,413008 <__umoddi3+0xb8>
  412fc4:	10 00 00 02 
  412fc8:	43 00 00 00 	addiu $3,$0,8
  412fcc:	08 00 03 00 
  412fd0:	01 00 00 00 	j 413008 <__umoddi3+0xb8>
  412fd4:	02 4c 10 00 
  412fd8:	a2 00 00 00 	lui $2,255
  412fdc:	ff 00 02 00 
  412fe0:	51 00 00 00 	ori $2,$2,65535
  412fe4:	ff ff 02 02 
  412fe8:	5d 00 00 00 	sltu $2,$2,$4
  412fec:	00 02 04 02 
  412ff0:	43 00 00 00 	addiu $3,$0,24
  412ff4:	18 00 03 00 
  412ff8:	06 00 00 00 	bne $2,$0,413008 <__umoddi3+0xb8>
  412ffc:	02 00 00 02 
  413000:	43 00 00 00 	addiu $3,$0,16
  413004:	10 00 03 00 
  413008:	58 00 00 00 	srlv $2,$4,$3
  41300c:	00 02 04 03 
  413010:	a2 00 00 00 	lui $1,4096
  413014:	00 10 01 00 
  413018:	42 00 00 00 	addu $1,$1,$2
  41301c:	00 01 02 01 
  413020:	22 00 00 00 	lbu $2,4864($1)
  413024:	00 13 02 01 
  413028:	42 00 00 00 	addu $2,$2,$3
  41302c:	00 02 03 02 
  413030:	43 00 00 00 	addiu $3,$0,32
  413034:	20 00 03 00 
  413038:	45 00 00 00 	subu $13,$3,$2
  41303c:	00 0d 02 03 
  413040:	05 00 00 00 	beq $13,$0,413300 <__umoddi3+0x3b0>
  413044:	ae 00 00 0d 
  413048:	56 00 00 00 	sllv $10,$10,$13
  41304c:	00 0a 0a 0d 
  413050:	56 00 00 00 	sllv $5,$5,$13
  413054:	00 05 05 0d 
  413058:	43 00 00 00 	addiu $2,$0,32
  41305c:	20 00 02 00 
  413060:	45 00 00 00 	subu $2,$2,$13
  413064:	00 02 0d 02 
  413068:	58 00 00 00 	srlv $2,$11,$2
  41306c:	00 02 0b 02 
  413070:	50 00 00 00 	or $5,$5,$2
  413074:	00 05 02 05 
  413078:	56 00 00 00 	sllv $11,$11,$13
  41307c:	00 0b 0b 0d 
  413080:	01 00 00 00 	j 413300 <__umoddi3+0x3b0>
  413084:	c0 4c 10 00 
  413088:	06 00 00 00 	bne $10,$0,4130b8 <__umoddi3+0x168>
  41308c:	0a 00 00 0a 
  413090:	43 00 00 00 	addiu $2,$0,1
  413094:	01 00 02 00 
  413098:	49 00 00 00 	divu $0,$2,$10
  41309c:	00 00 0a 02 
  4130a0:	06 00 00 00 	bne $10,$0,4130b0 <__umoddi3+0x160>
  4130a4:	02 00 00 0a 
  4130a8:	a1 00 00 00 	break 
  4130ac:	07 00 00 00 
  4130b0:	4c 00 00 00 	mflo $10
  4130b4:	00 0a 00 00 
  4130b8:	42 00 00 00 	addu $4,$0,$10
  4130bc:	00 04 0a 00 
  4130c0:	51 00 00 00 	ori $2,$0,65535
  4130c4:	ff ff 02 00 
  4130c8:	5d 00 00 00 	sltu $2,$2,$10
  4130cc:	00 02 0a 02 
  4130d0:	06 00 00 00 	bne $2,$0,413100 <__umoddi3+0x1b0>
  4130d4:	0a 00 00 02 
  4130d8:	5e 00 00 00 	sltiu $2,$10,256
  4130dc:	00 01 02 0a 
  4130e0:	42 00 00 00 	addu $3,$0,$0
  4130e4:	00 03 00 00 
  4130e8:	06 00 00 00 	bne $2,$0,413130 <__umoddi3+0x1e0>
  4130ec:	10 00 00 02 
  4130f0:	43 00 00 00 	addiu $3,$0,8
  4130f4:	08 00 03 00 
  4130f8:	01 00 00 00 	j 413130 <__umoddi3+0x1e0>
  4130fc:	4c 4c 10 00 
  413100:	a2 00 00 00 	lui $2,255
  413104:	ff 00 02 00 
  413108:	51 00 00 00 	ori $2,$2,65535
  41310c:	ff ff 02 02 
  413110:	5d 00 00 00 	sltu $2,$2,$4
  413114:	00 02 04 02 
  413118:	43 00 00 00 	addiu $3,$0,24
  41311c:	18 00 03 00 
  413120:	06 00 00 00 	bne $2,$0,413130 <__umoddi3+0x1e0>
  413124:	02 00 00 02 
  413128:	43 00 00 00 	addiu $3,$0,16
  41312c:	10 00 03 00 
  413130:	58 00 00 00 	srlv $2,$4,$3
  413134:	00 02 04 03 
  413138:	a2 00 00 00 	lui $1,4096
  41313c:	00 10 01 00 
  413140:	42 00 00 00 	addu $1,$1,$2
  413144:	00 01 02 01 
  413148:	22 00 00 00 	lbu $2,4864($1)
  41314c:	00 13 02 01 
  413150:	42 00 00 00 	addu $2,$2,$3
  413154:	00 02 03 02 
  413158:	43 00 00 00 	addiu $3,$0,32
  41315c:	20 00 03 00 
  413160:	45 00 00 00 	subu $13,$3,$2
  413164:	00 0d 02 03 
  413168:	06 00 00 00 	bne $13,$0,413180 <__umoddi3+0x230>
  41316c:	04 00 00 0d 
  413170:	45 00 00 00 	subu $5,$5,$10
  413174:	00 05 0a 05 
  413178:	01 00 00 00 	j 413300 <__umoddi3+0x3b0>
  41317c:	c0 4c 10 00 
  413180:	43 00 00 00 	addiu $2,$0,32
  413184:	20 00 02 00 
  413188:	45 00 00 00 	subu $24,$2,$13
  41318c:	00 18 0d 02 
  413190:	56 00 00 00 	sllv $10,$10,$13
  413194:	00 0a 0a 0d 
  413198:	58 00 00 00 	srlv $3,$5,$24
  41319c:	00 03 05 18 
  4131a0:	56 00 00 00 	sllv $5,$5,$13
  4131a4:	00 05 05 0d 
  4131a8:	58 00 00 00 	srlv $2,$11,$24
  4131ac:	00 02 0b 18 
  4131b0:	50 00 00 00 	or $5,$5,$2
  4131b4:	00 05 02 05 
  4131b8:	56 00 00 00 	sllv $11,$11,$13
  4131bc:	00 0b 0b 0d 
  4131c0:	57 00 00 00 	srl $6,$10,0x10
  4131c4:	10 06 0a 00 
  4131c8:	49 00 00 00 	divu $0,$3,$6
  4131cc:	00 00 06 03 
  4131d0:	06 00 00 00 	bne $6,$0,4131e0 <__umoddi3+0x290>
  4131d4:	02 00 00 06 
  4131d8:	a1 00 00 00 	break 
  4131dc:	07 00 00 00 
  4131e0:	4c 00 00 00 	mflo $2
  4131e4:	00 02 00 00 
  4131e8:	4a 00 00 00 	mfhi $3
  4131ec:	00 03 00 00 
  4131f0:	4f 00 00 00 	andi $7,$10,65535
  4131f4:	ff ff 07 0a 
  4131f8:	46 00 00 00 	mult $2,$7
  4131fc:	00 00 07 02 
  413200:	4c 00 00 00 	mflo $4
  413204:	00 04 00 00 
  413208:	55 00 00 00 	sll $3,$3,0x10
  41320c:	10 03 03 00 
  413210:	57 00 00 00 	srl $2,$5,0x10
  413214:	10 02 05 00 
  413218:	50 00 00 00 	or $3,$3,$2
  41321c:	00 03 02 03 
  413220:	5d 00 00 00 	sltu $2,$3,$4
  413224:	00 02 04 03 
  413228:	05 00 00 00 	beq $2,$0,413260 <__umoddi3+0x310>
  41322c:	0c 00 00 02 
  413230:	42 00 00 00 	addu $3,$3,$10
  413234:	00 03 0a 03 
  413238:	5d 00 00 00 	sltu $2,$3,$10
  41323c:	00 02 0a 03 
  413240:	06 00 00 00 	bne $2,$0,413260 <__umoddi3+0x310>
  413244:	06 00 00 02 
  413248:	5d 00 00 00 	sltu $2,$3,$4
  41324c:	00 02 04 03 
  413250:	05 00 00 00 	beq $2,$0,413260 <__umoddi3+0x310>
  413254:	02 00 00 02 
  413258:	42 00 00 00 	addu $3,$3,$10
  41325c:	00 03 0a 03 
  413260:	45 00 00 00 	subu $3,$3,$4
  413264:	00 03 04 03 
  413268:	49 00 00 00 	divu $0,$3,$6
  41326c:	00 00 06 03 
  413270:	06 00 00 00 	bne $6,$0,413280 <__umoddi3+0x330>
  413274:	02 00 00 06 
  413278:	a1 00 00 00 	break 
  41327c:	07 00 00 00 
  413280:	4c 00 00 00 	mflo $2
  413284:	00 02 00 00 
  413288:	4a 00 00 00 	mfhi $3
  41328c:	00 03 00 00 
  413290:	46 00 00 00 	mult $2,$7
  413294:	00 00 07 02 
  413298:	4c 00 00 00 	mflo $4
  41329c:	00 04 00 00 
  4132a0:	55 00 00 00 	sll $3,$3,0x10
  4132a4:	10 03 03 00 
  4132a8:	4f 00 00 00 	andi $2,$5,65535
  4132ac:	ff ff 02 05 
  4132b0:	50 00 00 00 	or $3,$3,$2
  4132b4:	00 03 02 03 
  4132b8:	5d 00 00 00 	sltu $2,$3,$4
  4132bc:	00 02 04 03 
  4132c0:	05 00 00 00 	beq $2,$0,4132f8 <__umoddi3+0x3a8>
  4132c4:	0c 00 00 02 
  4132c8:	42 00 00 00 	addu $3,$3,$10
  4132cc:	00 03 0a 03 
  4132d0:	5d 00 00 00 	sltu $2,$3,$10
  4132d4:	00 02 0a 03 
  4132d8:	06 00 00 00 	bne $2,$0,4132f8 <__umoddi3+0x3a8>
  4132dc:	06 00 00 02 
  4132e0:	5d 00 00 00 	sltu $2,$3,$4
  4132e4:	00 02 04 03 
  4132e8:	05 00 00 00 	beq $2,$0,4132f8 <__umoddi3+0x3a8>
  4132ec:	02 00 00 02 
  4132f0:	42 00 00 00 	addu $3,$3,$10
  4132f4:	00 03 0a 03 
  4132f8:	45 00 00 00 	subu $5,$3,$4
  4132fc:	00 05 04 03 
  413300:	57 00 00 00 	srl $6,$10,0x10
  413304:	10 06 0a 00 
  413308:	49 00 00 00 	divu $0,$5,$6
  41330c:	00 00 06 05 
  413310:	06 00 00 00 	bne $6,$0,413320 <__umoddi3+0x3d0>
  413314:	02 00 00 06 
  413318:	a1 00 00 00 	break 
  41331c:	07 00 00 00 
  413320:	4c 00 00 00 	mflo $2
  413324:	00 02 00 00 
  413328:	4a 00 00 00 	mfhi $3
  41332c:	00 03 00 00 
  413330:	4f 00 00 00 	andi $7,$10,65535
  413334:	ff ff 07 0a 
  413338:	46 00 00 00 	mult $2,$7
  41333c:	00 00 07 02 
  413340:	4c 00 00 00 	mflo $4
  413344:	00 04 00 00 
  413348:	55 00 00 00 	sll $3,$3,0x10
  41334c:	10 03 03 00 
  413350:	57 00 00 00 	srl $2,$11,0x10
  413354:	10 02 0b 00 
  413358:	50 00 00 00 	or $3,$3,$2
  41335c:	00 03 02 03 
  413360:	5d 00 00 00 	sltu $2,$3,$4
  413364:	00 02 04 03 
  413368:	05 00 00 00 	beq $2,$0,4133a0 <__umoddi3+0x450>
  41336c:	0c 00 00 02 
  413370:	42 00 00 00 	addu $3,$3,$10
  413374:	00 03 0a 03 
  413378:	5d 00 00 00 	sltu $2,$3,$10
  41337c:	00 02 0a 03 
  413380:	06 00 00 00 	bne $2,$0,4133a0 <__umoddi3+0x450>
  413384:	06 00 00 02 
  413388:	5d 00 00 00 	sltu $2,$3,$4
  41338c:	00 02 04 03 
  413390:	05 00 00 00 	beq $2,$0,4133a0 <__umoddi3+0x450>
  413394:	02 00 00 02 
  413398:	42 00 00 00 	addu $3,$3,$10
  41339c:	00 03 0a 03 
  4133a0:	45 00 00 00 	subu $3,$3,$4
  4133a4:	00 03 04 03 
  4133a8:	49 00 00 00 	divu $0,$3,$6
  4133ac:	00 00 06 03 
  4133b0:	06 00 00 00 	bne $6,$0,4133c0 <__umoddi3+0x470>
  4133b4:	02 00 00 06 
  4133b8:	a1 00 00 00 	break 
  4133bc:	07 00 00 00 
  4133c0:	4c 00 00 00 	mflo $2
  4133c4:	00 02 00 00 
  4133c8:	4a 00 00 00 	mfhi $3
  4133cc:	00 03 00 00 
  4133d0:	46 00 00 00 	mult $2,$7
  4133d4:	00 00 07 02 
  4133d8:	4c 00 00 00 	mflo $4
  4133dc:	00 04 00 00 
  4133e0:	55 00 00 00 	sll $3,$3,0x10
  4133e4:	10 03 03 00 
  4133e8:	4f 00 00 00 	andi $2,$11,65535
  4133ec:	ff ff 02 0b 
  4133f0:	50 00 00 00 	or $3,$3,$2
  4133f4:	00 03 02 03 
  4133f8:	5d 00 00 00 	sltu $2,$3,$4
  4133fc:	00 02 04 03 
  413400:	05 00 00 00 	beq $2,$0,413438 <__umoddi3+0x4e8>
  413404:	0c 00 00 02 
  413408:	42 00 00 00 	addu $3,$3,$10
  41340c:	00 03 0a 03 
  413410:	5d 00 00 00 	sltu $2,$3,$10
  413414:	00 02 0a 03 
  413418:	06 00 00 00 	bne $2,$0,413438 <__umoddi3+0x4e8>
  41341c:	06 00 00 02 
  413420:	5d 00 00 00 	sltu $2,$3,$4
  413424:	00 02 04 03 
  413428:	05 00 00 00 	beq $2,$0,413438 <__umoddi3+0x4e8>
  41342c:	02 00 00 02 
  413430:	42 00 00 00 	addu $3,$3,$10
  413434:	00 03 0a 03 
  413438:	45 00 00 00 	subu $11,$3,$4
  41343c:	00 0b 04 03 
  413440:	05 00 00 00 	beq $25,$0,413830 <__umoddi3+0x8e0>
  413444:	fa 00 00 19 
  413448:	58 00 00 00 	srlv $14,$11,$13
  41344c:	00 0e 0b 0d 
  413450:	42 00 00 00 	addu $15,$0,$0
  413454:	00 0f 00 00 
  413458:	01 00 00 00 	j 413828 <__umoddi3+0x8d8>
  41345c:	0a 4e 10 00 
  413460:	5d 00 00 00 	sltu $2,$5,$6
  413464:	00 02 06 05 
  413468:	05 00 00 00 	beq $2,$0,413490 <__umoddi3+0x540>
  41346c:	08 00 00 02 
  413470:	05 00 00 00 	beq $25,$0,413830 <__umoddi3+0x8e0>
  413474:	ee 00 00 19 
  413478:	42 00 00 00 	addu $14,$0,$11
  41347c:	00 0e 0b 00 
  413480:	42 00 00 00 	addu $15,$0,$5
  413484:	00 0f 05 00 
  413488:	01 00 00 00 	j 413828 <__umoddi3+0x8d8>
  41348c:	0a 4e 10 00 
  413490:	42 00 00 00 	addu $4,$0,$6
  413494:	00 04 06 00 
  413498:	51 00 00 00 	ori $2,$0,65535
  41349c:	ff ff 02 00 
  4134a0:	5d 00 00 00 	sltu $2,$2,$6
  4134a4:	00 02 06 02 
  4134a8:	06 00 00 00 	bne $2,$0,4134d8 <__umoddi3+0x588>
  4134ac:	0a 00 00 02 
  4134b0:	5e 00 00 00 	sltiu $2,$6,256
  4134b4:	00 01 02 06 
  4134b8:	42 00 00 00 	addu $3,$0,$0
  4134bc:	00 03 00 00 
  4134c0:	06 00 00 00 	bne $2,$0,413508 <__umoddi3+0x5b8>
  4134c4:	10 00 00 02 
  4134c8:	43 00 00 00 	addiu $3,$0,8
  4134cc:	08 00 03 00 
  4134d0:	01 00 00 00 	j 413508 <__umoddi3+0x5b8>
  4134d4:	42 4d 10 00 
  4134d8:	a2 00 00 00 	lui $2,255
  4134dc:	ff 00 02 00 
  4134e0:	51 00 00 00 	ori $2,$2,65535
  4134e4:	ff ff 02 02 
  4134e8:	5d 00 00 00 	sltu $2,$2,$4
  4134ec:	00 02 04 02 
  4134f0:	43 00 00 00 	addiu $3,$0,24
  4134f4:	18 00 03 00 
  4134f8:	06 00 00 00 	bne $2,$0,413508 <__umoddi3+0x5b8>
  4134fc:	02 00 00 02 
  413500:	43 00 00 00 	addiu $3,$0,16
  413504:	10 00 03 00 
  413508:	58 00 00 00 	srlv $2,$4,$3
  41350c:	00 02 04 03 
  413510:	a2 00 00 00 	lui $1,4096
  413514:	00 10 01 00 
  413518:	42 00 00 00 	addu $1,$1,$2
  41351c:	00 01 02 01 
  413520:	22 00 00 00 	lbu $2,4864($1)
  413524:	00 13 02 01 
  413528:	42 00 00 00 	addu $2,$2,$3
  41352c:	00 02 03 02 
  413530:	43 00 00 00 	addiu $3,$0,32
  413534:	20 00 03 00 
  413538:	45 00 00 00 	subu $13,$3,$2
  41353c:	00 0d 02 03 
  413540:	06 00 00 00 	bne $13,$0,4135b0 <__umoddi3+0x660>
  413544:	1a 00 00 0d 
  413548:	5d 00 00 00 	sltu $2,$6,$5
  41354c:	00 02 05 06 
  413550:	06 00 00 00 	bne $2,$0,413568 <__umoddi3+0x618>
  413554:	04 00 00 02 
  413558:	5d 00 00 00 	sltu $2,$11,$10
  41355c:	00 02 0a 0b 
  413560:	06 00 00 00 	bne $2,$0,413590 <__umoddi3+0x640>
  413564:	0a 00 00 02 
  413568:	45 00 00 00 	subu $4,$11,$10
  41356c:	00 04 0a 0b 
  413570:	45 00 00 00 	subu $3,$5,$6
  413574:	00 03 06 05 
  413578:	5d 00 00 00 	sltu $2,$11,$4
  41357c:	00 02 04 0b 
  413580:	45 00 00 00 	subu $5,$3,$2
  413584:	00 05 02 03 
  413588:	42 00 00 00 	addu $11,$0,$4
  41358c:	00 0b 04 00 
  413590:	05 00 00 00 	beq $25,$0,413830 <__umoddi3+0x8e0>
  413594:	a6 00 00 19 
  413598:	42 00 00 00 	addu $14,$0,$11
  41359c:	00 0e 0b 00 
  4135a0:	42 00 00 00 	addu $15,$0,$5
  4135a4:	00 0f 05 00 
  4135a8:	01 00 00 00 	j 413828 <__umoddi3+0x8d8>
  4135ac:	0a 4e 10 00 
  4135b0:	43 00 00 00 	addiu $2,$0,32
  4135b4:	20 00 02 00 
  4135b8:	45 00 00 00 	subu $24,$2,$13
  4135bc:	00 18 0d 02 
  4135c0:	56 00 00 00 	sllv $6,$6,$13
  4135c4:	00 06 06 0d 
  4135c8:	58 00 00 00 	srlv $2,$10,$24
  4135cc:	00 02 0a 18 
  4135d0:	50 00 00 00 	or $6,$6,$2
  4135d4:	00 06 02 06 
  4135d8:	56 00 00 00 	sllv $10,$10,$13
  4135dc:	00 0a 0a 0d 
  4135e0:	58 00 00 00 	srlv $3,$5,$24
  4135e4:	00 03 05 18 
  4135e8:	56 00 00 00 	sllv $5,$5,$13
  4135ec:	00 05 05 0d 
  4135f0:	58 00 00 00 	srlv $2,$11,$24
  4135f4:	00 02 0b 18 
  4135f8:	50 00 00 00 	or $5,$5,$2
  4135fc:	00 05 02 05 
  413600:	56 00 00 00 	sllv $11,$11,$13
  413604:	00 0b 0b 0d 
  413608:	57 00 00 00 	srl $7,$6,0x10
  41360c:	10 07 06 00 
  413610:	49 00 00 00 	divu $0,$3,$7
  413614:	00 00 07 03 
  413618:	06 00 00 00 	bne $7,$0,413628 <__umoddi3+0x6d8>
  41361c:	02 00 00 07 
  413620:	a1 00 00 00 	break 
  413624:	07 00 00 00 
  413628:	4c 00 00 00 	mflo $9
  41362c:	00 09 00 00 
  413630:	4a 00 00 00 	mfhi $3
  413634:	00 03 00 00 
  413638:	4f 00 00 00 	andi $12,$6,65535
  41363c:	ff ff 0c 06 
  413640:	46 00 00 00 	mult $9,$12
  413644:	00 00 0c 09 
  413648:	4c 00 00 00 	mflo $4
  41364c:	00 04 00 00 
  413650:	57 00 00 00 	srl $2,$5,0x10
  413654:	10 02 05 00 
  413658:	55 00 00 00 	sll $3,$3,0x10
  41365c:	10 03 03 00 
  413660:	50 00 00 00 	or $3,$3,$2
  413664:	00 03 02 03 
  413668:	5d 00 00 00 	sltu $2,$3,$4
  41366c:	00 02 04 03 
  413670:	05 00 00 00 	beq $2,$0,4136b8 <__umoddi3+0x768>
  413674:	10 00 00 02 
  413678:	43 00 00 00 	addiu $9,$9,-1
  41367c:	ff ff 09 09 
  413680:	42 00 00 00 	addu $3,$3,$6
  413684:	00 03 06 03 
  413688:	5d 00 00 00 	sltu $2,$3,$6
  41368c:	00 02 06 03 
  413690:	06 00 00 00 	bne $2,$0,4136b8 <__umoddi3+0x768>
  413694:	08 00 00 02 
  413698:	5d 00 00 00 	sltu $2,$3,$4
  41369c:	00 02 04 03 
  4136a0:	05 00 00 00 	beq $2,$0,4136b8 <__umoddi3+0x768>
  4136a4:	04 00 00 02 
  4136a8:	43 00 00 00 	addiu $9,$9,-1
  4136ac:	ff ff 09 09 
  4136b0:	42 00 00 00 	addu $3,$3,$6
  4136b4:	00 03 06 03 
  4136b8:	45 00 00 00 	subu $3,$3,$4
  4136bc:	00 03 04 03 
  4136c0:	49 00 00 00 	divu $0,$3,$7
  4136c4:	00 00 07 03 
  4136c8:	06 00 00 00 	bne $7,$0,4136d8 <__umoddi3+0x788>
  4136cc:	02 00 00 07 
  4136d0:	a1 00 00 00 	break 
  4136d4:	07 00 00 00 
  4136d8:	4c 00 00 00 	mflo $8
  4136dc:	00 08 00 00 
  4136e0:	4a 00 00 00 	mfhi $3
  4136e4:	00 03 00 00 
  4136e8:	46 00 00 00 	mult $8,$12
  4136ec:	00 00 0c 08 
  4136f0:	4c 00 00 00 	mflo $4
  4136f4:	00 04 00 00 
  4136f8:	55 00 00 00 	sll $2,$3,0x10
  4136fc:	10 02 03 00 
  413700:	4f 00 00 00 	andi $3,$5,65535
  413704:	ff ff 03 05 
  413708:	50 00 00 00 	or $3,$2,$3
  41370c:	00 03 03 02 
  413710:	5d 00 00 00 	sltu $2,$3,$4
  413714:	00 02 04 03 
  413718:	05 00 00 00 	beq $2,$0,413760 <__umoddi3+0x810>
  41371c:	10 00 00 02 
  413720:	43 00 00 00 	addiu $8,$8,-1
  413724:	ff ff 08 08 
  413728:	42 00 00 00 	addu $3,$3,$6
  41372c:	00 03 06 03 
  413730:	5d 00 00 00 	sltu $2,$3,$6
  413734:	00 02 06 03 
  413738:	06 00 00 00 	bne $2,$0,413760 <__umoddi3+0x810>
  41373c:	08 00 00 02 
  413740:	5d 00 00 00 	sltu $2,$3,$4
  413744:	00 02 04 03 
  413748:	05 00 00 00 	beq $2,$0,413760 <__umoddi3+0x810>
  41374c:	04 00 00 02 
  413750:	43 00 00 00 	addiu $8,$8,-1
  413754:	ff ff 08 08 
  413758:	42 00 00 00 	addu $3,$3,$6
  41375c:	00 03 06 03 
  413760:	55 00 00 00 	sll $2,$9,0x10
  413764:	10 02 09 00 
  413768:	50 00 00 00 	or $2,$2,$8
  41376c:	00 02 08 02 
  413770:	45 00 00 00 	subu $5,$3,$4
  413774:	00 05 04 03 
  413778:	47 00 00 00 	multu $2,$10
  41377c:	00 00 0a 02 
  413780:	4c 00 00 00 	mflo $8
  413784:	00 08 00 00 
  413788:	4a 00 00 00 	mfhi $9
  41378c:	00 09 00 00 
  413790:	5d 00 00 00 	sltu $2,$5,$9
  413794:	00 02 09 05 
  413798:	06 00 00 00 	bne $2,$0,4137b8 <__umoddi3+0x868>
  41379c:	06 00 00 02 
  4137a0:	06 00 00 00 	bne $9,$5,4137e0 <__umoddi3+0x890>
  4137a4:	0e 00 05 09 
  4137a8:	5d 00 00 00 	sltu $2,$11,$8
  4137ac:	00 02 08 0b 
  4137b0:	05 00 00 00 	beq $2,$0,4137e0 <__umoddi3+0x890>
  4137b4:	0a 00 00 02 
  4137b8:	45 00 00 00 	subu $4,$8,$10
  4137bc:	00 04 0a 08 
  4137c0:	45 00 00 00 	subu $3,$9,$6
  4137c4:	00 03 06 09 
  4137c8:	5d 00 00 00 	sltu $2,$8,$4
  4137cc:	00 02 04 08 
  4137d0:	45 00 00 00 	subu $9,$3,$2
  4137d4:	00 09 02 03 
  4137d8:	42 00 00 00 	addu $8,$0,$4
  4137dc:	00 08 04 00 
  4137e0:	05 00 00 00 	beq $25,$0,413830 <__umoddi3+0x8e0>
  4137e4:	12 00 00 19 
  4137e8:	45 00 00 00 	subu $3,$11,$8
  4137ec:	00 03 08 0b 
  4137f0:	45 00 00 00 	subu $4,$5,$9
  4137f4:	00 04 09 05 
  4137f8:	5d 00 00 00 	sltu $2,$11,$3
  4137fc:	00 02 03 0b 
  413800:	45 00 00 00 	subu $5,$4,$2
  413804:	00 05 02 04 
  413808:	56 00 00 00 	sllv $2,$5,$24
  41380c:	00 02 05 18 
  413810:	58 00 00 00 	srlv $3,$3,$13
  413814:	00 03 03 0d 
  413818:	50 00 00 00 	or $14,$2,$3
  41381c:	00 0e 03 02 
  413820:	58 00 00 00 	srlv $15,$5,$13
  413824:	00 0f 05 0d 
  413828:	35 00 00 00 	dsw $14,0($25)
  41382c:	00 00 0e 19 
  413830:	29 00 00 00 	dlw $2,0($29)
  413834:	00 00 02 1d 
  413838:	43 00 00 00 	addiu $29,$29,8
  41383c:	08 00 1d 1d 
  413840:	03 00 00 00 	jr $31
  413844:	00 00 00 1f 
	...

00413850 <__udivdi3>:
  413850:	42 00 00 00 	addu $10,$0,$6
  413854:	00 0a 06 00 
  413858:	42 00 00 00 	addu $6,$0,$7
  41385c:	00 06 07 00 
  413860:	42 00 00 00 	addu $12,$0,$4
  413864:	00 0c 04 00 
  413868:	42 00 00 00 	addu $4,$0,$5
  41386c:	00 04 05 00 
  413870:	06 00 00 00 	bne $6,$0,413ef8 <__udivdi3+0x6a8>
  413874:	a0 01 00 06 
  413878:	5d 00 00 00 	sltu $2,$4,$10
  41387c:	00 02 0a 04 
  413880:	05 00 00 00 	beq $2,$0,413ae0 <__udivdi3+0x290>
  413884:	96 00 00 02 
  413888:	42 00 00 00 	addu $5,$0,$10
  41388c:	00 05 0a 00 
  413890:	51 00 00 00 	ori $2,$0,65535
  413894:	ff ff 02 00 
  413898:	5d 00 00 00 	sltu $2,$2,$10
  41389c:	00 02 0a 02 
  4138a0:	06 00 00 00 	bne $2,$0,4138d0 <__udivdi3+0x80>
  4138a4:	0a 00 00 02 
  4138a8:	5e 00 00 00 	sltiu $2,$10,256
  4138ac:	00 01 02 0a 
  4138b0:	42 00 00 00 	addu $3,$0,$0
  4138b4:	00 03 00 00 
  4138b8:	06 00 00 00 	bne $2,$0,413900 <__udivdi3+0xb0>
  4138bc:	10 00 00 02 
  4138c0:	43 00 00 00 	addiu $3,$0,8
  4138c4:	08 00 03 00 
  4138c8:	01 00 00 00 	j 413900 <__udivdi3+0xb0>
  4138cc:	40 4e 10 00 
  4138d0:	a2 00 00 00 	lui $2,255
  4138d4:	ff 00 02 00 
  4138d8:	51 00 00 00 	ori $2,$2,65535
  4138dc:	ff ff 02 02 
  4138e0:	5d 00 00 00 	sltu $2,$2,$5
  4138e4:	00 02 05 02 
  4138e8:	43 00 00 00 	addiu $3,$0,24
  4138ec:	18 00 03 00 
  4138f0:	06 00 00 00 	bne $2,$0,413900 <__udivdi3+0xb0>
  4138f4:	02 00 00 02 
  4138f8:	43 00 00 00 	addiu $3,$0,16
  4138fc:	10 00 03 00 
  413900:	58 00 00 00 	srlv $2,$5,$3
  413904:	00 02 05 03 
  413908:	a2 00 00 00 	lui $1,4096
  41390c:	00 10 01 00 
  413910:	42 00 00 00 	addu $1,$1,$2
  413914:	00 01 02 01 
  413918:	22 00 00 00 	lbu $2,5120($1)
  41391c:	00 14 02 01 
  413920:	42 00 00 00 	addu $2,$2,$3
  413924:	00 02 03 02 
  413928:	43 00 00 00 	addiu $3,$0,32
  41392c:	20 00 03 00 
  413930:	45 00 00 00 	subu $3,$3,$2
  413934:	00 03 02 03 
  413938:	05 00 00 00 	beq $3,$0,413978 <__udivdi3+0x128>
  41393c:	0e 00 00 03 
  413940:	56 00 00 00 	sllv $10,$10,$3
  413944:	00 0a 0a 03 
  413948:	56 00 00 00 	sllv $4,$4,$3
  41394c:	00 04 04 03 
  413950:	43 00 00 00 	addiu $2,$0,32
  413954:	20 00 02 00 
  413958:	45 00 00 00 	subu $2,$2,$3
  41395c:	00 02 03 02 
  413960:	58 00 00 00 	srlv $2,$12,$2
  413964:	00 02 0c 02 
  413968:	50 00 00 00 	or $4,$4,$2
  41396c:	00 04 02 04 
  413970:	56 00 00 00 	sllv $12,$12,$3
  413974:	00 0c 0c 03 
  413978:	57 00 00 00 	srl $6,$10,0x10
  41397c:	10 06 0a 00 
  413980:	49 00 00 00 	divu $0,$4,$6
  413984:	00 00 06 04 
  413988:	06 00 00 00 	bne $6,$0,413998 <__udivdi3+0x148>
  41398c:	02 00 00 06 
  413990:	a1 00 00 00 	break 
  413994:	07 00 00 00 
  413998:	4c 00 00 00 	mflo $7
  41399c:	00 07 00 00 
  4139a0:	4a 00 00 00 	mfhi $3
  4139a4:	00 03 00 00 
  4139a8:	4f 00 00 00 	andi $8,$10,65535
  4139ac:	ff ff 08 0a 
  4139b0:	46 00 00 00 	mult $7,$8
  4139b4:	00 00 08 07 
  4139b8:	4c 00 00 00 	mflo $5
  4139bc:	00 05 00 00 
  4139c0:	55 00 00 00 	sll $2,$3,0x10
  4139c4:	10 02 03 00 
  4139c8:	57 00 00 00 	srl $3,$12,0x10
  4139cc:	10 03 0c 00 
  4139d0:	50 00 00 00 	or $3,$2,$3
  4139d4:	00 03 03 02 
  4139d8:	5d 00 00 00 	sltu $2,$3,$5
  4139dc:	00 02 05 03 
  4139e0:	05 00 00 00 	beq $2,$0,413a28 <__udivdi3+0x1d8>
  4139e4:	10 00 00 02 
  4139e8:	43 00 00 00 	addiu $7,$7,-1
  4139ec:	ff ff 07 07 
  4139f0:	42 00 00 00 	addu $3,$3,$10
  4139f4:	00 03 0a 03 
  4139f8:	5d 00 00 00 	sltu $2,$3,$10
  4139fc:	00 02 0a 03 
  413a00:	06 00 00 00 	bne $2,$0,413a28 <__udivdi3+0x1d8>
  413a04:	08 00 00 02 
  413a08:	5d 00 00 00 	sltu $2,$3,$5
  413a0c:	00 02 05 03 
  413a10:	05 00 00 00 	beq $2,$0,413a28 <__udivdi3+0x1d8>
  413a14:	04 00 00 02 
  413a18:	43 00 00 00 	addiu $7,$7,-1
  413a1c:	ff ff 07 07 
  413a20:	42 00 00 00 	addu $3,$3,$10
  413a24:	00 03 0a 03 
  413a28:	45 00 00 00 	subu $3,$3,$5
  413a2c:	00 03 05 03 
  413a30:	49 00 00 00 	divu $0,$3,$6
  413a34:	00 00 06 03 
  413a38:	06 00 00 00 	bne $6,$0,413a48 <__udivdi3+0x1f8>
  413a3c:	02 00 00 06 
  413a40:	a1 00 00 00 	break 
  413a44:	07 00 00 00 
  413a48:	4c 00 00 00 	mflo $4
  413a4c:	00 04 00 00 
  413a50:	4a 00 00 00 	mfhi $3
  413a54:	00 03 00 00 
  413a58:	46 00 00 00 	mult $4,$8
  413a5c:	00 00 08 04 
  413a60:	4c 00 00 00 	mflo $5
  413a64:	00 05 00 00 
  413a68:	55 00 00 00 	sll $2,$3,0x10
  413a6c:	10 02 03 00 
  413a70:	4f 00 00 00 	andi $3,$12,65535
  413a74:	ff ff 03 0c 
  413a78:	50 00 00 00 	or $3,$2,$3
  413a7c:	00 03 03 02 
  413a80:	5d 00 00 00 	sltu $2,$3,$5
  413a84:	00 02 05 03 
  413a88:	05 00 00 00 	beq $2,$0,413ac8 <__udivdi3+0x278>
  413a8c:	0e 00 00 02 
  413a90:	43 00 00 00 	addiu $4,$4,-1
  413a94:	ff ff 04 04 
  413a98:	42 00 00 00 	addu $3,$3,$10
  413a9c:	00 03 0a 03 
  413aa0:	5d 00 00 00 	sltu $2,$3,$10
  413aa4:	00 02 0a 03 
  413aa8:	06 00 00 00 	bne $2,$0,413ac8 <__udivdi3+0x278>
  413aac:	06 00 00 02 
  413ab0:	5d 00 00 00 	sltu $2,$3,$5
  413ab4:	00 02 05 03 
  413ab8:	05 00 00 00 	beq $2,$0,413ac8 <__udivdi3+0x278>
  413abc:	02 00 00 02 
  413ac0:	43 00 00 00 	addiu $4,$4,-1
  413ac4:	ff ff 04 04 
  413ac8:	55 00 00 00 	sll $2,$7,0x10
  413acc:	10 02 07 00 
  413ad0:	50 00 00 00 	or $6,$2,$4
  413ad4:	00 06 04 02 
  413ad8:	01 00 00 00 	j 414210 <__udivdi3+0x9c0>
  413adc:	84 50 10 00 
  413ae0:	06 00 00 00 	bne $10,$0,413b10 <__udivdi3+0x2c0>
  413ae4:	0a 00 00 0a 
  413ae8:	43 00 00 00 	addiu $2,$0,1
  413aec:	01 00 02 00 
  413af0:	49 00 00 00 	divu $0,$2,$10
  413af4:	00 00 0a 02 
  413af8:	06 00 00 00 	bne $10,$0,413b08 <__udivdi3+0x2b8>
  413afc:	02 00 00 0a 
  413b00:	a1 00 00 00 	break 
  413b04:	07 00 00 00 
  413b08:	4c 00 00 00 	mflo $10
  413b0c:	00 0a 00 00 
  413b10:	42 00 00 00 	addu $5,$0,$10
  413b14:	00 05 0a 00 
  413b18:	51 00 00 00 	ori $2,$0,65535
  413b1c:	ff ff 02 00 
  413b20:	5d 00 00 00 	sltu $2,$2,$10
  413b24:	00 02 0a 02 
  413b28:	06 00 00 00 	bne $2,$0,413b58 <__udivdi3+0x308>
  413b2c:	0a 00 00 02 
  413b30:	5e 00 00 00 	sltiu $2,$10,256
  413b34:	00 01 02 0a 
  413b38:	42 00 00 00 	addu $3,$0,$0
  413b3c:	00 03 00 00 
  413b40:	06 00 00 00 	bne $2,$0,413b88 <__udivdi3+0x338>
  413b44:	10 00 00 02 
  413b48:	43 00 00 00 	addiu $3,$0,8
  413b4c:	08 00 03 00 
  413b50:	01 00 00 00 	j 413b88 <__udivdi3+0x338>
  413b54:	e2 4e 10 00 
  413b58:	a2 00 00 00 	lui $2,255
  413b5c:	ff 00 02 00 
  413b60:	51 00 00 00 	ori $2,$2,65535
  413b64:	ff ff 02 02 
  413b68:	5d 00 00 00 	sltu $2,$2,$5
  413b6c:	00 02 05 02 
  413b70:	43 00 00 00 	addiu $3,$0,24
  413b74:	18 00 03 00 
  413b78:	06 00 00 00 	bne $2,$0,413b88 <__udivdi3+0x338>
  413b7c:	02 00 00 02 
  413b80:	43 00 00 00 	addiu $3,$0,16
  413b84:	10 00 03 00 
  413b88:	58 00 00 00 	srlv $2,$5,$3
  413b8c:	00 02 05 03 
  413b90:	a2 00 00 00 	lui $1,4096
  413b94:	00 10 01 00 
  413b98:	42 00 00 00 	addu $1,$1,$2
  413b9c:	00 01 02 01 
  413ba0:	22 00 00 00 	lbu $2,5120($1)
  413ba4:	00 14 02 01 
  413ba8:	42 00 00 00 	addu $2,$2,$3
  413bac:	00 02 03 02 
  413bb0:	43 00 00 00 	addiu $3,$0,32
  413bb4:	20 00 03 00 
  413bb8:	45 00 00 00 	subu $3,$3,$2
  413bbc:	00 03 02 03 
  413bc0:	06 00 00 00 	bne $3,$0,413be0 <__udivdi3+0x390>
  413bc4:	06 00 00 03 
  413bc8:	45 00 00 00 	subu $4,$4,$10
  413bcc:	00 04 0a 04 
  413bd0:	43 00 00 00 	addiu $9,$0,1
  413bd4:	01 00 09 00 
  413bd8:	01 00 00 00 	j 413d90 <__udivdi3+0x540>
  413bdc:	64 4f 10 00 
  413be0:	43 00 00 00 	addiu $2,$0,32
  413be4:	20 00 02 00 
  413be8:	45 00 00 00 	subu $5,$2,$3
  413bec:	00 05 03 02 
  413bf0:	56 00 00 00 	sllv $10,$10,$3
  413bf4:	00 0a 0a 03 
  413bf8:	58 00 00 00 	srlv $8,$4,$5
  413bfc:	00 08 04 05 
  413c00:	56 00 00 00 	sllv $4,$4,$3
  413c04:	00 04 04 03 
  413c08:	58 00 00 00 	srlv $2,$12,$5
  413c0c:	00 02 0c 05 
  413c10:	50 00 00 00 	or $4,$4,$2
  413c14:	00 04 02 04 
  413c18:	56 00 00 00 	sllv $12,$12,$3
  413c1c:	00 0c 0c 03 
  413c20:	57 00 00 00 	srl $7,$10,0x10
  413c24:	10 07 0a 00 
  413c28:	49 00 00 00 	divu $0,$8,$7
  413c2c:	00 00 07 08 
  413c30:	06 00 00 00 	bne $7,$0,413c40 <__udivdi3+0x3f0>
  413c34:	02 00 00 07 
  413c38:	a1 00 00 00 	break 
  413c3c:	07 00 00 00 
  413c40:	4c 00 00 00 	mflo $5
  413c44:	00 05 00 00 
  413c48:	4a 00 00 00 	mfhi $3
  413c4c:	00 03 00 00 
  413c50:	4f 00 00 00 	andi $9,$10,65535
  413c54:	ff ff 09 0a 
  413c58:	46 00 00 00 	mult $5,$9
  413c5c:	00 00 09 05 
  413c60:	4c 00 00 00 	mflo $6
  413c64:	00 06 00 00 
  413c68:	57 00 00 00 	srl $2,$4,0x10
  413c6c:	10 02 04 00 
  413c70:	55 00 00 00 	sll $3,$3,0x10
  413c74:	10 03 03 00 
  413c78:	50 00 00 00 	or $3,$3,$2
  413c7c:	00 03 02 03 
  413c80:	5d 00 00 00 	sltu $2,$3,$6
  413c84:	00 02 06 03 
  413c88:	05 00 00 00 	beq $2,$0,413cd0 <__udivdi3+0x480>
  413c8c:	10 00 00 02 
  413c90:	43 00 00 00 	addiu $5,$5,-1
  413c94:	ff ff 05 05 
  413c98:	42 00 00 00 	addu $3,$3,$10
  413c9c:	00 03 0a 03 
  413ca0:	5d 00 00 00 	sltu $2,$3,$10
  413ca4:	00 02 0a 03 
  413ca8:	06 00 00 00 	bne $2,$0,413cd0 <__udivdi3+0x480>
  413cac:	08 00 00 02 
  413cb0:	5d 00 00 00 	sltu $2,$3,$6
  413cb4:	00 02 06 03 
  413cb8:	05 00 00 00 	beq $2,$0,413cd0 <__udivdi3+0x480>
  413cbc:	04 00 00 02 
  413cc0:	43 00 00 00 	addiu $5,$5,-1
  413cc4:	ff ff 05 05 
  413cc8:	42 00 00 00 	addu $3,$3,$10
  413ccc:	00 03 0a 03 
  413cd0:	45 00 00 00 	subu $3,$3,$6
  413cd4:	00 03 06 03 
  413cd8:	49 00 00 00 	divu $0,$3,$7
  413cdc:	00 00 07 03 
  413ce0:	06 00 00 00 	bne $7,$0,413cf0 <__udivdi3+0x4a0>
  413ce4:	02 00 00 07 
  413ce8:	a1 00 00 00 	break 
  413cec:	07 00 00 00 
  413cf0:	4c 00 00 00 	mflo $7
  413cf4:	00 07 00 00 
  413cf8:	4a 00 00 00 	mfhi $3
  413cfc:	00 03 00 00 
  413d00:	46 00 00 00 	mult $7,$9
  413d04:	00 00 09 07 
  413d08:	4c 00 00 00 	mflo $6
  413d0c:	00 06 00 00 
  413d10:	55 00 00 00 	sll $2,$3,0x10
  413d14:	10 02 03 00 
  413d18:	4f 00 00 00 	andi $3,$4,65535
  413d1c:	ff ff 03 04 
  413d20:	50 00 00 00 	or $3,$2,$3
  413d24:	00 03 03 02 
  413d28:	5d 00 00 00 	sltu $2,$3,$6
  413d2c:	00 02 06 03 
  413d30:	05 00 00 00 	beq $2,$0,413d78 <__udivdi3+0x528>
  413d34:	10 00 00 02 
  413d38:	43 00 00 00 	addiu $7,$7,-1
  413d3c:	ff ff 07 07 
  413d40:	42 00 00 00 	addu $3,$3,$10
  413d44:	00 03 0a 03 
  413d48:	5d 00 00 00 	sltu $2,$3,$10
  413d4c:	00 02 0a 03 
  413d50:	06 00 00 00 	bne $2,$0,413d78 <__udivdi3+0x528>
  413d54:	08 00 00 02 
  413d58:	5d 00 00 00 	sltu $2,$3,$6
  413d5c:	00 02 06 03 
  413d60:	05 00 00 00 	beq $2,$0,413d78 <__udivdi3+0x528>
  413d64:	04 00 00 02 
  413d68:	43 00 00 00 	addiu $7,$7,-1
  413d6c:	ff ff 07 07 
  413d70:	42 00 00 00 	addu $3,$3,$10
  413d74:	00 03 0a 03 
  413d78:	55 00 00 00 	sll $2,$5,0x10
  413d7c:	10 02 05 00 
  413d80:	50 00 00 00 	or $9,$2,$7
  413d84:	00 09 07 02 
  413d88:	45 00 00 00 	subu $4,$3,$6
  413d8c:	00 04 06 03 
  413d90:	57 00 00 00 	srl $6,$10,0x10
  413d94:	10 06 0a 00 
  413d98:	49 00 00 00 	divu $0,$4,$6
  413d9c:	00 00 06 04 
  413da0:	06 00 00 00 	bne $6,$0,413db0 <__udivdi3+0x560>
  413da4:	02 00 00 06 
  413da8:	a1 00 00 00 	break 
  413dac:	07 00 00 00 
  413db0:	4c 00 00 00 	mflo $7
  413db4:	00 07 00 00 
  413db8:	4a 00 00 00 	mfhi $3
  413dbc:	00 03 00 00 
  413dc0:	4f 00 00 00 	andi $8,$10,65535
  413dc4:	ff ff 08 0a 
  413dc8:	46 00 00 00 	mult $7,$8
  413dcc:	00 00 08 07 
  413dd0:	4c 00 00 00 	mflo $5
  413dd4:	00 05 00 00 
  413dd8:	55 00 00 00 	sll $2,$3,0x10
  413ddc:	10 02 03 00 
  413de0:	57 00 00 00 	srl $3,$12,0x10
  413de4:	10 03 0c 00 
  413de8:	50 00 00 00 	or $3,$2,$3
  413dec:	00 03 03 02 
  413df0:	5d 00 00 00 	sltu $2,$3,$5
  413df4:	00 02 05 03 
  413df8:	05 00 00 00 	beq $2,$0,413e40 <__udivdi3+0x5f0>
  413dfc:	10 00 00 02 
  413e00:	43 00 00 00 	addiu $7,$7,-1
  413e04:	ff ff 07 07 
  413e08:	42 00 00 00 	addu $3,$3,$10
  413e0c:	00 03 0a 03 
  413e10:	5d 00 00 00 	sltu $2,$3,$10
  413e14:	00 02 0a 03 
  413e18:	06 00 00 00 	bne $2,$0,413e40 <__udivdi3+0x5f0>
  413e1c:	08 00 00 02 
  413e20:	5d 00 00 00 	sltu $2,$3,$5
  413e24:	00 02 05 03 
  413e28:	05 00 00 00 	beq $2,$0,413e40 <__udivdi3+0x5f0>
  413e2c:	04 00 00 02 
  413e30:	43 00 00 00 	addiu $7,$7,-1
  413e34:	ff ff 07 07 
  413e38:	42 00 00 00 	addu $3,$3,$10
  413e3c:	00 03 0a 03 
  413e40:	45 00 00 00 	subu $3,$3,$5
  413e44:	00 03 05 03 
  413e48:	49 00 00 00 	divu $0,$3,$6
  413e4c:	00 00 06 03 
  413e50:	06 00 00 00 	bne $6,$0,413e60 <__udivdi3+0x610>
  413e54:	02 00 00 06 
  413e58:	a1 00 00 00 	break 
  413e5c:	07 00 00 00 
  413e60:	4c 00 00 00 	mflo $4
  413e64:	00 04 00 00 
  413e68:	4a 00 00 00 	mfhi $3
  413e6c:	00 03 00 00 
  413e70:	46 00 00 00 	mult $4,$8
  413e74:	00 00 08 04 
  413e78:	4c 00 00 00 	mflo $5
  413e7c:	00 05 00 00 
  413e80:	55 00 00 00 	sll $2,$3,0x10
  413e84:	10 02 03 00 
  413e88:	4f 00 00 00 	andi $3,$12,65535
  413e8c:	ff ff 03 0c 
  413e90:	50 00 00 00 	or $3,$2,$3
  413e94:	00 03 03 02 
  413e98:	5d 00 00 00 	sltu $2,$3,$5
  413e9c:	00 02 05 03 
  413ea0:	05 00 00 00 	beq $2,$0,413ee0 <__udivdi3+0x690>
  413ea4:	0e 00 00 02 
  413ea8:	43 00 00 00 	addiu $4,$4,-1
  413eac:	ff ff 04 04 
  413eb0:	42 00 00 00 	addu $3,$3,$10
  413eb4:	00 03 0a 03 
  413eb8:	5d 00 00 00 	sltu $2,$3,$10
  413ebc:	00 02 0a 03 
  413ec0:	06 00 00 00 	bne $2,$0,413ee0 <__udivdi3+0x690>
  413ec4:	06 00 00 02 
  413ec8:	5d 00 00 00 	sltu $2,$3,$5
  413ecc:	00 02 05 03 
  413ed0:	05 00 00 00 	beq $2,$0,413ee0 <__udivdi3+0x690>
  413ed4:	02 00 00 02 
  413ed8:	43 00 00 00 	addiu $4,$4,-1
  413edc:	ff ff 04 04 
  413ee0:	55 00 00 00 	sll $2,$7,0x10
  413ee4:	10 02 07 00 
  413ee8:	50 00 00 00 	or $6,$2,$4
  413eec:	00 06 04 02 
  413ef0:	01 00 00 00 	j 414218 <__udivdi3+0x9c8>
  413ef4:	86 50 10 00 
  413ef8:	5d 00 00 00 	sltu $2,$4,$6
  413efc:	00 02 06 04 
  413f00:	05 00 00 00 	beq $2,$0,413f18 <__udivdi3+0x6c8>
  413f04:	04 00 00 02 
  413f08:	42 00 00 00 	addu $6,$0,$0
  413f0c:	00 06 00 00 
  413f10:	01 00 00 00 	j 414210 <__udivdi3+0x9c0>
  413f14:	84 50 10 00 
  413f18:	42 00 00 00 	addu $5,$0,$6
  413f1c:	00 05 06 00 
  413f20:	51 00 00 00 	ori $2,$0,65535
  413f24:	ff ff 02 00 
  413f28:	5d 00 00 00 	sltu $2,$2,$6
  413f2c:	00 02 06 02 
  413f30:	06 00 00 00 	bne $2,$0,413f60 <__udivdi3+0x710>
  413f34:	0a 00 00 02 
  413f38:	5e 00 00 00 	sltiu $2,$6,256
  413f3c:	00 01 02 06 
  413f40:	42 00 00 00 	addu $3,$0,$0
  413f44:	00 03 00 00 
  413f48:	06 00 00 00 	bne $2,$0,413f90 <__udivdi3+0x740>
  413f4c:	10 00 00 02 
  413f50:	43 00 00 00 	addiu $3,$0,8
  413f54:	08 00 03 00 
  413f58:	01 00 00 00 	j 413f90 <__udivdi3+0x740>
  413f5c:	e4 4f 10 00 
  413f60:	a2 00 00 00 	lui $2,255
  413f64:	ff 00 02 00 
  413f68:	51 00 00 00 	ori $2,$2,65535
  413f6c:	ff ff 02 02 
  413f70:	5d 00 00 00 	sltu $2,$2,$5
  413f74:	00 02 05 02 
  413f78:	43 00 00 00 	addiu $3,$0,24
  413f7c:	18 00 03 00 
  413f80:	06 00 00 00 	bne $2,$0,413f90 <__udivdi3+0x740>
  413f84:	02 00 00 02 
  413f88:	43 00 00 00 	addiu $3,$0,16
  413f8c:	10 00 03 00 
  413f90:	58 00 00 00 	srlv $2,$5,$3
  413f94:	00 02 05 03 
  413f98:	a2 00 00 00 	lui $1,4096
  413f9c:	00 10 01 00 
  413fa0:	42 00 00 00 	addu $1,$1,$2
  413fa4:	00 01 02 01 
  413fa8:	22 00 00 00 	lbu $2,5120($1)
  413fac:	00 14 02 01 
  413fb0:	42 00 00 00 	addu $2,$2,$3
  413fb4:	00 02 03 02 
  413fb8:	43 00 00 00 	addiu $3,$0,32
  413fbc:	20 00 03 00 
  413fc0:	45 00 00 00 	subu $3,$3,$2
  413fc4:	00 03 02 03 
  413fc8:	06 00 00 00 	bne $3,$0,414000 <__udivdi3+0x7b0>
  413fcc:	0c 00 00 03 
  413fd0:	5d 00 00 00 	sltu $2,$6,$4
  413fd4:	00 02 04 06 
  413fd8:	06 00 00 00 	bne $2,$0,413ff0 <__udivdi3+0x7a0>
  413fdc:	04 00 00 02 
  413fe0:	5d 00 00 00 	sltu $2,$12,$10
  413fe4:	00 02 0a 0c 
  413fe8:	06 00 00 00 	bne $2,$0,413f08 <__udivdi3+0x6b8>
  413fec:	c6 ff 00 02 
  413ff0:	43 00 00 00 	addiu $6,$0,1
  413ff4:	01 00 06 00 
  413ff8:	01 00 00 00 	j 414210 <__udivdi3+0x9c0>
  413ffc:	84 50 10 00 
  414000:	43 00 00 00 	addiu $2,$0,32
  414004:	20 00 02 00 
  414008:	45 00 00 00 	subu $5,$2,$3
  41400c:	00 05 03 02 
  414010:	56 00 00 00 	sllv $6,$6,$3
  414014:	00 06 06 03 
  414018:	58 00 00 00 	srlv $2,$10,$5
  41401c:	00 02 0a 05 
  414020:	50 00 00 00 	or $6,$6,$2
  414024:	00 06 02 06 
  414028:	56 00 00 00 	sllv $10,$10,$3
  41402c:	00 0a 0a 03 
  414030:	58 00 00 00 	srlv $8,$4,$5
  414034:	00 08 04 05 
  414038:	56 00 00 00 	sllv $4,$4,$3
  41403c:	00 04 04 03 
  414040:	58 00 00 00 	srlv $2,$12,$5
  414044:	00 02 0c 05 
  414048:	50 00 00 00 	or $4,$4,$2
  41404c:	00 04 02 04 
  414050:	56 00 00 00 	sllv $12,$12,$3
  414054:	00 0c 0c 03 
  414058:	57 00 00 00 	srl $7,$6,0x10
  41405c:	10 07 06 00 
  414060:	49 00 00 00 	divu $0,$8,$7
  414064:	00 00 07 08 
  414068:	06 00 00 00 	bne $7,$0,414078 <__udivdi3+0x828>
  41406c:	02 00 00 07 
  414070:	a1 00 00 00 	break 
  414074:	07 00 00 00 
  414078:	4c 00 00 00 	mflo $5
  41407c:	00 05 00 00 
  414080:	4a 00 00 00 	mfhi $3
  414084:	00 03 00 00 
  414088:	4f 00 00 00 	andi $11,$6,65535
  41408c:	ff ff 0b 06 
  414090:	46 00 00 00 	mult $5,$11
  414094:	00 00 0b 05 
  414098:	4c 00 00 00 	mflo $8
  41409c:	00 08 00 00 
  4140a0:	57 00 00 00 	srl $2,$4,0x10
  4140a4:	10 02 04 00 
  4140a8:	55 00 00 00 	sll $3,$3,0x10
  4140ac:	10 03 03 00 
  4140b0:	50 00 00 00 	or $3,$3,$2
  4140b4:	00 03 02 03 
  4140b8:	5d 00 00 00 	sltu $2,$3,$8
  4140bc:	00 02 08 03 
  4140c0:	05 00 00 00 	beq $2,$0,414108 <__udivdi3+0x8b8>
  4140c4:	10 00 00 02 
  4140c8:	43 00 00 00 	addiu $5,$5,-1
  4140cc:	ff ff 05 05 
  4140d0:	42 00 00 00 	addu $3,$3,$6
  4140d4:	00 03 06 03 
  4140d8:	5d 00 00 00 	sltu $2,$3,$6
  4140dc:	00 02 06 03 
  4140e0:	06 00 00 00 	bne $2,$0,414108 <__udivdi3+0x8b8>
  4140e4:	08 00 00 02 
  4140e8:	5d 00 00 00 	sltu $2,$3,$8
  4140ec:	00 02 08 03 
  4140f0:	05 00 00 00 	beq $2,$0,414108 <__udivdi3+0x8b8>
  4140f4:	04 00 00 02 
  4140f8:	43 00 00 00 	addiu $5,$5,-1
  4140fc:	ff ff 05 05 
  414100:	42 00 00 00 	addu $3,$3,$6
  414104:	00 03 06 03 
  414108:	45 00 00 00 	subu $3,$3,$8
  41410c:	00 03 08 03 
  414110:	49 00 00 00 	divu $0,$3,$7
  414114:	00 00 07 03 
  414118:	06 00 00 00 	bne $7,$0,414128 <__udivdi3+0x8d8>
  41411c:	02 00 00 07 
  414120:	a1 00 00 00 	break 
  414124:	07 00 00 00 
  414128:	4c 00 00 00 	mflo $9
  41412c:	00 09 00 00 
  414130:	4a 00 00 00 	mfhi $3
  414134:	00 03 00 00 
  414138:	46 00 00 00 	mult $9,$11
  41413c:	00 00 0b 09 
  414140:	4c 00 00 00 	mflo $8
  414144:	00 08 00 00 
  414148:	55 00 00 00 	sll $2,$3,0x10
  41414c:	10 02 03 00 
  414150:	4f 00 00 00 	andi $3,$4,65535
  414154:	ff ff 03 04 
  414158:	50 00 00 00 	or $3,$2,$3
  41415c:	00 03 03 02 
  414160:	5d 00 00 00 	sltu $2,$3,$8
  414164:	00 02 08 03 
  414168:	05 00 00 00 	beq $2,$0,4141b0 <__udivdi3+0x960>
  41416c:	10 00 00 02 
  414170:	43 00 00 00 	addiu $9,$9,-1
  414174:	ff ff 09 09 
  414178:	42 00 00 00 	addu $3,$3,$6
  41417c:	00 03 06 03 
  414180:	5d 00 00 00 	sltu $2,$3,$6
  414184:	00 02 06 03 
  414188:	06 00 00 00 	bne $2,$0,4141b0 <__udivdi3+0x960>
  41418c:	08 00 00 02 
  414190:	5d 00 00 00 	sltu $2,$3,$8
  414194:	00 02 08 03 
  414198:	05 00 00 00 	beq $2,$0,4141b0 <__udivdi3+0x960>
  41419c:	04 00 00 02 
  4141a0:	43 00 00 00 	addiu $9,$9,-1
  4141a4:	ff ff 09 09 
  4141a8:	42 00 00 00 	addu $3,$3,$6
  4141ac:	00 03 06 03 
  4141b0:	55 00 00 00 	sll $2,$5,0x10
  4141b4:	10 02 05 00 
  4141b8:	50 00 00 00 	or $6,$2,$9
  4141bc:	00 06 09 02 
  4141c0:	45 00 00 00 	subu $4,$3,$8
  4141c4:	00 04 08 03 
  4141c8:	47 00 00 00 	multu $6,$10
  4141cc:	00 00 0a 06 
  4141d0:	4c 00 00 00 	mflo $5
  4141d4:	00 05 00 00 
  4141d8:	4a 00 00 00 	mfhi $3
  4141dc:	00 03 00 00 
  4141e0:	5d 00 00 00 	sltu $2,$4,$3
  4141e4:	00 02 03 04 
  4141e8:	06 00 00 00 	bne $2,$0,414208 <__udivdi3+0x9b8>
  4141ec:	06 00 00 02 
  4141f0:	06 00 00 00 	bne $3,$4,414210 <__udivdi3+0x9c0>
  4141f4:	06 00 04 03 
  4141f8:	5d 00 00 00 	sltu $2,$12,$5
  4141fc:	00 02 05 0c 
  414200:	05 00 00 00 	beq $2,$0,414210 <__udivdi3+0x9c0>
  414204:	02 00 00 02 
  414208:	43 00 00 00 	addiu $6,$6,-1
  41420c:	ff ff 06 06 
  414210:	42 00 00 00 	addu $9,$0,$0
  414214:	00 09 00 00 
  414218:	42 00 00 00 	addu $14,$0,$6
  41421c:	00 0e 06 00 
  414220:	42 00 00 00 	addu $15,$0,$9
  414224:	00 0f 09 00 
  414228:	42 00 00 00 	addu $2,$0,$14
  41422c:	00 02 0e 00 
  414230:	42 00 00 00 	addu $3,$0,$15
  414234:	00 03 0f 00 
  414238:	03 00 00 00 	jr $31
  41423c:	00 00 00 1f 
